
TransistorTester.elf:     file format elf32-avr

Sections:
Idx Name          Size      VMA       LMA       File off  Algn
  0 .data         00000000  00800100  00006516  000065ca  2**0
                  CONTENTS, ALLOC, LOAD, DATA
  1 .text         00006516  00000000  00000000  000000b4  2**1
                  CONTENTS, ALLOC, LOAD, READONLY, CODE
  2 .bss          000000ba  00800100  00800100  000065ca  2**0
                  ALLOC
  3 .eeprom       0000034f  00810000  00810000  000065ca  2**0
                  CONTENTS, ALLOC, LOAD, READONLY, DATA
  4 .comment      00000030  00000000  00000000  00006919  2**0
                  CONTENTS, READONLY
  5 .debug_aranges 000004d8  00000000  00000000  00006950  2**3
                  CONTENTS, READONLY, DEBUGGING
  6 .debug_info   0000b704  00000000  00000000  00006e28  2**0
                  CONTENTS, READONLY, DEBUGGING
  7 .debug_abbrev 000026e7  00000000  00000000  0001252c  2**0
                  CONTENTS, READONLY, DEBUGGING
  8 .debug_line   00002e3c  00000000  00000000  00014c13  2**0
                  CONTENTS, READONLY, DEBUGGING
  9 .debug_frame  00000c08  00000000  00000000  00017a50  2**2
                  CONTENTS, READONLY, DEBUGGING
 10 .debug_str    000016a8  00000000  00000000  00018658  2**0
                  CONTENTS, READONLY, DEBUGGING
 11 .debug_loc    000067ad  00000000  00000000  00019d00  2**0
                  CONTENTS, READONLY, DEBUGGING
 12 .debug_ranges 00000088  00000000  00000000  000204ad  2**0
                  CONTENTS, READONLY, DEBUGGING

Disassembly of section .text:

00000000 <__vectors>:
       0:	0e c1       	rjmp	.+540    	; 0x21e <__ctors_end>
       2:	00 00       	nop
       4:	1e c1       	rjmp	.+572    	; 0x242 <__bad_interrupt>
       6:	00 00       	nop
       8:	1c c1       	rjmp	.+568    	; 0x242 <__bad_interrupt>
       a:	00 00       	nop
       c:	1a c1       	rjmp	.+564    	; 0x242 <__bad_interrupt>
       e:	00 00       	nop
      10:	18 c1       	rjmp	.+560    	; 0x242 <__bad_interrupt>
      12:	00 00       	nop
      14:	0c 94 23 20 	jmp	0x4046	; 0x4046 <__vector_5>
      18:	14 c1       	rjmp	.+552    	; 0x242 <__bad_interrupt>
      1a:	00 00       	nop
      1c:	1f c6       	rjmp	.+3134   	; 0xc5c <__vector_7>
      1e:	00 00       	nop
      20:	10 c1       	rjmp	.+544    	; 0x242 <__bad_interrupt>
      22:	00 00       	nop
      24:	0e c1       	rjmp	.+540    	; 0x242 <__bad_interrupt>
      26:	00 00       	nop
      28:	0c 94 34 18 	jmp	0x3068	; 0x3068 <__vector_10>
      2c:	0c 94 07 20 	jmp	0x400e	; 0x400e <__vector_11>
      30:	0c 94 15 20 	jmp	0x402a	; 0x402a <__vector_12>
      34:	0c 94 0e 18 	jmp	0x301c	; 0x301c <__vector_13>
      38:	04 c1       	rjmp	.+520    	; 0x242 <__bad_interrupt>
      3a:	00 00       	nop
      3c:	02 c1       	rjmp	.+516    	; 0x242 <__bad_interrupt>
      3e:	00 00       	nop
      40:	00 c1       	rjmp	.+512    	; 0x242 <__bad_interrupt>
      42:	00 00       	nop
      44:	fe c0       	rjmp	.+508    	; 0x242 <__bad_interrupt>
      46:	00 00       	nop
      48:	fc c0       	rjmp	.+504    	; 0x242 <__bad_interrupt>
      4a:	00 00       	nop
      4c:	fa c0       	rjmp	.+500    	; 0x242 <__bad_interrupt>
      4e:	00 00       	nop
      50:	f8 c0       	rjmp	.+496    	; 0x242 <__bad_interrupt>
      52:	00 00       	nop
      54:	04 c6       	rjmp	.+3080   	; 0xc5e <__vector_21>
      56:	00 00       	nop
      58:	f4 c0       	rjmp	.+488    	; 0x242 <__bad_interrupt>
      5a:	00 00       	nop
      5c:	f2 c0       	rjmp	.+484    	; 0x242 <__bad_interrupt>
      5e:	00 00       	nop
      60:	f0 c0       	rjmp	.+480    	; 0x242 <__bad_interrupt>
      62:	00 00       	nop
      64:	ee c0       	rjmp	.+476    	; 0x242 <__bad_interrupt>
	...

00000068 <samplingADC>:
	lds	r7, ADMUX
#endif

; r25 is span

	mov	r30, r22		; r31:r30 := ptr
      68:	e6 2f       	mov	r30, r22
	mov	r31, r23
      6a:	f7 2f       	mov	r31, r23

	cpi	r25, 0		; set nonsensical span of 0 to 1
      6c:	90 30       	cpi	r25, 0x00	; 0
	brne	L16
      6e:	09 f4       	brne	.+2      	; 0x72 <L16>
	inc	r25
      70:	93 95       	inc	r25

00000072 <L16>:
L16:

 	AOUT	R_PORT, R14	;   Rport_0
      72:	e5 b8       	out	0x05, r14	; 5
 	AOUT	R_DDR, R12	;   Rddr_0
      74:	c4 b8       	out	0x04, r12	; 4

 	ldi	r27, (1<<ADEN) | (1<<ADSC) | (1<<ADATE) | (1<<ADIF) | (0<<ADIE) | AUTO_CLOCK_DIV;
      76:	b6 ef       	ldi	r27, 0xF6	; 246
 	sts	ADCSRA, r27		; start first ADC with ext trigger, but start immediately also, to get done that first conversion which takes extra long
      78:	b0 93 7a 00 	sts	0x007A, r27
 	ldi	r26, (1<<ADTS2) | (0<<ADTS1) | (1<<ADTS0); 
      7c:	a5 e0       	ldi	r26, 0x05	; 5
 	sts	ADCSRB, r26		; trigger source is COUNTER1 compare match B
      7e:	a0 93 7b 00 	sts	0x007B, r26

        ldi	r26, (1<<WGM12)
      82:	a8 e0       	ldi	r26, 0x08	; 8
 	sts	TCCR1B, r26		; TCCR1B = 0;  stop counter1
      84:	a0 93 81 00 	sts	0x0081, r26
 	sts	TCCR1A, r1  		; TCCR1A = 0;  set counter1 to Clear Timer on Compare Match mode
      88:	10 92 80 00 	sts	0x0080, r1
	ldi	r26, 0xff
      8c:	af ef       	ldi	r26, 0xFF	; 255
 	sts	TCNT1H, r26		; set initial counter to -1
      8e:	a0 93 85 00 	sts	0x0085, r26
 	sts	TCNT1L, r26
      92:	a0 93 84 00 	sts	0x0084, r26
 	ldi	r26, (1<<OCF1B)|(1<<OCF1A)
      96:	a6 e0       	ldi	r26, 0x06	; 6
 	sts	TIFR1, r26		; reset both counter compare interrupts, otherwise ADC might be started prematurely
      98:	a0 93 36 00 	sts	0x0036, r26
 	sts	OCR1BH, r1		; schedule start of ADC cycle at counter=0, i.e., essentially immediately
      9c:	10 92 8b 00 	sts	0x008B, r1
 	sts	OCR1BL, r1		; 
      a0:	10 92 8a 00 	sts	0x008A, r1
	pop	r24
#endif

				; prepare timing and registers for main loop
					; r27:26 will contain the TOP value for the counter, i.e., 1 less than the pulse-generation period
	ldi 	r27, hi8(TICS_PER_ADC_CYCLE-1)
      a4:	b3 e0       	ldi	r27, 0x03	; 3
	ldi 	r26, lo8(TICS_PER_ADC_CYCLE-1)
      a6:	af e3       	ldi	r26, 0x3F	; 63
	sub 	r26, r25		; this defaults to 1663-span, but may need to be incremented if measurement will take longer due to large span
      a8:	a9 1b       	sub	r26, r25
	ldi	r21, 1			; r21 will contain number of ADC readings per pulse
      aa:	51 e0       	ldi	r21, 0x01	; 1
 	mov	r19, r25		; load span into r19; total measurement will cover r19*nn tics, which is upperbounded by 256*r19
      ac:	39 2f       	mov	r19, r25

000000ae <L14>:
 					; one ADC cycle is 13*128 (or 13*64) tics, but we need some time for generating the pulse, so can fit say at most 10*128 = 5*256 tics (or 8*64 = 2*256; 10*64 isn't a multiple of 256, so would require more code)
 					; NEW: leave a bit more space so we can also do the long train of pulses for crystals
L14:
 	cpi	r19, (1+10*TICS_PER_ADC_CLOCK/256)	; if "remaining" span <=5 (or <=2), we're fine, don't need to increase pulse generation period
      ae:	33 30       	cpi	r19, 0x03	; 3
#ifdef WITH_XTAL
	sbrc	r24, smplADC_many
 	cpi	r19, (2+2*TICS_PER_ADC_CLOCK/256)	; in case of long pulse train: if "remaining" span <=3 (or <=2), we're fine, don't need to increase pulse generation period
#endif
 	brmi	L13
      b0:	2a f0       	brmi	.+10     	; 0xbc <L13>
 	subi	r26, lo8(-TICS_PER_ADC_CYCLE)	; otherwise, extend pulse generation period by 1664
      b2:	a0 5c       	subi	r26, 0xC0	; 192
 	sbci	r27, hi8(-TICS_PER_ADC_CYCLE)		
      b4:	bc 4f       	sbci	r27, 0xFC	; 252
 	inc	r21			; increment number of ADC readings per pulse
      b6:	53 95       	inc	r21
 	subi	r19, 3*(TICS_PER_ADC_CLOCK/64)		; each extra ADC cycle included in pulse generation period makes space for 13*128 (or 13*64) tics; for simplicity we (safely) calculate as if it were 12*128 = 6*256 (or 12*64 = 3*256)
      b8:	33 50       	subi	r19, 0x03	; 3
 	rjmp	L14			; check whether this was enough
      ba:	f9 cf       	rjmp	.-14     	; 0xae <L14>

000000bc <L13>:
L13:
 	sts	OCR1AH, r27		; store calculated TOP value for counter 1
      bc:	b0 93 89 00 	sts	0x0089, r27
 	sts	OCR1AL, r26		; 
      c0:	a0 93 88 00 	sts	0x0088, r26

000000c4 <wait_adc>:



wait_adc:
 	lds	r26, ADCSRA		
      c4:	a0 91 7a 00 	lds	r26, 0x007A
 	sbrs	r26, ADIF
      c8:	a4 ff       	sbrs	r26, 4
 	rjmp	wait_adc 		; wait until the initial conversion finishes
      ca:	fc cf       	rjmp	.-8      	; 0xc4 <wait_adc>
 	ldi	r27, (1<<ADEN) | (1<<ADATE) | (1<<ADIF) | (0<<ADIE) | AUTO_CLOCK_DIV;
      cc:	b6 eb       	ldi	r27, 0xB6	; 182
 	sts	ADCSRA, r27		; reset ADC interrupt flag
      ce:	b0 93 7a 00 	sts	0x007A, r27

 	ldi	r26,(1<<OCIE1A)
      d2:	a2 e0       	ldi	r26, 0x02	; 2
 	sts	TIMSK1, r26		; disable counter1 compare B Interrupt (used to trigger ADC), enable counter1 compare A Interrupt (used to exit sleep to generate next pulse)
      d4:	a0 93 6f 00 	sts	0x006F, r26

 	ldi	r26, (1<<CS10)|(1<<WGM12)
      d8:	a9 e0       	ldi	r26, 0x09	; 9
 	sts	TCCR1B, r26		; start counter1 at full speed
      da:	a0 93 81 00 	sts	0x0081, r26

	ldi	r22, 2			; skip first ADC result since it is nonsense (it predates the start of the pulse or step)
      de:	62 e0       	ldi	r22, 0x02	; 2

	ldi	r26, 0			; switch ADC to free-running mode (we can do that here because can be sure that by now it has been triggered)
      e0:	a0 e0       	ldi	r26, 0x00	; 0
	sts	ADCSRB, r26		; 
      e2:	a0 93 7b 00 	sts	0x007B, r26

000000e6 <backtosleep>:
; - ... |smplADC_many:        4 times longer bunch of pulses via Rport_1
; - ... |smplADC_sck:         short-circuit the DUT for a while after applying pulses
; - smplADC_direct:           single pulse via the ADC pins, i.e. with no series resistance ("direct" pulse)

backtosleep:
	ldi	r26, (1<<SE)
      e6:	a1 e0       	ldi	r26, 0x01	; 1
	sts	SMCR, r26
      e8:	a0 93 53 00 	sts	0x0053, r26
	sleep
      ec:	88 95       	sleep

	; toggle output (back) to the idle state 
 	AOUT	R_PORT, R14	;   Rport_0
      ee:	e5 b8       	out	0x05, r14	; 5
 	AOUT	R_DDR, R12	;   Rddr_0
      f0:	c4 b8       	out	0x04, r12	; 4

	sbrs 	r24, smplADC_direct
      f2:	84 ff       	sbrs	r24, 4
	rjmp	stepresponse
      f4:	1a c0       	rjmp	.+52     	; 0x12a <stepresponse>

 	; wait a bit less than 256 ticks; precise value determined experimentally, by looking at the sampled data and aligning start of response with first sample
#define Delay_pulse (201-Lessdelay)

 	ldi	r26, (Delay_pulse/3)
      f6:	a8 e1       	ldi	r26, 0x18	; 24
	...

000000fa <L11>:
	nop
#endif
#if Delay_pulse%3>1
	nop
#endif
L11:	dec	r26
      fa:	aa 95       	dec	r26
	brne	L11
      fc:	f1 f7       	brne	.-4      	; 0xfa <L11>
	; do the "direct" pulse, i.e., apply the pulse via de ADC pins, with no series resistance
	push 	r30
      fe:	ef 93       	push	r30
	push	r31
     100:	ff 93       	push	r31
	AIN	r30, ADC_DDR	;
     102:	e7 b1       	in	r30, 0x07	; 7
	AIN	r31, ADC_PORT	;
     104:	f8 b1       	in	r31, 0x08	; 8
	ldi	r26, (1<<TP3)	;
     106:	a4 e0       	ldi	r26, 0x04	; 4
	sbrc	R12, PIN_RL2	; is the bit for TP2 resistor set?
     108:	c2 fc       	sbrc	r12, 2
	ldi	r26, (1<<TP2)	;
     10a:	a2 e0       	ldi	r26, 0x02	; 2
	sbrc	R12, PIN_RL1	; ist the bit for TP3 resistor set?
     10c:	c0 fc       	sbrc	r12, 0
	ldi	r26, (1<<TP1)	;
     10e:	a1 e0       	ldi	r26, 0x01	; 1
	; r26 now hold the bit for the direct ADC port
	mov	r27, r31	; ADC_PORT state
     110:	bf 2f       	mov	r27, r31
	or	r27, r26	; r27 is the for ADC port with HiPin set to 1
     112:	ba 2b       	or	r27, r26
	or	r26, r30	; r26 enables the HiPin and LoPin output,  ADC_DDR
     114:	ae 2b       	or	r26, r30
	AOUT	ADC_PORT, r27	; set Hipin to high
     116:	b8 b9       	out	0x08, r27	; 8
	AOUT	R_DDR, R16	; R_DDR = Rddr1 open all resistor ports
     118:	04 b9       	out	0x04, r16	; 4
	AOUT	ADC_DDR, r26	; one clock tic high without resistor at HiPin, current about 5V/(42 Ohm)=119mA !!!
     11a:	a7 b9       	out	0x07, r26	; 7
	AOUT	ADC_DDR, r30	; disable the HiPin output
     11c:	e7 b9       	out	0x07, r30	; 7
	AOUT	ADC_PORT, r31	; reset Hipin to low
     11e:	f8 b9       	out	0x08, r31	; 8
	pop	r31
     120:	ff 91       	pop	r31
	pop	r30
     122:	ef 91       	pop	r30
	rjmp	waitevent
     124:	0b c0       	rjmp	.+22     	; 0x13c <genfreq_end>

00000126 <backtosleep2>:


backtosleep2:
	jmp	backtosleep
     126:	0c 94 73 00 	jmp	0xe6	; 0xe6 <backtosleep>

0000012a <stepresponse>:
#ifdef WITH_XTAL
 #define Delay_step (211-Lessdelay)
#else
 #define Delay_step (214-Lessdelay)
#endif
 	ldi	r26, (Delay_step/3)
     12a:	ac e1       	ldi	r26, 0x1C	; 28
#if Delay_step%3>0
	nop
     12c:	00 00       	nop
	...

00000130 <L10>:
#endif
#if Delay_step%3>1
	nop
#endif
L10:	dec	r26
     130:	aa 95       	dec	r26
	brne	L10
     132:	f1 f7       	brne	.-4      	; 0x130 <L10>

	AOUT	R_PORT, R18	;  = Rport_1
     134:	25 b9       	out	0x05, r18	; 5
	AOUT	R_PORT, R14	;  = Rport_0
     136:	e5 b8       	out	0x05, r14	; 5
	nop
     138:	00 00       	nop
				; generate start of step signal
				; this is (should be) aligned with the first sample
 	AOUT	R_DDR, R16	;  R_DDR = Rddr_1
     13a:	04 b9       	out	0x04, r16	; 4

0000013c <genfreq_end>:
genfreq_end:



waitevent:			; waiting loop: we wait until either counter1 is almost going to be reset, or the AD converter has a result
	lds	r26, TCNT1L	; need to read TCNT1L to latch TCNT1H
     13c:	a0 91 84 00 	lds	r26, 0x0084
	lds	r26, TCNT1H
     140:	a0 91 85 00 	lds	r26, 0x0085
	lds	r27, OCR1AH
     144:	b0 91 89 00 	lds	r27, 0x0089
	inc	r26
     148:	a3 95       	inc	r26
	cp	r26, r27	; check if TCNT1H is getting near OCR1AH; if so, go to sleep to be sure not to miss the interrupt
     14a:	ab 17       	cp	r26, r27
	brcc	backtosleep2
     14c:	60 f7       	brcc	.-40     	; 0x126 <backtosleep2>
	breq	L27
	AOUT 	ADC_DDR,r9	; set ADC_DDR back to its original non-shortcircuiting value
L26:
#endif

 	lds	r26, ADCSRA	; otherwise:
     14e:	a0 91 7a 00 	lds	r26, 0x007A
 	sbrs	r26, ADIF	; check if conversion done (interrupt flag is raised)
     152:	a4 ff       	sbrs	r26, 4
 	rjmp	waitevent	; if not, go back to checking counter
     154:	f3 cf       	rjmp	.-26     	; 0x13c <genfreq_end>

 				; the ADC gives a result
 	ldi	r27, (1<<ADEN) | (1<<ADATE) | (1<<ADIF) | (0<<ADIE) | AUTO_CLOCK_DIV;
     156:	b6 eb       	ldi	r27, 0xB6	; 182
 	sts	ADCSRA, r27	; reset ADC interrupt flag
     158:	b0 93 7a 00 	sts	0x007A, r27
L22:
	sts	ADMUX, r19
L23:
#endif
 				; now need to check whether we should read or discard it
	dec	r22		; r22 counts AD conversions within one pulse cycle
     15c:	6a 95       	dec	r22

0000015e <brnewaitevent>:
brnewaitevent:
	brne	waitevent	; if r22 not yet zero, it's not yet our turn
     15e:	71 f7       	brne	.-36     	; 0x13c <genfreq_end>


	lds	r22, ADCL	; read ADC
     160:	60 91 78 00 	lds	r22, 0x0078
	lds	r23, ADCH
     164:	70 91 79 00 	lds	r23, 0x0079
	sbc 	r23, r19
	add	r4, r22		; update DC<<2, namely  dc := (sample-dc)/8 ;
	adc	r5, r23
#endif

	ld	r19, z		; and store, accumulating if that bit in r24 is set
     168:	30 81       	ld	r19, Z
	sbrc 	r24, smplADC_cumul
     16a:	86 fd       	sbrc	r24, 6
	add	r22, r19
     16c:	63 0f       	add	r22, r19
	st	z+, r22
     16e:	61 93       	st	Z+, r22
	ld	r19, z
     170:	30 81       	ld	r19, Z
	sbrc 	r24, smplADC_cumul
     172:	86 fd       	sbrc	r24, 6
	adc	r23, r19
     174:	73 1f       	adc	r23, r19
	sbrs    r24, smplADC_8bit
     176:	80 ff       	sbrs	r24, 0
	st	z+, r23
     178:	71 93       	st	Z+, r23

	mov	r22, r21		; reinitialize r22
     17a:	65 2f       	mov	r22, r21

	dec	r20			; decrement counter of remaining samples
     17c:	4a 95       	dec	r20
;	brne	waitevent
	brne	brnewaitevent
     17e:	79 f7       	brne	.-34     	; 0x15e <brnewaitevent>

00000180 <end>:

end:
 	AOUT	TIMSK1, r1	; disable counter1 interrupts
     180:	10 92 6f 00 	sts	0x006F, r1
 	AOUT	TCCR1B, r1	; stop counter1
     184:	10 92 81 00 	sts	0x0081, r1
 	ldi	r27, AUTO_CLOCK_DIV;
     188:	b6 e0       	ldi	r27, 0x06	; 6
 	AOUT	ADCSRA, r27	; disable ADC
     18a:	b0 93 7a 00 	sts	0x007A, r27
L30c:
	pop	r17
	pop	r5
	pop	r4
#endif
	ret
     18e:	08 95       	ret

00000190 <PinRLRHADCtab>:
     190:	01 04 10 01 02 04                                   ......

00000196 <HelpCalibration_str>:
     196:	4e 6f 74 20 63 61 6c 69 62 72 61 74 65 64 21 00     Not calibrated!.

000001a6 <RHtab>:
     1a6:	b9 03 87 03 58 03 2e 03 07 03 e4 02 c3 02 a4 02     ....X...........
     1b6:	88 02                                               ..

000001b8 <LogTab>:
     1b8:	00 00 14 00 29 00 3e 00 53 00 69 00 80 00 97 00     ....).>.S.i.....
     1c8:	ae 00 c6 00 df 00 f8 00 12 01 2d 01 49 01 65 01     ..........-.I.e.
     1d8:	82 01 a0 01 be 01 de 01 ff 01 21 02 44 02 68 02     ..........!.D.h.
     1e8:	8e 02 b5 02 de 02 09 03 35 03 64 03 94 03 c8 03     ........5.d.....
     1f8:	fe 03 37 04 73 04 b4 04 f9 04 43 05 93 05 ea 05     ..7.s.....C.....
     208:	49 06 b3 06 29 07 ae 07 48 08 ff 08 de 09 fd 0a     I...)...H.......
     218:	93 0c 48 0f 99 1b                                   ..H...

0000021e <__ctors_end>:
     21e:	11 24       	eor	r1, r1
     220:	1f be       	out	0x3f, r1	; 63
     222:	cf ef       	ldi	r28, 0xFF	; 255
     224:	d8 e0       	ldi	r29, 0x08	; 8
     226:	de bf       	out	0x3e, r29	; 62
     228:	cd bf       	out	0x3d, r28	; 61

0000022a <__do_clear_bss>:
     22a:	21 e0       	ldi	r18, 0x01	; 1
     22c:	a0 e0       	ldi	r26, 0x00	; 0
     22e:	b1 e0       	ldi	r27, 0x01	; 1
     230:	01 c0       	rjmp	.+2      	; 0x234 <.do_clear_bss_start>

00000232 <.do_clear_bss_loop>:
     232:	1d 92       	st	X+, r1

00000234 <.do_clear_bss_start>:
     234:	aa 3b       	cpi	r26, 0xBA	; 186
     236:	b2 07       	cpc	r27, r18
     238:	e1 f7       	brne	.-8      	; 0x232 <.do_clear_bss_loop>
     23a:	0e 94 7d 2b 	call	0x56fa	; 0x56fa <main>
     23e:	0c 94 89 32 	jmp	0x6512	; 0x6512 <_exit>

00000242 <__bad_interrupt>:
     242:	de ce       	rjmp	.-580    	; 0x0 <__vectors>

00000244 <_lcd_hw_write>:
#else	/* !(LCD_INTERFACE_MODE == (MODE_SPI | MODE_7920_SERIAL | MODE_I2C | MODE_7108_SERIAL)) */
;---------------------------------------------------------------------------------
_lcd_hw_write:
; must be a 4-bit parallel interface for HD44780 compatible controller or simular
               ; Set RS (0=Cmd, 1=Char)
               sbrc    preg_1, 0
     244:	80 fd       	sbrc	r24, 0
                       set_rs_high
     246:	5c 9a       	sbi	0x0b, 4	; 11
               sbrs    preg_1, 0
     248:	80 ff       	sbrs	r24, 0
                       set_rs_low
     24a:	5c 98       	cbi	0x0b, 4	; 11
               set_rs_output;		//init hardware
     24c:	54 9a       	sbi	0x0a, 4	; 10
               nop	;		//wait for address setup
     24e:	00 00       	nop
               set_en_high
     250:	5d 9a       	sbi	0x0b, 5	; 11
               set_en_output;		//init hardware
     252:	55 9a       	sbi	0x0a, 5	; 10

               ; Send high nibble
               set_b4_low
     254:	58 98       	cbi	0x0b, 0	; 11
               set_b5_low
     256:	59 98       	cbi	0x0b, 1	; 11
               set_b6_low
     258:	5a 98       	cbi	0x0b, 2	; 11
               set_b7_low
     25a:	5b 98       	cbi	0x0b, 3	; 11

               sbrc    preg_2, 4
     25c:	64 fd       	sbrc	r22, 4
                       set_b4_high
     25e:	58 9a       	sbi	0x0b, 0	; 11
               set_b4_output;		//init hardware
     260:	50 9a       	sbi	0x0a, 0	; 10
               sbrc    preg_2, 5
     262:	65 fd       	sbrc	r22, 5
                       set_b5_high
     264:	59 9a       	sbi	0x0b, 1	; 11
               set_b5_output;		//init hardware
     266:	51 9a       	sbi	0x0a, 1	; 10
               sbrc    preg_2, 6
     268:	66 fd       	sbrc	r22, 6
                       set_b6_high
     26a:	5a 9a       	sbi	0x0b, 2	; 11
               set_b6_output;		//init hardware
     26c:	52 9a       	sbi	0x0a, 2	; 10
               sbrc    preg_2, 7
     26e:	67 fd       	sbrc	r22, 7
                       set_b7_high
     270:	5b 9a       	sbi	0x0b, 3	; 11
               set_b7_output;		//init hardware
     272:	53 9a       	sbi	0x0a, 3	; 10

               nop			; wait for data setup time
     274:	00 00       	nop
               set_en_low		; force data read from LCD controller
     276:	5d 98       	cbi	0x0b, 5	; 11
               RCALL    wait1us
     278:	6b d3       	rcall	.+1750   	; 0x950 <wait1us>

               ; skip sending low nibble for init commands
               sbrc    preg_1, 7
     27a:	87 fd       	sbrc	r24, 7
                       rjmp _lcd_hw_write_exit
     27c:	10 c0       	rjmp	.+32     	; 0x29e <_lcd_hw_write_exit>

               ; Send low nibble
               set_en_high
     27e:	5d 9a       	sbi	0x0b, 5	; 11
               
               set_b4_low
     280:	58 98       	cbi	0x0b, 0	; 11
               set_b5_low
     282:	59 98       	cbi	0x0b, 1	; 11
               set_b6_low
     284:	5a 98       	cbi	0x0b, 2	; 11
               set_b7_low
     286:	5b 98       	cbi	0x0b, 3	; 11
               
               sbrc    preg_2, 0
     288:	60 fd       	sbrc	r22, 0
                       set_b4_high
     28a:	58 9a       	sbi	0x0b, 0	; 11
               sbrc    preg_2, 1
     28c:	61 fd       	sbrc	r22, 1
                       set_b5_high
     28e:	59 9a       	sbi	0x0b, 1	; 11
               sbrc    preg_2, 2
     290:	62 fd       	sbrc	r22, 2
                       set_b6_high
     292:	5a 9a       	sbi	0x0b, 2	; 11
               sbrc    preg_2, 3
     294:	63 fd       	sbrc	r22, 3
                       set_b7_high
     296:	5b 9a       	sbi	0x0b, 3	; 11

               nop			; wait for data setup time
     298:	00 00       	nop
               set_en_low		; force data read from LCD controller
     29a:	5d 98       	cbi	0x0b, 5	; 11
               RCALL    wait50us
 #endif
 #ifdef SLOW_LCD
               RCALL    wait50us
 #else
               RCALL    wait1us
     29c:	59 c3       	rjmp	.+1714   	; 0x950 <wait1us>

0000029e <_lcd_hw_write_exit>:
 #endif
_lcd_hw_write_exit:
               ret		; end _lcd_hw_write
     29e:	08 95       	ret

000002a0 <lcd_save_position>:
}

#if FLASHEND > 0x1fff
/* ************************************************************************************** */
uint8_t lcd_save_position(void) {
 last_text_column = _lcd_column;
     2a0:	80 91 3b 01 	lds	r24, 0x013B
     2a4:	80 93 00 01 	sts	0x0100, r24
 last_text_line = lcd_text_line;
     2a8:	80 91 a1 01 	lds	r24, 0x01A1
     2ac:	80 93 02 01 	sts	0x0102, r24
 return(last_text_line);
}
     2b0:	08 95       	ret

000002b2 <lcd_data>:
 lcd_fg_color.w = lcd_fg2_color.w;
 #else
 lcd_fg_color.w = LCD_FG_COLOR;
 #endif
#endif
_lcd_column++;
     2b2:	90 91 3b 01 	lds	r25, 0x013B
     2b6:	9f 5f       	subi	r25, 0xFF	; 255
     2b8:	90 93 3b 01 	sts	0x013B, r25
 pfont = (uint8_t *)font + (FONT_WIDTH * PAGES_PER_LINE * temp1);	// first byte of character data
 // for other controllers like ST7565 the _page specifies the page of the controller (8 lines)
 lcd_set_pixels( pfont, _xpos, _page*8, 0, (unsigned char)FONT_WIDTH, (unsigned char)(PAGES_PER_LINE*8));
_xpos += FONT_WIDTH;		// move pointer to the next character position
#else
 lcd_write_data(temp1);		// set RS to 1
     2bc:	68 2f       	mov	r22, r24
     2be:	81 e0       	ldi	r24, 0x01	; 1
     2c0:	c1 df       	rcall	.-126    	; 0x244 <_lcd_hw_write>
     2c2:	3d d3       	rcall	.+1658   	; 0x93e <wait50us>
     2c4:	a8 95       	wdr
     2c6:	08 95       	ret

000002c8 <lcd_testpin>:
 #endif
    default:
    	uart_putc(temp1);
 }
#endif
 wdt_reset();
     2c8:	8f 5c       	subi	r24, 0xCF	; 207
     2ca:	f3 cf       	rjmp	.-26     	; 0x2b2 <lcd_data>

/* ******************************************************************************* */
// sends numeric character (Pin Number) to the LCD 
// from binary 0 we send ASCII 1 ....
void lcd_testpin(unsigned char temp) {
   lcd_data(temp + '1' + TP_OFFSET - TP_MIN);
     2cc:	08 95       	ret

000002ce <lcd_space>:
     2ce:	80 e2       	ldi	r24, 0x20	; 32
     2d0:	f0 cf       	rjmp	.-32     	; 0x2b2 <lcd_data>
     2d2:	08 95       	ret

000002d4 <lcd_spaces>:
}

/* ******************************************************************************* */
// send space character to LCD
void lcd_space(void) {
   lcd_data(' ');	// output one space to LCD and UART
     2d4:	a1 e0       	ldi	r26, 0x01	; 1
     2d6:	b0 e0       	ldi	r27, 0x00	; 0
     2d8:	e0 e7       	ldi	r30, 0x70	; 112
     2da:	f1 e0       	ldi	r31, 0x01	; 1
}

void lcd_spaces(int8_t nn) {
     2dc:	0c 94 e0 31 	jmp	0x63c0	; 0x63c0 <__prologue_saves__+0x20>
     2e0:	18 16       	cp	r1, r24
     2e2:	2c f4       	brge	.+10     	; 0x2ee <lcd_spaces+0x1a>
     2e4:	89 83       	std	Y+1, r24	; 0x01
     2e6:	f3 df       	rcall	.-26     	; 0x2ce <lcd_space>
   while (nn > 0) {
     2e8:	89 81       	ldd	r24, Y+1	; 0x01
     2ea:	81 50       	subi	r24, 0x01	; 1
     lcd_space();	// output one space to LCD and UART
     2ec:	f9 cf       	rjmp	.-14     	; 0x2e0 <lcd_spaces+0xc>
     2ee:	21 96       	adiw	r28, 0x01	; 1
     2f0:	e2 e0       	ldi	r30, 0x02	; 2
     2f2:	0c 94 fc 31 	jmp	0x63f8	; 0x63f8 <__epilogue_restores__+0x20>

000002f6 <lcd_equal>:
     2f6:	8d e3       	ldi	r24, 0x3D	; 61
     nn--;
   }
}
     2f8:	dc cf       	rjmp	.-72     	; 0x2b2 <lcd_data>
     2fa:	08 95       	ret

000002fc <lcd_command>:
     2fc:	68 2f       	mov	r22, r24
     2fe:	80 e0       	ldi	r24, 0x00	; 0
// send equal character to LCD
void lcd_equal(void) {
   lcd_data('=');
     300:	a1 df       	rcall	.-190    	; 0x244 <_lcd_hw_write>
     302:	1d c3       	rjmp	.+1594   	; 0x93e <wait50us>
     304:	08 95       	ret

00000306 <lcd_line1>:
     306:	10 92 a1 01 	sts	0x01A1, r1
} /* end lcd_data() */
 
// sends a command to the LCD
 
void lcd_command(unsigned char temp1) {
	_lcd_hw_write(0x00,temp1);
     30a:	80 e8       	ldi	r24, 0x80	; 128
     30c:	f7 df       	rcall	.-18     	; 0x2fc <lcd_command>
     30e:	10 92 3b 01 	sts	0x013B, r1
#if ((LCD_ST_TYPE == 7565) || (LCD_ST_TYPE == 1306) || (LCD_ST_TYPE == 7108) || (LCD_ST_TYPE == 7920) || (LCD_ST_TYPE == 8812) || (LCD_ST_TYPE == 8814) || (LCD_ST_TYPE == 7735) || (LCD_ST_TYPE == 9163) || (LCD_ST_TYPE == 9341) || (LCD_ST_TYPE == 1327))
 ;
#else
	wait50us();		// wait at least 50us after every instruction for character LCD
     312:	08 95       	ret

00000314 <lcd_line2>:
     314:	81 e0       	ldi	r24, 0x01	; 1
}

/* ******************************************************************************* */
//move to the beginning of the 1. row
void lcd_line1() {
   lcd_text_line = 0;
     316:	80 93 a1 01 	sts	0x01A1, r24
   lcd_set_cursor(0 * PAGES_PER_LINE,0);
#elif (LCD_ST_TYPE == 7920)
   _page = 0;			// _page is the vertical pixel address for ST7920 controller
   _xpos = 0;			// LCD_ST7565_H_OFFSET is not used for ST7920 controller
#else
   lcd_command((uint8_t)(CMD_SetDDRAMAddress + LCD_Row1));
     31a:	80 ec       	ldi	r24, 0xC0	; 192
     31c:	ef df       	rcall	.-34     	; 0x2fc <lcd_command>
     31e:	10 92 3b 01 	sts	0x013B, r1
   _lcd_column = 0;
     322:	08 95       	ret

00000324 <lcd_line3>:
     324:	82 e0       	ldi	r24, 0x02	; 2
//move to the beginning of the 2. row
// for the ST7920 you can select a accurate vertical pixel positioning of line with:
// or you can select a 8-line rounding of the positioning of the lines with: 
//#define FONT_V_SPACE (((FONT_HEIGHT + 7) / 8) * 8)
void lcd_line2() {
   lcd_text_line = 1;
     326:	80 93 a1 01 	sts	0x01A1, r24
     32a:	80 e9       	ldi	r24, 0x90	; 144
#if (LCD_GRAPHIC_TYPE != 0)
   lcd_set_cursor(1 * PAGES_PER_LINE,0);
#else
   lcd_command((uint8_t)(CMD_SetDDRAMAddress + LCD_Row2));
     32c:	e7 df       	rcall	.-50     	; 0x2fc <lcd_command>
     32e:	10 92 3b 01 	sts	0x013B, r1
   _lcd_column = 0;
     332:	08 95       	ret

00000334 <lcd_line4>:
     334:	83 e0       	ldi	r24, 0x03	; 3
     336:	80 93 a1 01 	sts	0x01A1, r24
}

/* ******************************************************************************* */
//move to the beginning of the 3. row
void lcd_line3() {
   lcd_text_line = 2;
     33a:	80 ed       	ldi	r24, 0xD0	; 208
     33c:	df df       	rcall	.-66     	; 0x2fc <lcd_command>
#if (LCD_GRAPHIC_TYPE != 0)
   lcd_set_cursor(2 * PAGES_PER_LINE,0);
#else
   lcd_command((uint8_t)(CMD_SetDDRAMAddress + LCD_Row3));
     33e:	10 92 3b 01 	sts	0x013B, r1
     342:	08 95       	ret

00000344 <lcd_set_cursor>:
   _lcd_column = 0;
     344:	60 93 3b 01 	sts	0x013B, r22
     348:	81 30       	cpi	r24, 0x01	; 1
}

/* ******************************************************************************* */
//move to the beginning of the 4. row
void lcd_line4() {
   lcd_text_line = 3;
     34a:	11 f4       	brne	.+4      	; 0x350 <lcd_set_cursor+0xc>
     34c:	80 ec       	ldi	r24, 0xC0	; 192
     34e:	01 c0       	rjmp	.+2      	; 0x352 <lcd_set_cursor+0xe>
#if (LCD_GRAPHIC_TYPE != 0)
   lcd_set_cursor(3 * PAGES_PER_LINE,0);
#else
   lcd_command((uint8_t)(CMD_SetDDRAMAddress + LCD_Row4));
     350:	80 e8       	ldi	r24, 0x80	; 128
     352:	86 0f       	add	r24, r22
     354:	d3 cf       	rjmp	.-90     	; 0x2fc <lcd_command>
   _lcd_column = 0;
     356:	08 95       	ret

00000358 <lcd_restore_position>:
     358:	60 91 00 01 	lds	r22, 0x0100
/* ************************************************************************************** */
/* Set the character position to x,y , where x specifies the character number in a text line. */
/* The y position is the page address (8 line units).                                     */
/* For most controllers the y position must be increased by (Height + 7) / 8 for the next text line */
void lcd_set_cursor(uint8_t y, uint8_t x) {
    _lcd_column = x;
     35c:	80 91 02 01 	lds	r24, 0x0102
    // For example the SPL501 controller has 132x65 dot matrix memory
    // LCD_ST7565_H_OFFSET specifies the offset of the 128 pixel of the display window.
   _xpos = (x * FONT_WIDTH);
#else
   // move to the specified position for character display
   if (y == 1) {
     360:	f1 cf       	rjmp	.-30     	; 0x344 <lcd_set_cursor>
     362:	08 95       	ret

00000364 <lcd_clear>:
     lcd_command((uint8_t)(CMD_SetDDRAMAddress + LCD_Row2 + x));
     364:	81 e0       	ldi	r24, 0x01	; 1
     366:	ca df       	rcall	.-108    	; 0x2fc <lcd_command>
     lcd_command((uint8_t)(CMD_SetDDRAMAddress + LCD_Row3 + x));
   } else if (y == 3) {
     lcd_command((uint8_t)(CMD_SetDDRAMAddress + LCD_Row4 + x));
 #endif
   } else {
     lcd_command((uint8_t)(CMD_SetDDRAMAddress + LCD_Row1 + x));
     368:	82 e0       	ldi	r24, 0x02	; 2
     36a:	f4 d2       	rcall	.+1512   	; 0x954 <sleep_5ms>
     36c:	cc cf       	rjmp	.-104    	; 0x306 <lcd_line1>
     36e:	08 95       	ret

00000370 <lcd_string>:
     370:	cf 93       	push	r28
 last_text_line = lcd_text_line;
 return(last_text_line);
}
/* ************************************************************************************** */
void lcd_restore_position(void) {
 lcd_set_cursor((uint8_t)last_text_line * PAGES_PER_LINE, (uint8_t)(last_text_column));
     372:	df 93       	push	r29
     374:	ec 01       	movw	r28, r24
     376:	89 91       	ld	r24, Y+
     378:	88 23       	and	r24, r24
     37a:	11 f0       	breq	.+4      	; 0x380 <lcd_string+0x10>
     37c:	9a df       	rcall	.-204    	; 0x2b2 <lcd_data>
     37e:	fb cf       	rjmp	.-10     	; 0x376 <lcd_string+0x6>
 #else
       lcd_write_word(0);		// 4 black pixels
 #endif
     }
#else
   lcd_command(CMD_CLEAR_DISPLAY);
     380:	df 91       	pop	r29
     382:	cf 91       	pop	r28
     384:	08 95       	ret

00000386 <lcd_pgm_string>:
   wait_about10ms();
     386:	cf 93       	push	r28
     388:	df 93       	push	r29
     38a:	ec 01       	movw	r28, r24
#endif
   lcd_line1();			// set cursor to Line1 Column 1, (only for OLED-Display)
     38c:	fe 01       	movw	r30, r28
     38e:	84 91       	lpm	r24, Z
     390:	98 2f       	mov	r25, r24
 
 
/* ******************************************************************************* */
// writes a string to the LCD 
 
void lcd_string(char *data) {
     392:	9f 77       	andi	r25, 0x7F	; 127
     394:	19 f0       	breq	.+6      	; 0x39c <lcd_pgm_string+0x16>
     396:	8d df       	rcall	.-230    	; 0x2b2 <lcd_data>
    while(*data) {
     398:	21 96       	adiw	r28, 0x01	; 1
     39a:	f8 cf       	rjmp	.-16     	; 0x38c <lcd_pgm_string+0x6>
     39c:	df 91       	pop	r29
        lcd_data(*data);
     39e:	cf 91       	pop	r28
     3a0:	08 95       	ret

000003a2 <lcd_fix_string>:
     3a2:	cf 93       	push	r28
        data++;
    }
}
     3a4:	df 93       	push	r29
     3a6:	ec 01       	movw	r28, r24
     3a8:	ce 01       	movw	r24, r28

#ifdef use_lcd_pgm
//Load string from PGM  and send to LCD 
void lcd_pgm_string(const unsigned char *data) {
     3aa:	0e 94 4b 32 	call	0x6496	; 0x6496 <__eerd_byte_m328p>
     3ae:	98 2f       	mov	r25, r24
   unsigned char cc;
   while(1) {
      cc = pgm_read_byte(data);
     3b0:	9f 77       	andi	r25, 0x7F	; 127
     3b2:	19 f0       	breq	.+6      	; 0x3ba <lcd_fix_string+0x18>
      if((cc==0) || (cc==128)) {
     3b4:	7e df       	rcall	.-260    	; 0x2b2 <lcd_data>
     3b6:	21 96       	adiw	r28, 0x01	; 1
     3b8:	f7 cf       	rjmp	.-18     	; 0x3a8 <lcd_fix_string+0x6>
         return;
      }
      lcd_data(cc);
     3ba:	df 91       	pop	r29
     3bc:	cf 91       	pop	r28
      data++;
     3be:	08 95       	ret

000003c0 <lcd_fix_customchar>:
   }
     3c0:	0f 93       	push	r16
}
     3c2:	1f 93       	push	r17
     3c4:	cf 93       	push	r28
     3c6:	df 93       	push	r29
#endif

/* ******************************************************************************* */
#ifdef USE_EEPROM
//Load string from PGM or EEprom and send to LCD 
void lcd_fix_string(const unsigned char *data) {
     3c8:	8c 01       	movw	r16, r24
     3ca:	08 5f       	subi	r16, 0xF8	; 248
     3cc:	1f 4f       	sbci	r17, 0xFF	; 255
   unsigned char cc;
   while(1) {
      cc = MEM_read_byte(data);
     3ce:	ec 01       	movw	r28, r24
     3d0:	21 96       	adiw	r28, 0x01	; 1
     3d2:	0e 94 4b 32 	call	0x6496	; 0x6496 <__eerd_byte_m328p>
      if((cc==0) || (cc==128)) {
     3d6:	6d df       	rcall	.-294    	; 0x2b2 <lcd_data>
     3d8:	c0 17       	cp	r28, r16
         return;
      }
      lcd_data(cc);
     3da:	d1 07       	cpc	r29, r17
     3dc:	11 f0       	breq	.+4      	; 0x3e2 <lcd_fix_customchar+0x22>
      data++;
     3de:	ce 01       	movw	r24, r28
   }
     3e0:	f6 cf       	rjmp	.-20     	; 0x3ce <lcd_fix_customchar+0xe>
}
     3e2:	df 91       	pop	r29
     3e4:	cf 91       	pop	r28
     3e6:	1f 91       	pop	r17
#endif

/* ******************************************************************************* */
// load custom character from PGM or EEprom and send to LCD
void lcd_fix_customchar(const unsigned char *chardata) {	
     3e8:	0f 91       	pop	r16
     3ea:	08 95       	ret

000003ec <lcd_init>:
     3ec:	84 e1       	ldi	r24, 0x14	; 20
     3ee:	b2 d2       	rcall	.+1380   	; 0x954 <sleep_5ms>
     3f0:	83 e3       	ldi	r24, 0x33	; 51
     3f2:	84 df       	rcall	.-248    	; 0x2fc <lcd_command>
     3f4:	82 e3       	ldi	r24, 0x32	; 50
#if (LCD_ST_TYPE == 0)
    uint8_t ii;
    for (ii=0;ii<8;ii++) {
        lcd_data(MEM_read_byte(chardata++));
     3f6:	82 df       	rcall	.-252    	; 0x2fc <lcd_command>
     3f8:	82 e0       	ldi	r24, 0x02	; 2
     3fa:	ac d2       	rcall	.+1368   	; 0x954 <sleep_5ms>
     3fc:	60 e3       	ldi	r22, 0x30	; 48
     3fe:	80 e8       	ldi	r24, 0x80	; 128
     400:	21 df       	rcall	.-446    	; 0x244 <_lcd_hw_write>
/* ******************************************************************************* */
// load custom character from PGM or EEprom and send to LCD
void lcd_fix_customchar(const unsigned char *chardata) {	
#if (LCD_ST_TYPE == 0)
    uint8_t ii;
    for (ii=0;ii<8;ii++) {
     402:	a1 d2       	rcall	.+1346   	; 0x946 <wait10us>
     404:	60 e3       	ldi	r22, 0x30	; 48
     406:	80 e8       	ldi	r24, 0x80	; 128
        lcd_data(MEM_read_byte(chardata++));
     408:	1d df       	rcall	.-454    	; 0x244 <_lcd_hw_write>
     40a:	97 d2       	rcall	.+1326   	; 0x93a <wait200us>
    }
#endif
}
     40c:	60 e3       	ldi	r22, 0x30	; 48
     40e:	80 e8       	ldi	r24, 0x80	; 128
     410:	19 df       	rcall	.-462    	; 0x244 <_lcd_hw_write>
     412:	93 d2       	rcall	.+1318   	; 0x93a <wait200us>
     414:	60 e2       	ldi	r22, 0x20	; 32



#else    /* !(LCD_ST_TYPE == 7565 | 1306) | 7108 | 7920 | 7108 | 8812 | 8814 | 7735 | 9163 | 1327) */
/* must be a character display */
   wait_about100ms();
     416:	80 e8       	ldi	r24, 0x80	; 128
     418:	15 df       	rcall	.-470    	; 0x244 <_lcd_hw_write>
     41a:	90 d2       	rcall	.+1312   	; 0x93c <wait100us>
   // to initialise, send 3 times to be sure to be in 8 Bit mode

 #if LCD_INTERFACE_MODE == MODE_PARALLEL
   lcd_command(0x33);			// switch to 8-bit
     41c:	89 e2       	ldi	r24, 0x29	; 41
     41e:	6e df       	rcall	.-292    	; 0x2fc <lcd_command>
     420:	82 d2       	rcall	.+1284   	; 0x926 <wait10ms>
   lcd_command(0x32);			// switch to 4-bit
     422:	8a e6       	ldi	r24, 0x6A	; 106
     424:	6b df       	rcall	.-298    	; 0x2fc <lcd_command>
     426:	8a d2       	rcall	.+1300   	; 0x93c <wait100us>
 #else
   lcd_command(0x3a);			// switch to 8-bit for I2C or SPI
 #endif
   wait_about10ms();
     428:	88 e2       	ldi	r24, 0x28	; 40
     42a:	68 df       	rcall	.-304    	; 0x2fc <lcd_command>
     42c:	86 d2       	rcall	.+1292   	; 0x93a <wait200us>
   lcd_clear();
   lcd_command(CMD_DISPLAY_ON);			// 0x08 Display on, no Cursor, No blink
   lcd_command(CMD_SetEntryMode | 0x02);	// 0x06 increment / no Scroll    
// - - - - - - - - - - - - - - - - 
 #else
    _lcd_hw_write(0x80, 0b00110000);                 
     42e:	88 e0       	ldi	r24, 0x08	; 8
     430:	65 df       	rcall	.-310    	; 0x2fc <lcd_command>
     432:	83 d2       	rcall	.+1286   	; 0x93a <wait200us>
     434:	81 e8       	ldi	r24, 0x81	; 129
    wait10us();       
     436:	62 df       	rcall	.-316    	; 0x2fc <lcd_command>
     438:	80 d2       	rcall	.+1280   	; 0x93a <wait200us>
    _lcd_hw_write(0x80, 0b00110000);                 
     43a:	86 e1       	ldi	r24, 0x16	; 22
     43c:	5f df       	rcall	.-322    	; 0x2fc <lcd_command>
     43e:	7d d2       	rcall	.+1274   	; 0x93a <wait200us>
     440:	91 df       	rcall	.-222    	; 0x364 <lcd_clear>
    wait200us();
     442:	81 e0       	ldi	r24, 0x01	; 1
     444:	87 d2       	rcall	.+1294   	; 0x954 <sleep_5ms>
    _lcd_hw_write(0x80, 0b00110000);                 
     446:	8c e0       	ldi	r24, 0x0C	; 12
     448:	59 df       	rcall	.-334    	; 0x2fc <lcd_command>
     44a:	88 e4       	ldi	r24, 0x48	; 72
     44c:	57 df       	rcall	.-338    	; 0x2fc <lcd_command>
    wait200us(); 
     44e:	82 e7       	ldi	r24, 0x72	; 114
     450:	90 e0       	ldi	r25, 0x00	; 0
    _lcd_hw_write(0x80, 0b00100000);   //lcd_FunctionSet4bit   0b00101000        
     452:	b6 df       	rcall	.-148    	; 0x3c0 <lcd_fix_customchar>
     454:	80 e5       	ldi	r24, 0x50	; 80
     456:	52 df       	rcall	.-348    	; 0x2fc <lcd_command>
     458:	8a e6       	ldi	r24, 0x6A	; 106
    wait100us();  
     45a:	90 e0       	ldi	r25, 0x00	; 0
     45c:	b1 df       	rcall	.-158    	; 0x3c0 <lcd_fix_customchar>
    lcd_command(0b00101001);     //0b00101001      unk1 
     45e:	88 e5       	ldi	r24, 0x58	; 88
     460:	4d df       	rcall	.-358    	; 0x2fc <lcd_command>
     462:	8a e7       	ldi	r24, 0x7A	; 122
    wait10ms(); 
     464:	90 e0       	ldi	r25, 0x00	; 0
     466:	ac df       	rcall	.-168    	; 0x3c0 <lcd_fix_customchar>
    //lcd_command(0b01111000);                 
    //wait200us(); 
    //lcd_command(0b11010010);                 
    //wait200us();

    lcd_command(0b01101010);     //0b01101010       unk2    
     468:	88 e7       	ldi	r24, 0x78	; 120
     46a:	48 df       	rcall	.-368    	; 0x2fc <lcd_command>
     46c:	82 e6       	ldi	r24, 0x62	; 98
    wait100us(); 
     46e:	90 e0       	ldi	r25, 0x00	; 0
     470:	a7 df       	rcall	.-178    	; 0x3c0 <lcd_fix_customchar>
    lcd_command(0b00101000);     
     472:	80 e7       	ldi	r24, 0x70	; 112
     474:	43 df       	rcall	.-378    	; 0x2fc <lcd_command>
     476:	8a e5       	ldi	r24, 0x5A	; 90
    wait200us();
     478:	90 e0       	ldi	r25, 0x00	; 0
     47a:	a2 df       	rcall	.-188    	; 0x3c0 <lcd_fix_customchar>
    lcd_command(0b00001000);     
     47c:	80 e6       	ldi	r24, 0x60	; 96
     47e:	3e df       	rcall	.-388    	; 0x2fc <lcd_command>
     480:	8a e4       	ldi	r24, 0x4A	; 74
    wait200us();
     482:	90 e0       	ldi	r25, 0x00	; 0
     484:	9d df       	rcall	.-198    	; 0x3c0 <lcd_fix_customchar>
    lcd_command(0b10000001);     
     486:	88 e6       	ldi	r24, 0x68	; 104
     488:	39 df       	rcall	.-398    	; 0x2fc <lcd_command>
     48a:	82 e4       	ldi	r24, 0x42	; 66
    wait200us();
     48c:	90 e0       	ldi	r25, 0x00	; 0
     48e:	98 df       	rcall	.-208    	; 0x3c0 <lcd_fix_customchar>
    lcd_command(0b00010110);     
     490:	80 e4       	ldi	r24, 0x40	; 64
     492:	34 df       	rcall	.-408    	; 0x2fc <lcd_command>
     494:	82 e5       	ldi	r24, 0x52	; 82
    wait200us();
     496:	90 e0       	ldi	r25, 0x00	; 0
     498:	93 cf       	rjmp	.-218    	; 0x3c0 <lcd_fix_customchar>
  #endif
 //  lcd_command(CMD_SetIFOptions | MODE_8BIT | 0x0A);	// 4Bit / 2 rows / 5x7 / table3 / Add for OLED
//   lcd_command(CMD_SetDisplayAndCursor);	// Display off / no Blinking  / Add for OLED
//   lcd_command(CMD_SetEntryMode | 0x02);	// increment / no Scroll
//   lcd_command(CMD_CURSOR_HOME);		// Home Command  // Add for OLED
   lcd_clear();
     49a:	08 95       	ret

0000049c <lcd_clear_line>:
     49c:	90 91 3b 01 	lds	r25, 0x013B
   wait_about5ms();
     4a0:	80 e1       	ldi	r24, 0x10	; 16
     4a2:	89 1b       	sub	r24, r25
   lcd_command(CMD_SetDisplayAndCursor | 0x04);	// Display on / Cursor off / no Blinking
     4a4:	17 cf       	rjmp	.-466    	; 0x2d4 <lcd_spaces>
     4a6:	08 95       	ret

000004a8 <lcd_next_line>:
     4a8:	a1 e0       	ldi	r26, 0x01	; 1
 #endif
// - - - - - - - - - - - - - - - - 

   LCDLoadCustomChar(LCD_CHAR_DIODE1);	//Custom-Character Diode symbol
     4aa:	b0 e0       	ldi	r27, 0x00	; 0
     4ac:	ea e5       	ldi	r30, 0x5A	; 90
     4ae:	f2 e0       	ldi	r31, 0x02	; 2
   lcd_fix_customchar(DiodeIcon1);	//load Character  >|
     4b0:	0c 94 e0 31 	jmp	0x63c0	; 0x63c0 <__prologue_saves__+0x20>
     4b4:	89 83       	std	Y+1, r24	; 0x01
     4b6:	f2 df       	rcall	.-28     	; 0x49c <lcd_clear_line>
   LCDLoadCustomChar(LCD_CHAR_DIODE2);	//Custom-Character 
     4b8:	90 91 a1 01 	lds	r25, 0x01A1
     4bc:	9f 5f       	subi	r25, 0xFF	; 255
   lcd_fix_customchar(DiodeIcon2);	//load Character  |<
     4be:	90 93 a1 01 	sts	0x01A1, r25
     4c2:	89 81       	ldd	r24, Y+1	; 0x01
     4c4:	92 30       	cpi	r25, 0x02	; 2
   LCDLoadCustomChar(LCD_CHAR_CAP);	//Custom-Character  Capacitor symbol
     4c6:	30 f0       	brcs	.+12     	; 0x4d4 <lcd_next_line+0x2c>
     4c8:	91 e0       	ldi	r25, 0x01	; 1
     4ca:	90 93 a1 01 	sts	0x01A1, r25
   lcd_fix_customchar(CapIcon);		//load Character  ||
     4ce:	90 93 3e 01 	sts	0x013E, r25
     4d2:	02 c0       	rjmp	.+4      	; 0x4d8 <lcd_next_line+0x30>
   LCDLoadCustomChar(LCD_CHAR_RESIS1);	//Custom-Character Resistor symbol
     4d4:	10 92 3e 01 	sts	0x013E, r1
     4d8:	68 2f       	mov	r22, r24
   lcd_fix_customchar(ResIcon1);		//load Character  [
     4da:	80 91 a1 01 	lds	r24, 0x01A1
     4de:	32 df       	rcall	.-412    	; 0x344 <lcd_set_cursor>
     4e0:	21 96       	adiw	r28, 0x01	; 1
   LCDLoadCustomChar(LCD_CHAR_RESIS2);	//Custom-Character 
     4e2:	e2 e0       	ldi	r30, 0x02	; 2
     4e4:	0c 94 fc 31 	jmp	0x63f8	; 0x63f8 <__epilogue_restores__+0x20>

000004e8 <lcd_next_line_wait>:
   lcd_fix_customchar(ResIcon2);		//load Character  ]
     4e8:	df df       	rcall	.-66     	; 0x4a8 <lcd_next_line>
     4ea:	1b c3       	rjmp	.+1590   	; 0xb22 <wait_for_key_5s_line2>
     4ec:	08 95       	ret

000004ee <lcd_clear_line1>:
     4ee:	0b df       	rcall	.-490    	; 0x306 <lcd_line1>
	  
   //if kyrillish LCD-Characterset is defined, load  Omega- and µ-Character
 #if LCD_CHAR_OMEGA < 8
   LCDLoadCustomChar(LCD_CHAR_OMEGA);	//load omega as Custom-Character
     4f0:	d5 df       	rcall	.-86     	; 0x49c <lcd_clear_line>
     4f2:	09 cf       	rjmp	.-494    	; 0x306 <lcd_line1>
     4f4:	08 95       	ret

000004f6 <lcd_clear_line2>:
   lcd_fix_customchar(CyrillicOmegaIcon);
     4f6:	0e df       	rcall	.-484    	; 0x314 <lcd_line2>
     4f8:	d1 df       	rcall	.-94     	; 0x49c <lcd_clear_line>
     4fa:	0c cf       	rjmp	.-488    	; 0x314 <lcd_line2>
     4fc:	08 95       	ret

000004fe <lcd_set_pixels>:
 #endif
 #if LCD_CHAR_U < 8
   LCDLoadCustomChar(LCD_CHAR_U);	//load mu as Custom-Character
     4fe:	08 95       	ret

00000500 <lcd_show_Cg>:
     500:	0f 93       	push	r16
     502:	83 e9       	ldi	r24, 0x93	; 147
   lcd_fix_customchar(CyrillicMuIcon);
     504:	91 e0       	ldi	r25, 0x01	; 1
     506:	4d df       	rcall	.-358    	; 0x3a2 <lcd_fix_string>
     508:	40 91 85 01 	lds	r20, 0x0185
 #endif
 #if LCD_CHAR_RESIS3 != 'R'
   LCDLoadCustomChar(LCD_CHAR_RESIS3);	//load Resistor symbol as Custom-Character
     50c:	4d 3f       	cpi	r20, 0xFD	; 253
     50e:	64 f4       	brge	.+24     	; 0x528 <lcd_show_Cg+0x28>
     510:	60 91 73 01 	lds	r22, 0x0173
   lcd_fix_customchar(ResIcon3);		// load character ||
     514:	70 91 74 01 	lds	r23, 0x0174
     518:	80 91 75 01 	lds	r24, 0x0175
}

/* ******************************************************************************* */
void lcd_clear_line(void) {
 // writes spaces up to LCD_LINE_LENGTH to LCD-Display, Cursor can be positioned to any column
    lcd_spaces(LCD_LINE_LENGTH - _lcd_column);
     51c:	90 91 76 01 	lds	r25, 0x0176
     520:	03 e0       	ldi	r16, 0x03	; 3
     522:	26 e4       	ldi	r18, 0x46	; 70
     524:	e3 d0       	rcall	.+454    	; 0x6ec <DisplayValue>
     526:	02 c0       	rjmp	.+4      	; 0x52c <lcd_show_Cg+0x2c>
     528:	8f e3       	ldi	r24, 0x3F	; 63

/* ******************************************************************************* */
// position to next line to column xx
// Text_line number is incremented by 1, if possible (not yet at the last line).
// If already at the last line of the display, last_line_used is set to 1 .
void lcd_next_line(uint8_t xx) {
     52a:	c3 de       	rcall	.-634    	; 0x2b2 <lcd_data>
     52c:	0f 91       	pop	r16
     52e:	08 95       	ret

00000530 <lcd_show_rds>:
     530:	90 91 19 01 	lds	r25, 0x0119
     534:	9f 70       	andi	r25, 0x0F	; 15
   lcd_clear_line();
     536:	92 30       	cpi	r25, 0x02	; 2
     538:	71 f4       	brne	.+28     	; 0x556 <lcd_show_rds+0x26>
     53a:	d6 df       	rcall	.-84     	; 0x4e8 <lcd_next_line_wait>
   lcd_text_line ++;
     53c:	82 e8       	ldi	r24, 0x82	; 130
     53e:	90 e0       	ldi	r25, 0x00	; 0
     540:	30 df       	rcall	.-416    	; 0x3a2 <lcd_fix_string>
     542:	e0 91 3c 01 	lds	r30, 0x013C
   if (lcd_text_line > (LCD_LINES - 1))  {
     546:	f0 91 3d 01 	lds	r31, 0x013D
     54a:	22 e0       	ldi	r18, 0x02	; 2
      // Limit is reached
      lcd_text_line = (LCD_LINES - 1);
     54c:	44 e0       	ldi	r20, 0x04	; 4
     54e:	6f ef       	ldi	r22, 0xFF	; 255
     550:	84 81       	ldd	r24, Z+4	; 0x04
      last_line_used = 1;
     552:	95 81       	ldd	r25, Z+5	; 0x05
     554:	ba c1       	rjmp	.+884    	; 0x8ca <DisplayValue16>
     556:	08 95       	ret

00000558 <i2lcd>:
i2lcd:			;	void i2lcd(int iw)

#if FLASHEND > 0x1fff

;;  	movw	r20, r24
 	sbrs	r25, 7
     558:	97 ff       	sbrs	r25, 7
 	rjmp	to_lcd		; if (iw >= 0) {
     55a:	09 c0       	rjmp	.+18     	; 0x56e <u2lcd>
;   // negativ value, output -  and invert iw
        push	r24		; save r24:r25
     55c:	8f 93       	push	r24
        push	r25
     55e:	9f 93       	push	r25
 	ldi	r24,'-'		; 45
     560:	8d e2       	ldi	r24, 0x2D	; 45
 	RCALL	lcd_data	; lcd_data('-'); uses r22
     562:	a7 de       	rcall	.-690    	; 0x2b2 <lcd_data>
        pop	r25		; recall r25:r24
     564:	9f 91       	pop	r25
        pop	r24		; old r24
     566:	8f 91       	pop	r24
        com	r25
     568:	90 95       	com	r25
	neg	r24
     56a:	81 95       	neg	r24
        sbci	r25,-1		; iw = - iw
     56c:	9f 4f       	sbci	r25, 0xFF	; 255

0000056e <u2lcd>:
#endif

u2lcd:			;	void i2lcd(uint16_t iw)
to_lcd:			;	void i2lcd(uint16_t iw)
 	ldi	r22, lo8(outval)	;0x0F
     56e:	61 e2       	ldi	r22, 0x21	; 33
 	ldi	r23, hi8(outval)	;0x01
     570:	71 e0       	ldi	r23, 0x01	; 1
 	ldi	r20, 10
     572:	4a e0       	ldi	r20, 0x0A	; 10
 	ldi	r21, 0x00	; 0
     574:	50 e0       	ldi	r21, 0x00	; 0
 	ACALL	utoa		; utoa(iw, outval, 10);	//output voltage to string
     576:	0e 94 28 32 	call	0x6450	; 0x6450 <utoa>
 	RCALL	lcd_string	;lcd_string(utoa(iw, outval, 10));	//output correction voltage
     57a:	fa ce       	rjmp	.-524    	; 0x370 <lcd_string>

0000057c <i2lcd_space>:

 	ret
     57c:	ed df       	rcall	.-38     	; 0x558 <i2lcd>

#if FLASHEND > 0x1fff
.GLOBAL i2lcd_space
i2lcd_space:
	RCALL	i2lcd
     57e:	01 c0       	rjmp	.+2      	; 0x582 <u2lcd_space+0x2>

00000580 <u2lcd_space>:
	rjmp	space_ret	; use return from u2lcd_space
     580:	eb df       	rcall	.-42     	; 0x558 <i2lcd>

u2lcd_space:
	RCALL	i2lcd
     582:	a5 ce       	rjmp	.-694    	; 0x2ce <lcd_space>

00000584 <PinLayout>:

PinLayout:

#ifndef EBC_STYLE 
;   // Layout with 123= style
 	push	r14
     584:	ef 92       	push	r14
 	push	r15
     586:	ff 92       	push	r15
 	push	r16
     588:	0f 93       	push	r16
 	push	r17
     58a:	1f 93       	push	r17

 	mov	r17, r24		; Pin1
     58c:	18 2f       	mov	r17, r24
 	mov	r16, r22		; Pin2
     58e:	06 2f       	mov	r16, r22
 	mov	r15, r20		; Pin3
     590:	f4 2e       	mov	r15, r20
 	ldi	r24, lo8(N123_str)	; 0x0B
     592:	82 e8       	ldi	r24, 0x82	; 130
 	ldi	r25, hi8(N123_str)	; 0x01	
     594:	91 e0       	ldi	r25, 0x01	; 1
 #ifdef USE_EEPROM
 	RCALL	lcd_fix_string	; lcd_MEM_string(N123_str);		//" 123="
     596:	05 df       	rcall	.-502    	; 0x3a2 <lcd_fix_string>
 #else
 	RCALL	lcd_pgm_string	; lcd_MEM_string(N123_str);		//" 123="
 #endif
 	eor	r14, r14	; for (ipp=0;
     598:	ee 24       	eor	r14, r14

0000059a <loop1>:
loop1:
 	lds	r30, _trans
     59a:	e0 91 3c 01 	lds	r30, 0x013C
 	lds	r31, _trans+1
     59e:	f0 91 3d 01 	lds	r31, 0x013D
 	ldd	r24, Z+OFFS_e	; _trans->e
     5a2:	86 85       	ldd	r24, Z+14	; 0x0e
 	cp	r14, r24
     5a4:	e8 16       	cp	r14, r24
 	brne	checkb		; if (ipp == _trans->e) 
     5a6:	11 f4       	brne	.+4      	; 0x5ac <checkb>
 	mov	r24, r17	; pin1
     5a8:	81 2f       	mov	r24, r17
        rjmp	data_ipp  	; lcd_data(pin1);	// Output Character in right order
     5aa:	09 c0       	rjmp	.+18     	; 0x5be <data_ipp>

000005ac <checkb>:
checkb:
 	ldd	r24, Z+OFFS_b	; _trans->b
     5ac:	84 85       	ldd	r24, Z+12	; 0x0c
 	cp	r14, r24	; if (ipp == _trans->b) 
     5ae:	e8 16       	cp	r14, r24
 	brne	checkc
     5b0:	11 f4       	brne	.+4      	; 0x5b6 <checkc>
 	mov	r24, r16
     5b2:	80 2f       	mov	r24, r16
        rjmp	data_ipp	;  lcd_data(pin2);
     5b4:	04 c0       	rjmp	.+8      	; 0x5be <data_ipp>

000005b6 <checkc>:
checkc:
 	ldd	r24, Z+OFFS_c	; _trans->c
     5b6:	85 85       	ldd	r24, Z+13	; 0x0d
 	cp	r14, r24
     5b8:	e8 16       	cp	r14, r24
 	brne	next_ipp		; if (ipp == _trans->c) 
     5ba:	11 f4       	brne	.+4      	; 0x5c0 <next_ipp>
 	mov	r24, r15
     5bc:	8f 2d       	mov	r24, r15

000005be <data_ipp>:
data_ipp:
 	RCALL	lcd_data	;  lcd_data(pin3);
     5be:	79 de       	rcall	.-782    	; 0x2b2 <lcd_data>

000005c0 <next_ipp>:
next_ipp:
 	inc	r14
     5c0:	e3 94       	inc	r14
 	mov	r24, r14
     5c2:	8e 2d       	mov	r24, r14
 	cpi	r24, 0x03	;  for (     ;ipp<3;ipp++) {
     5c4:	83 30       	cpi	r24, 0x03	; 3
 	brne	loop1 
     5c6:	49 f7       	brne	.-46     	; 0x59a <loop1>

 	pop	r17
     5c8:	1f 91       	pop	r17
 	pop	r16
     5ca:	0f 91       	pop	r16
 	pop	r15
     5cc:	ff 90       	pop	r15
 	pop	r14
     5ce:	ef 90       	pop	r14
 	ret
     5d0:	08 95       	ret

000005d2 <Rnum2pins>:
#endif     /* WITH_GRAPHICS */

 .GLOBAL Rnum2pins
 .func Rnum2pins
 Rnum2pins:
	mov	r22,r24
     5d2:	68 2f       	mov	r22, r24
	ldi	r24, TP1
     5d4:	80 e0       	ldi	r24, 0x00	; 0
	ldi	r25, TP3
     5d6:	92 e0       	ldi	r25, 0x02	; 2
        and	r22,r22
     5d8:	66 23       	and	r22, r22
        brne    nozero
     5da:	09 f4       	brne	.+2      	; 0x5de <nozero>
        ldi	r25, TP2
     5dc:	91 e0       	ldi	r25, 0x01	; 1

000005de <nozero>:
nozero:
	cpi	r22, 2
     5de:	62 30       	cpi	r22, 0x02	; 2
	brne	no_two
     5e0:	09 f4       	brne	.+2      	; 0x5e4 <no_two>
	ldi	r24, TP2
     5e2:	81 e0       	ldi	r24, 0x01	; 1

000005e4 <no_two>:
no_two:
	ret
     5e4:	08 95       	ret

000005e6 <RvalOut>:
 .extern ResistorVal

 .section .text

RvalOut:		; void RvalOut(uint8_t nrr) 	
 	push	r16
     5e6:	0f 93       	push	r16

        mov	r16, r24
     5e8:	08 2f       	mov	r16, r24
	LDIZ	ResistorVal
     5ea:	e2 ea       	ldi	r30, 0xA2	; 162
     5ec:	f1 e0       	ldi	r31, 0x01	; 1
	add	r24, r24	; nrr*2
     5ee:	88 0f       	add	r24, r24
	add	r24, r24	; nrr*4
     5f0:	88 0f       	add	r24, r24
	add	r30, r24
     5f2:	e8 0f       	add	r30, r24
	adc	r31, zero_reg
     5f4:	f1 1d       	adc	r31, r1

 	ld	r22, Z		; resis[rr].rx
     5f6:	60 81       	ld	r22, Z
 	ldd	r23, Z+1	; 0x01
     5f8:	71 81       	ldd	r23, Z+1	; 0x01
 	ldd	r24, Z+2	; 0x02
     5fa:	82 81       	ldd	r24, Z+2	; 0x02
 	ldd	r25, Z+3	; 0x03
     5fc:	93 81       	ldd	r25, Z+3	; 0x03
#if FLASHEND > 0x1fff
 	cpi	r22, 0x64	; 100
     5fe:	64 36       	cpi	r22, 0x64	; 100
 	cpc	r23, r1
     600:	71 05       	cpc	r23, r1
 	cpc	r24, r1
     602:	81 05       	cpc	r24, r1
 	cpc	r25, r1
     604:	91 05       	cpc	r25, r1
 	brcc	ad1d8e 		; (ResistorVal[nrr] < 100)
     606:	70 f4       	brcc	.+28     	; 0x624 <ad1d8e>
 	lds	r18, inductor_lpre
     608:	20 91 01 01 	lds	r18, 0x0101
	sbrc	r18, 7		; minus bit set?
     60c:	27 fd       	sbrc	r18, 7
 	rjmp	ad1d8e 		; (inductor_lpre >= 0)
     60e:	0a c0       	rjmp	.+20     	; 0x624 <ad1d8e>
	mov	r24,r16
     610:	80 2f       	mov	r24, r16
	ACALL	Rnum2pins;	; pins = Rnum2pins(nrr)
     612:	df df       	rcall	.-66     	; 0x5d2 <Rnum2pins>
     614:	69 2f       	mov	r22, r25
        mov	r22, r25
     616:	0e 94 9c 1d 	call	0x3b38	; 0x3b38 <GetESR>
 	ACALL	GetESR		; rr = GetESR(resis[nrr].ra,resis[nrr].rb);
     61a:	6e ef       	ldi	r22, 0xFE	; 254
;        ldi	r24, 0
;        ldi	r25, 0
; 	ldi	r20, -2		; 254
; 	ldi	r16, 0x03	; 3
; 	rjmp	ad1d94		; DisplayValue(rr,-2,LCD_CHAR_OMEGA,3);
	ldi	r22, -2
     61c:	23 e0       	ldi	r18, 0x03	; 3
	ldi	r18, 3
     61e:	44 e0       	ldi	r20, 0x04	; 4
	ldi	r20, LCD_CHAR_OMEGA
     620:	54 d1       	rcall	.+680    	; 0x8ca <DisplayValue16>
	RCALL	DisplayValue16	; DisplayValue16(rr,-2,LCD_OMEGA,3);
     622:	04 c0       	rjmp	.+8      	; 0x62c <ret_with_space>

00000624 <ad1d8e>:
	rjmp	ret_with_space
     624:	4f ef       	ldi	r20, 0xFF	; 255
ad1d8e:		; } else {
#endif
	; r22-r25 = ResistorVal[rr]
 	ldi	r20, -1		; 255
     626:	04 e0       	ldi	r16, 0x04	; 4
 	ldi	r16, 0x04	; DisplayValue(resis[nrr].rx,-1,LCD_CHAR_OMEGA,4);
     628:	24 e0       	ldi	r18, 0x04	; 4
;ad1d94:
 	ldi	r18, LCD_CHAR_OMEGA	; 244
     62a:	60 d0       	rcall	.+192    	; 0x6ec <DisplayValue>

0000062c <ret_with_space>:
 	RCALL	DisplayValue
     62c:	50 de       	rcall	.-864    	; 0x2ce <lcd_space>
ret_with_space:
 	RCALL	lcd_space	; lcd_space();
     62e:	0f 91       	pop	r16
 	pop	r16
     630:	08 95       	ret

00000632 <mVAusgabe>:
        .extern lcd_space

	 .func mVAusgabe
	mVAusgabe:
	;   if (nn < 6) {
		cpi	r24, 0x06	; 6
     632:	86 30       	cpi	r24, 0x06	; 6
		brcc	ad1ca4;
     634:	58 f4       	brcc	.+22     	; 0x64c <ad1ca4>
	      // Output in mV units
		LDIZ	diodes+12;
     636:	e5 e9       	ldi	r30, 0x95	; 149
     638:	f1 e0       	ldi	r31, 0x01	; 1
		add	r30,r24
     63a:	e8 0f       	add	r30, r24
		adc	r31,zero_reg
     63c:	f1 1d       	adc	r31, r1
		add	r30,r24
     63e:	e8 0f       	add	r30, r24
		adc	r31,zero_reg
     640:	f1 1d       	adc	r31, r1
		ld	r24, Z		; diodes.Voltage[nn]
     642:	80 81       	ld	r24, Z
		ldd	r25, Z+1	; 0x01
     644:	91 81       	ldd	r25, Z+1	; 0x01
		ldi	r22, 0x03	; 3
     646:	63 e0       	ldi	r22, 0x03	; 3
		RCALL	Display_mV	; Display_mV(diodes.Voltage[nn],3);
     648:	4b d1       	rcall	.+662    	; 0x8e0 <Display_mV>
		RCALL	lcd_space;	; lcd_space();
     64a:	41 ce       	rjmp	.-894    	; 0x2ce <lcd_space>

0000064c <ad1ca4>:
	ad1ca4:
		ret
     64c:	08 95       	ret

0000064e <UfAusgabe>:
	.extern mVAusgabe

	.func UfAusgabe

UfAusgabe:
 	push	r17
     64e:	1f 93       	push	r17
 	mov	r17, r24
     650:	18 2f       	mov	r17, r24
 	lds	r24, ResistorsFound;	0x0168
     652:	80 91 6f 01 	lds	r24, 0x016F
 	and	r24, r24
     656:	88 23       	and	r24, r24
 	breq	ad1cbe; 	   if (ResistorsFound > 0) { 
     658:	19 f0       	breq	.+6      	; 0x660 <ad1cbe>
 	RCALL	lcd_space;	lcd_space();
     65a:	39 de       	rcall	.-910    	; 0x2ce <lcd_space>
 	ldi	r24, LCD_CHAR_RESIS3;	0
     65c:	80 e0       	ldi	r24, 0x00	; 0
 	RCALL	lcd_data;      lcd_data(LCD_CHAR_RESIS3);	// special symbol or R
     65e:	29 de       	rcall	.-942    	; 0x2b2 <lcd_data>

00000660 <ad1cbe>:
ad1cbe:
 	RCALL	lcd_line2;					//2. row
     660:	59 de       	rcall	.-846    	; 0x314 <lcd_line2>
 	ldi	r24, lo8(Uf_str);	0xE9
     662:	89 e7       	ldi	r24, 0x79	; 121
 	ldi	r25, hi8(Uf_str);	0x01
     664:	91 e0       	ldi	r25, 0x01	; 1
#ifdef USE_EEPROM
 	RCALL	lcd_fix_string	; lcd_PGM_string(Uf_str);	//"Uf="
     666:	9d de       	rcall	.-710    	; 0x3a2 <lcd_fix_string>
#else
 	RCALL	lcd_pgm_string	; lcd_PGM_string(Uf_str);	//"Uf="
#endif
 	mov	r24, r17
     668:	81 2f       	mov	r24, r17
 	swap	r24
     66a:	82 95       	swap	r24
 	andi	r24, 0x0F
     66c:	8f 70       	andi	r24, 0x0F	; 15
 	rcall	mVAusgabe	; mVAusgabe(bcdnum >> 4);
     66e:	e1 df       	rcall	.-62     	; 0x632 <mVAusgabe>
 	mov	r24, r17
     670:	81 2f       	mov	r24, r17
 	andi	r24, 0x0F	; 15
     672:	8f 70       	andi	r24, 0x0F	; 15
 	rcall	mVAusgabe	; mVAusgabe(bcdnum & 0x0f);
     674:	de df       	rcall	.-68     	; 0x632 <mVAusgabe>
 	pop	r17
     676:	1f 91       	pop	r17
 	ret
     678:	08 95       	ret

0000067a <SerienDiodenAusgabe>:
	.extern AnKat_str

	.func  SerienDiodenAusgabe

SerienDiodenAusgabe:
 	lds	r24, diode_sequence;	0x0102
     67a:	80 91 0d 01 	lds	r24, 0x010D
 	swap	r24
     67e:	82 95       	swap	r24
 	andi	r24, 0x0F	; first = diode_sequence >> 4;
     680:	8f 70       	andi	r24, 0x0F	; 15
	rcall	DiodeSymbol_ApinCpin	;  1->|-2
     682:	18 d0       	rcall	.+48     	; 0x6b4 <DiodeSymbol_ApinCpin>

 	lds	r24, diode_sequence;	0x0102
     684:	80 91 0d 01 	lds	r24, 0x010D
 	andi	r24, 0x03	; second = diode_sequence & 3;
     688:	83 70       	andi	r24, 0x03	; 3
 	RCALL	DiodeSymbol_ACpin	;  ->|-3
     68a:	1a d0       	rcall	.+52     	; 0x6c0 <DiodeSymbol_ACpin>
 	lds	r24, diode_sequence;	x0102
     68c:	80 91 0d 01 	lds	r24, 0x010D
 	rcall	UfAusgabe	; UfAusgabe(diode_sequence);
     690:	de cf       	rjmp	.-68     	; 0x64e <UfAusgabe>
    	ret
     692:	e9 e8       	ldi	r30, 0x89	; 137

00000694 <load_diodes_adr>:
 .endfunc

        .func	load_diodes_adr
load_diodes_adr:
 	ldi	r30, lo8(diodes)	;0x80
     694:	f1 e0       	ldi	r31, 0x01	; 1
 	ldi	r31, hi8(diodes)	;0x01
     696:	e8 0f       	add	r30, r24
 	add	r30, r24	; [nn]
     698:	f1 1d       	adc	r31, r1
 	adc	r31, zero_reg
     69a:	08 95       	ret

0000069c <DiodeSymbol_withPins>:
	ret
     69c:	cf 93       	push	r28
	.func	DiodeSymbol_withPins

DiodeSymbol_withPins:
#if FLASHEND > 0x1fff
 // enough memory (>8k) to sort the pins
        push    r28
     69e:	f9 df       	rcall	.-14     	; 0x692 <SerienDiodenAusgabe+0x18>
	rcall	load_diodes_adr
     6a0:	90 81       	ld	r25, Z

cat_first1:
	rcall	DiodeSymbol_CpinApin
 #else
  // the higher test pin number is right side
	ld	r25, Z
     6a2:	c6 81       	ldd	r28, Z+6	; 0x06
	ldd	r28, Z+6	; if (anode_nr < cathode_nr) {
     6a4:	c9 17       	cp	r28, r25
	cp	r28, r25
     6a6:	10 f4       	brcc	.+4      	; 0x6ac <DiodeSymbol_withPins+0x10>
	brcc	cat_first2
     6a8:	05 d0       	rcall	.+10     	; 0x6b4 <DiodeSymbol_ApinCpin>

	rcall	DiodeSymbol_ApinCpin
     6aa:	01 c0       	rjmp	.+2      	; 0x6ae <cat_first2>
	rjmp	diode_fin
     6ac:	11 d0       	rcall	.+34     	; 0x6d0 <DiodeSymbol_CpinApin>

000006ae <cat_first2>:

//   } else {

cat_first2:
	rcall	DiodeSymbol_CpinApin
     6ae:	0f de       	rcall	.-994    	; 0x2ce <lcd_space>

000006b0 <diode_fin>:
 #endif
#else
	rcall	DiodeSymbol_ApinCpin
#endif
diode_fin:
	rcall	lcd_space
     6b0:	cf 91       	pop	r28
	pop	r28
     6b2:	08 95       	ret

000006b4 <DiodeSymbol_ApinCpin>:
	ret
     6b4:	ee df       	rcall	.-36     	; 0x692 <SerienDiodenAusgabe+0x18>

	.GLOBAL DiodeSymbol_ApinCpin
	.func	DiodeSymbol_ApinCpin

DiodeSymbol_ApinCpin:
	rcall	load_diodes_adr
     6b6:	8f 93       	push	r24
	push	r24
     6b8:	80 81       	ld	r24, Z
 	ld	r24, Z		;Anode
     6ba:	06 de       	rcall	.-1012   	; 0x2c8 <lcd_testpin>
 	RCALL	lcd_testpin	; lcd_testpin(diodes.Anode[nn]);
     6bc:	8f 91       	pop	r24
	pop	r24
     6be:	00 c0       	rjmp	.+0      	; 0x6c0 <DiodeSymbol_ACpin>

000006c0 <DiodeSymbol_ACpin>:
	rcall	DiodeSymbol_ACpin	; ->|-3
     6c0:	8f 93       	push	r24
        ret
     6c2:	85 e4       	ldi	r24, 0x45	; 69

	.GLOBAL DiodeSymbol_ACpin
	.func	DiodeSymbol_ACpin

DiodeSymbol_ACpin:
	push	r24
     6c4:	91 e0       	ldi	r25, 0x01	; 1
 	ldi	r24, lo8(AnKat_str)	;0xA3
     6c6:	6d de       	rcall	.-806    	; 0x3a2 <lcd_fix_string>
 	ldi	r25, hi8(AnKat_str)	;0x03
     6c8:	8f 91       	pop	r24
  #ifdef USE_EEPROM
	.extern lcd_fix_string
 	RCALL	lcd_fix_string	; lcd_PGM_string(AnKat_str);	//"->|-"
     6ca:	e3 df       	rcall	.-58     	; 0x692 <SerienDiodenAusgabe+0x18>
  #else
	.extern lcd_pgm_string
 	RCALL	lcd_pgm_string	; lcd_PGM_string(AnKat_str);	//"->|-"
  #endif
	pop	r24
     6cc:	86 81       	ldd	r24, Z+6	; 0x06
	rcall	load_diodes_adr
     6ce:	fc cd       	rjmp	.-1032   	; 0x2c8 <lcd_testpin>

000006d0 <DiodeSymbol_CpinApin>:
	ldd	r24, Z+6	; Cathode
     6d0:	e0 df       	rcall	.-64     	; 0x692 <SerienDiodenAusgabe+0x18>
 	RCALL	lcd_testpin	; lcd_testpin(diodes.Cathode[nn]);
     6d2:	8f 93       	push	r24
	ret
     6d4:	86 81       	ldd	r24, Z+6	; 0x06

	.GLOBAL DiodeSymbol_CpinApin
	.func	DiodeSymbol_CpinApin

DiodeSymbol_CpinApin:
	rcall	load_diodes_adr
     6d6:	f8 dd       	rcall	.-1040   	; 0x2c8 <lcd_testpin>
	push	r24
     6d8:	8f 91       	pop	r24
 	ldd	r24, Z+6	;Cathode
     6da:	00 c0       	rjmp	.+0      	; 0x6dc <DiodeSymbol_CApin>

000006dc <DiodeSymbol_CApin>:
 	RCALL	lcd_testpin	; lcd_testpin(diodes.Cathode[nn]);
     6dc:	8f 93       	push	r24
	pop	r24
     6de:	81 e4       	ldi	r24, 0x41	; 65
	rcall	DiodeSymbol_CApin	; -|<-3
     6e0:	91 e0       	ldi	r25, 0x01	; 1
        ret
     6e2:	5f de       	rcall	.-834    	; 0x3a2 <lcd_fix_string>

	.GLOBAL DiodeSymbol_CApin
	.func	DiodeSymbol_CApin

DiodeSymbol_CApin:
	push	r24
     6e4:	8f 91       	pop	r24
 	ldi	r24, lo8(KatAn_str)	;0xA3
     6e6:	d5 df       	rcall	.-86     	; 0x692 <SerienDiodenAusgabe+0x18>
 	ldi	r25, hi8(KatAn_str)	;0x03
     6e8:	80 81       	ld	r24, Z
  #ifdef USE_EEPROM
	.extern lcd_fix_string
 	RCALL	lcd_fix_string	; lcd_PGM_string(KatAn_str);	//"->|-"
     6ea:	ee cd       	rjmp	.-1060   	; 0x2c8 <lcd_testpin>

000006ec <DisplayValue>:
 *  Flag 0x10 for output with leading zeros
 *  Flag 0x20 for '+' Output, if not '-' 
 */

void DisplayValue(signed long signedValue, int8_t Exponent, unsigned char Unit, uint8_t xdigits)
{
     6ec:	ae e0       	ldi	r26, 0x0E	; 14
     6ee:	b0 e0       	ldi	r27, 0x00	; 0
     6f0:	ec e7       	ldi	r30, 0x7C	; 124
     6f2:	f3 e0       	ldi	r31, 0x03	; 3
     6f4:	0c 94 d0 31 	jmp	0x63a0	; 0x63a0 <__prologue_saves__>
     6f8:	34 2e       	mov	r3, r20
     6fa:	22 2e       	mov	r2, r18
  uint8_t           digits;		/* xdigits without option */
  uint8_t           Length;		/* string length */
  uint8_t	    Rshift;		/* right shift of significant bits with leading '0' */


  unsigned long Value=signedValue;
     6fc:	6b 01       	movw	r12, r22
     6fe:	7c 01       	movw	r14, r24
  digits = xdigits & 0x0f;
     700:	10 2f       	mov	r17, r16
     702:	1f 70       	andi	r17, 0x0F	; 15
  for(Prefix=0;Prefix<6;Prefix++) OutBuffer[Prefix] = '0';
     704:	80 e3       	ldi	r24, 0x30	; 48
     706:	89 83       	std	Y+1, r24	; 0x01
     708:	8a 83       	std	Y+2, r24	; 0x02
     70a:	8b 83       	std	Y+3, r24	; 0x03
     70c:	8c 83       	std	Y+4, r24	; 0x04
     70e:	8d 83       	std	Y+5, r24	; 0x05
     710:	8e 83       	std	Y+6, r24	; 0x06

#if FLASHEND > 0x1fff
  if (signedValue<0) {
     712:	f7 fe       	sbrs	r15, 7
     714:	0b c0       	rjmp	.+22     	; 0x72c <DisplayValue+0x40>
     lcd_data('-');
     716:	8d e2       	ldi	r24, 0x2D	; 45
     718:	cc dd       	rcall	.-1128   	; 0x2b2 <lcd_data>
     71a:	f0 94       	com	r15
     Value=-signedValue;
     71c:	e0 94       	com	r14
     71e:	d0 94       	com	r13
     720:	c0 94       	com	r12
     722:	c1 1c       	adc	r12, r1
     724:	d1 1c       	adc	r13, r1
     726:	e1 1c       	adc	r14, r1
     728:	f1 1c       	adc	r15, r1
     72a:	04 c0       	rjmp	.+8      	; 0x734 <DisplayValue+0x48>
     72c:	05 ff       	sbrs	r16, 5
  } else {
     if ((xdigits & 0x20) != 0) lcd_data('+');
     72e:	02 c0       	rjmp	.+4      	; 0x734 <DisplayValue+0x48>
     730:	8b e2       	ldi	r24, 0x2B	; 43
     732:	bf dd       	rcall	.-1154   	; 0x2b2 <lcd_data>
     734:	13 30       	cpi	r17, 0x03	; 3
     736:	09 f4       	brne	.+2      	; 0x73a <DisplayValue+0x4e>
  }
#endif

  Limit = 100;				/* scale value down to 2 digits */
  if (digits == 3) Limit = 1000;	/* scale value down to 3 digits */
     738:	b6 c0       	rjmp	.+364    	; 0x8a6 <DisplayValue+0x1ba>
     73a:	14 30       	cpi	r17, 0x04	; 4
     73c:	09 f4       	brne	.+2      	; 0x740 <DisplayValue+0x54>
  if (digits == 4) Limit = 10000;	/* scale value down to 4 digits */
     73e:	ba c0       	rjmp	.+372    	; 0x8b4 <DisplayValue+0x1c8>
     740:	15 30       	cpi	r17, 0x05	; 5
     742:	51 f0       	breq	.+20     	; 0x758 <DisplayValue+0x6c>
#ifdef LONG_OUTPUT
  if (digits == 5) Limit = 100000;	/* scale value down to 5 digits */
     744:	16 30       	cpi	r17, 0x06	; 6
     746:	81 f0       	breq	.+32     	; 0x768 <DisplayValue+0x7c>
  if (digits == 6) Limit = 1000000;	/* scale value down to 6 digits */
     748:	17 30       	cpi	r17, 0x07	; 7
     74a:	b1 f0       	breq	.+44     	; 0x778 <DisplayValue+0x8c>
  if (digits == 7) Limit = 10000000;	/* scale value down to 7 digits */
     74c:	74 e6       	ldi	r23, 0x64	; 100
     74e:	87 2e       	mov	r8, r23
  } else {
     if ((xdigits & 0x20) != 0) lcd_data('+');
  }
#endif

  Limit = 100;				/* scale value down to 2 digits */
     750:	91 2c       	mov	r9, r1
     752:	a1 2c       	mov	r10, r1
     754:	b1 2c       	mov	r11, r1
     756:	17 c0       	rjmp	.+46     	; 0x786 <DisplayValue+0x9a>
     758:	60 ea       	ldi	r22, 0xA0	; 160
     75a:	86 2e       	mov	r8, r22
  if (digits == 3) Limit = 1000;	/* scale value down to 3 digits */
  if (digits == 4) Limit = 10000;	/* scale value down to 4 digits */
#ifdef LONG_OUTPUT
  if (digits == 5) Limit = 100000;	/* scale value down to 5 digits */
     75c:	66 e8       	ldi	r22, 0x86	; 134
     75e:	96 2e       	mov	r9, r22
     760:	aa 24       	eor	r10, r10
     762:	a3 94       	inc	r10
     764:	b1 2c       	mov	r11, r1
     766:	0f c0       	rjmp	.+30     	; 0x786 <DisplayValue+0x9a>
     768:	50 e4       	ldi	r21, 0x40	; 64
     76a:	85 2e       	mov	r8, r21
  if (digits == 6) Limit = 1000000;	/* scale value down to 6 digits */
     76c:	52 e4       	ldi	r21, 0x42	; 66
     76e:	95 2e       	mov	r9, r21
     770:	5f e0       	ldi	r21, 0x0F	; 15
     772:	a5 2e       	mov	r10, r21
     774:	b1 2c       	mov	r11, r1
     776:	07 c0       	rjmp	.+14     	; 0x786 <DisplayValue+0x9a>
     778:	40 e8       	ldi	r20, 0x80	; 128
     77a:	84 2e       	mov	r8, r20
  if (digits == 7) Limit = 10000000;	/* scale value down to 7 digits */
     77c:	46 e9       	ldi	r20, 0x96	; 150
     77e:	94 2e       	mov	r9, r20
     780:	48 e9       	ldi	r20, 0x98	; 152
     782:	a4 2e       	mov	r10, r20
     784:	b1 2c       	mov	r11, r1
     786:	3a e0       	ldi	r19, 0x0A	; 10
     788:	43 2e       	mov	r4, r19

  while (Value >= Limit)
  {
    Value += 5;				/* for automatic rounding */
    // perhaps TODO: the above is not really correct, can do double rounding (2000.45 -> 2000.5 -> 2001)
    Value = Value / 10;			/* scale down by 10^1 */
     78a:	51 2c       	mov	r5, r1
     78c:	61 2c       	mov	r6, r1
     78e:	71 2c       	mov	r7, r1
     790:	c8 14       	cp	r12, r8
     792:	d9 04       	cpc	r13, r9
  if (digits == 5) Limit = 100000;	/* scale value down to 5 digits */
  if (digits == 6) Limit = 1000000;	/* scale value down to 6 digits */
  if (digits == 7) Limit = 10000000;	/* scale value down to 7 digits */
#endif

  while (Value >= Limit)
     794:	ea 04       	cpc	r14, r10
     796:	fb 04       	cpc	r15, r11
     798:	70 f0       	brcs	.+28     	; 0x7b6 <DisplayValue+0xca>
     79a:	c7 01       	movw	r24, r14
     79c:	b6 01       	movw	r22, r12
  {
    Value += 5;				/* for automatic rounding */
     79e:	6b 5f       	subi	r22, 0xFB	; 251
     7a0:	7f 4f       	sbci	r23, 0xFF	; 255
     7a2:	8f 4f       	sbci	r24, 0xFF	; 255
     7a4:	9f 4f       	sbci	r25, 0xFF	; 255
     7a6:	a3 01       	movw	r20, r6
     7a8:	92 01       	movw	r18, r4
    // perhaps TODO: the above is not really correct, can do double rounding (2000.45 -> 2000.5 -> 2001)
    Value = Value / 10;			/* scale down by 10^1 */
     7aa:	0e 94 6d 31 	call	0x62da	; 0x62da <__udivmodsi4>
     7ae:	69 01       	movw	r12, r18
     7b0:	7a 01       	movw	r14, r20
     7b2:	33 94       	inc	r3
     7b4:	ed cf       	rjmp	.-38     	; 0x790 <DisplayValue+0xa4>
     7b6:	81 e1       	ldi	r24, 0x11	; 17
     7b8:	83 0d       	add	r24, r3
    }
#endif
  // the following is much more concise
  // also removes the limits checking, since limit errors should never happen, and if they do, they'd show _incorrect_ results;
  // showing a garbage prefix character seems preferable to something correct-looking but off by some power of 10
  Index = ((unsigned char)(Exponent+17))/3;
     7ba:	9b ea       	ldi	r25, 0xAB	; 171
     7bc:	89 9f       	mul	r24, r25
     7be:	91 2c       	mov	r9, r1
     7c0:	11 24       	eor	r1, r1
     7c2:	96 94       	lsr	r9
     7c4:	86 e0       	ldi	r24, 0x06	; 6
     7c6:	83 19       	sub	r24, r3
  Offset = ((unsigned char)(6-Exponent))%3;
     7c8:	89 9f       	mul	r24, r25
     7ca:	81 2c       	mov	r8, r1
     7cc:	11 24       	eor	r1, r1
     7ce:	86 94       	lsr	r8
     7d0:	98 2d       	mov	r25, r8
     7d2:	99 0f       	add	r25, r25
     7d4:	98 0d       	add	r25, r8
     7d6:	88 2e       	mov	r8, r24
     7d8:	89 1a       	sub	r8, r25
     7da:	5e 01       	movw	r10, r28
     7dc:	87 e0       	ldi	r24, 0x07	; 7
    } else if (__radix < 2 || __radix > 36) {
	*__s = 0;
	return __s;
    } else {
	extern char *__ultoa_ncheck (unsigned long, char *, unsigned char);
	return __ultoa_ncheck (__val, __s, __radix);
     7de:	a8 0e       	add	r10, r24
     7e0:	b1 1c       	adc	r11, r1
     7e2:	2a e0       	ldi	r18, 0x0A	; 10
     7e4:	a5 01       	movw	r20, r10
     7e6:	c7 01       	movw	r24, r14
     7e8:	b6 01       	movw	r22, r12
     7ea:	0e 94 07 32 	call	0x640e	; 0x640e <__ultoa_ncheck>
     7ee:	f5 01       	movw	r30, r10
     7f0:	01 90       	ld	r0, Z+
  ultoa(Value, &OutBuffer[6], 10);	// sprintf(&OutBuffer[6],"%ld%c",Value,(char)0);
#else
  utoa((uint16_t)Value, &OutBuffer[6], 10);	// sprintf(&OutBuffer[6],"%d%c",Value,(char)0);
#endif

  Length = strlen(&OutBuffer[6]);
     7f2:	00 20       	and	r0, r0
     7f4:	e9 f7       	brne	.-6      	; 0x7f0 <DisplayValue+0x104>
     7f6:	cf 01       	movw	r24, r30
     7f8:	01 97       	sbiw	r24, 0x01	; 1
     7fa:	7c 01       	movw	r14, r24
     7fc:	ea 18       	sub	r14, r10
     7fe:	fb 08       	sbc	r15, r11
     800:	ae 2c       	mov	r10, r14
     802:	67 01       	movw	r12, r14
     804:	dd 24       	eor	r13, r13
     806:	28 2d       	mov	r18, r8
     808:	30 e0       	ldi	r19, 0x00	; 0

#ifdef LONG_OUTPUT
 #ifdef NO_NANO
  if ((Length > (4+Offset))  && (Index != 0))
 #else
  if (Length > (4+Offset)) 
     80a:	2c 5f       	subi	r18, 0xFC	; 252
     80c:	3f 4f       	sbci	r19, 0xFF	; 255
     80e:	2c 15       	cp	r18, r12
     810:	3d 05       	cpc	r19, r13
     812:	1c f4       	brge	.+6      	; 0x81a <DisplayValue+0x12e>
     814:	93 94       	inc	r9
     816:	93 e0       	ldi	r25, 0x03	; 3
 #endif
    {
      Index++;			/* take next prefix for better readable string */
     818:	89 0e       	add	r8, r25
      Offset += 3;		/* decimal point 3 to the left */
     81a:	89 2d       	mov	r24, r9
     81c:	90 e0       	ldi	r25, 0x00	; 0
      Index++;				/* use mikro instead of nano */
      Offset += 3;			/* can be 3,4 or 5 */
    }
#endif

  Prefix = MEM_read_byte((unsigned char *)(&PrefixTab[Index]));   /* look up prefix in table */
     81e:	86 5c       	subi	r24, 0xC6	; 198
     820:	9f 4f       	sbci	r25, 0xFF	; 255
     822:	0e 94 4b 32 	call	0x6496	; 0x6496 <__eerd_byte_m328p>
     826:	b8 2e       	mov	r11, r24
     828:	04 ff       	sbrs	r16, 4
     82a:	04 c0       	rjmp	.+8      	; 0x834 <DisplayValue+0x148>

   */


  /* position of dot */
  if (((xdigits & 0x10) != 0) && (digits > Length)) {
     82c:	a1 16       	cp	r10, r17
     82e:	10 f4       	brcc	.+4      	; 0x834 <DisplayValue+0x148>
     830:	1e 19       	sub	r17, r14
     832:	01 c0       	rjmp	.+2      	; 0x836 <DisplayValue+0x14a>
     Rshift = (digits - Length);	// use previous filled '0' characters
     834:	10 e0       	ldi	r17, 0x00	; 0
     836:	ae 2c       	mov	r10, r14
  } else {
     Rshift = 0;
     838:	a8 18       	sub	r10, r8
  }

  Exponent = (Length + Rshift) - Offset;		/* calculate position */
     83a:	a1 0e       	add	r10, r17
     83c:	1a 14       	cp	r1, r10
     83e:	24 f0       	brlt	.+8      	; 0x848 <DisplayValue+0x15c>

  if (Exponent <= 0)			/* we have to prepend "0." */
     840:	8e e2       	ldi	r24, 0x2E	; 46
     842:	37 dd       	rcall	.-1426   	; 0x2b2 <lcd_data>
  {
    /* 0: factor 10 / -1: factor 100 */
//    lcd_data('0');
    lcd_data('.');
     844:	18 2d       	mov	r17, r8
     846:	1e 19       	sub	r17, r14
     848:	81 10       	cpse	r8, r1
      }
#else
    if (Exponent < 0) lcd_data('0');	/* extra 0 for factor 100 */
#endif
#else
    Rshift = Offset - Length;
     84a:	02 c0       	rjmp	.+4      	; 0x850 <DisplayValue+0x164>
     84c:	28 ef       	ldi	r18, 0xF8	; 248
#endif
  }



  if (Offset == 0) Exponent = -8;	/* disable dot if not needed */
     84e:	a2 2e       	mov	r10, r18
     850:	91 2c       	mov	r9, r1
     852:	01 2f       	mov	r16, r17
     854:	10 e0       	ldi	r17, 0x00	; 0

//  Exponent--;


  /* display value and add dot if requested */
  Index = 0;
     856:	c0 0e       	add	r12, r16
  while (Index < (Length+Rshift))		/* loop through string */
     858:	d1 1e       	adc	r13, r17
     85a:	ea 2c       	mov	r14, r10
     85c:	ff 24       	eor	r15, r15
     85e:	e7 fc       	sbrc	r14, 7
  {
    lcd_data(OutBuffer[Index+6-Rshift]);		/* display char */
    Index++;				/* next one */
    if (Index == Exponent) {
     860:	f0 94       	com	r15
     862:	e9 2d       	mov	r30, r9
     864:	f0 e0       	ldi	r31, 0x00	; 0
     866:	ec 15       	cp	r30, r12
//  Exponent--;


  /* display value and add dot if requested */
  Index = 0;
  while (Index < (Length+Rshift))		/* loop through string */
     868:	fd 05       	cpc	r31, r13
     86a:	a4 f4       	brge	.+40     	; 0x894 <DisplayValue+0x1a8>
     86c:	36 96       	adiw	r30, 0x06	; 6
     86e:	e0 1b       	sub	r30, r16
     870:	f1 0b       	sbc	r31, r17
  {
    lcd_data(OutBuffer[Index+6-Rshift]);		/* display char */
     872:	81 e0       	ldi	r24, 0x01	; 1
     874:	90 e0       	ldi	r25, 0x00	; 0
     876:	8c 0f       	add	r24, r28
     878:	9d 1f       	adc	r25, r29
     87a:	e8 0f       	add	r30, r24
     87c:	f9 1f       	adc	r31, r25
     87e:	80 81       	ld	r24, Z
     880:	18 dd       	rcall	.-1488   	; 0x2b2 <lcd_data>
     882:	93 94       	inc	r9
     884:	89 2d       	mov	r24, r9
     886:	90 e0       	ldi	r25, 0x00	; 0
     888:	8e 15       	cp	r24, r14
    Index++;				/* next one */
     88a:	9f 05       	cpc	r25, r15
    if (Index == Exponent) {
     88c:	51 f7       	brne	.-44     	; 0x862 <DisplayValue+0x176>
     88e:	8e e2       	ldi	r24, 0x2E	; 46
     890:	10 dd       	rcall	.-1504   	; 0x2b2 <lcd_data>
     892:	e7 cf       	rjmp	.-50     	; 0x862 <DisplayValue+0x176>
     894:	bb 20       	and	r11, r11
      lcd_data('.');			/* display dot */
     896:	11 f0       	breq	.+4      	; 0x89c <DisplayValue+0x1b0>
     898:	8b 2d       	mov	r24, r11
     89a:	0b dd       	rcall	.-1514   	; 0x2b2 <lcd_data>
     89c:	22 20       	and	r2, r2



  /* display prefix and unit */

  if (Prefix != 0) {
     89e:	89 f0       	breq	.+34     	; 0x8c2 <DisplayValue+0x1d6>
     8a0:	82 2d       	mov	r24, r2
     lcd_data(Prefix);
     8a2:	07 dd       	rcall	.-1522   	; 0x2b2 <lcd_data>
     8a4:	0e c0       	rjmp	.+28     	; 0x8c2 <DisplayValue+0x1d6>
     8a6:	98 ee       	ldi	r25, 0xE8	; 232
  }

  if (Unit != 0) {
     8a8:	89 2e       	mov	r8, r25
     8aa:	93 e0       	ldi	r25, 0x03	; 3
      lcd_data(Unit);
     8ac:	99 2e       	mov	r9, r25
     8ae:	a1 2c       	mov	r10, r1
     8b0:	b1 2c       	mov	r11, r1
     8b2:	69 cf       	rjmp	.-302    	; 0x786 <DisplayValue+0x9a>
     if ((xdigits & 0x20) != 0) lcd_data('+');
  }
#endif

  Limit = 100;				/* scale value down to 2 digits */
  if (digits == 3) Limit = 1000;	/* scale value down to 3 digits */
     8b4:	80 e1       	ldi	r24, 0x10	; 16
     8b6:	88 2e       	mov	r8, r24
     8b8:	87 e2       	ldi	r24, 0x27	; 39
     8ba:	98 2e       	mov	r9, r24
     8bc:	a1 2c       	mov	r10, r1
     8be:	b1 2c       	mov	r11, r1
     8c0:	62 cf       	rjmp	.-316    	; 0x786 <DisplayValue+0x9a>
  if (digits == 4) Limit = 10000;	/* scale value down to 4 digits */
     8c2:	2e 96       	adiw	r28, 0x0e	; 14
     8c4:	e2 e1       	ldi	r30, 0x12	; 18
     8c6:	0c 94 ec 31 	jmp	0x63d8	; 0x63d8 <__epilogue_restores__>

000008ca <DisplayValue16>:
     8ca:	0f 93       	push	r16
     8cc:	36 2f       	mov	r19, r22
     8ce:	bc 01       	movw	r22, r24

  if (Unit != 0) {
      lcd_data(Unit);
  }
  return;
}
     8d0:	80 e0       	ldi	r24, 0x00	; 0
     8d2:	90 e0       	ldi	r25, 0x00	; 0
     8d4:	02 2f       	mov	r16, r18
     8d6:	24 2f       	mov	r18, r20

void DisplayValue16(uint16_t Value, int8_t Exponent, unsigned char Unit, uint8_t digits)
{
     8d8:	43 2f       	mov	r20, r19
     8da:	08 df       	rcall	.-496    	; 0x6ec <DisplayValue>
 DisplayValue((signed long)Value, Exponent, Unit, digits);
     8dc:	0f 91       	pop	r16
     8de:	08 95       	ret

000008e0 <Display_mV>:
     8e0:	0f 93       	push	r16
     8e2:	06 2f       	mov	r16, r22
     8e4:	bc 01       	movw	r22, r24
     8e6:	80 e0       	ldi	r24, 0x00	; 0
     8e8:	90 e0       	ldi	r25, 0x00	; 0
     8ea:	26 e5       	ldi	r18, 0x56	; 86
}
     8ec:	4d ef       	ldi	r20, 0xFD	; 253
     8ee:	fe de       	rcall	.-516    	; 0x6ec <DisplayValue>

void Display_mV(uint16_t xx, uint8_t ll) {
     8f0:	0f 91       	pop	r16
     8f2:	08 95       	ret

000008f4 <Display_Hz>:
 DisplayValue((long)xx,-3,'V',ll);
     8f4:	0f 93       	push	r16
     8f6:	04 2f       	mov	r16, r20
     8f8:	28 e4       	ldi	r18, 0x48	; 72
     8fa:	40 e0       	ldi	r20, 0x00	; 0
     8fc:	f7 de       	rcall	.-530    	; 0x6ec <DisplayValue>
     8fe:	8a e7       	ldi	r24, 0x7A	; 122
     900:	d8 dc       	rcall	.-1616   	; 0x2b2 <lcd_data>
}
     902:	e5 dc       	rcall	.-1590   	; 0x2ce <lcd_space>
     904:	0f 91       	pop	r16
#if defined(WITH_MENU) || defined(WITH_XTAL)
void Display_Hz(unsigned long xx, uint8_t dd) {
     906:	08 95       	ret

00000908 <uart_putc>:
		lds	r25, UCSR0A
		sbrs	r25, UDRE0
		rjmp	w3		; wait
		AOUT    UDR0, r24	; put data to transmit buffer
#endif	/* def WITH_HARDWARE_SERIAL */
		ret			;   return
     908:	08 95       	ret

0000090a <wait5s>:
; A maximum of 28 bytes of space for return addresses is used in RAM 
; I see no way to implement this function with C-language (too tricky)


wait5s:
 rcall wait1s		;	12+x return-adresses
     90a:	03 d0       	rcall	.+6      	; 0x912 <wait1000ms>

0000090c <wait4s>:
wait4s:
 rcall wait1s		;	12+x return-adresses
     90c:	02 d0       	rcall	.+4      	; 0x912 <wait1000ms>

0000090e <wait3s>:
wait3s:
 rcall wait1s		;	12+x return-adresses
     90e:	01 d0       	rcall	.+2      	; 0x912 <wait1000ms>

00000910 <wait2s>:
wait2s:
 rcall wait1s		;1s     12+x Return-Adresses
     910:	00 d0       	rcall	.+0      	; 0x912 <wait1000ms>

00000912 <wait1000ms>:

wait1s:
wait1000ms:	
 rcall wait500ms	;500ms	11+x Return-Adresses
     912:	00 d0       	rcall	.+0      	; 0x914 <wait500ms>

00000914 <wait500ms>:

wait500ms:
 rcall wait100ms	;100ms	10+x Return-Adresses
     914:	03 d0       	rcall	.+6      	; 0x91c <wait100ms>

00000916 <wait400ms>:
wait400ms:
 rcall wait100ms	;100ms	10+x Return-Adresses
     916:	02 d0       	rcall	.+4      	; 0x91c <wait100ms>

00000918 <wait300ms>:
wait300ms:
 rcall wait100ms	;100ms	10+x Return-Adresses
     918:	01 d0       	rcall	.+2      	; 0x91c <wait100ms>

0000091a <wait200ms>:
wait200ms:
 rcall wait100ms	;100ms	10+x Return-Adresses
     91a:	00 d0       	rcall	.+0      	; 0x91c <wait100ms>

0000091c <wait100ms>:


wait100ms:
 rcall wait50ms	    	; 50ms	9+x Return-Adresses
     91c:	00 d0       	rcall	.+0      	; 0x91e <wait50ms>

0000091e <wait50ms>:

wait50ms:
 rcall wait10ms	    	;10ms	8+x Return-Adresses 
     91e:	03 d0       	rcall	.+6      	; 0x926 <wait10ms>

00000920 <wait40ms>:
wait40ms:
 rcall wait10ms	    	;10ms	8+x Return-Adresses  
     920:	02 d0       	rcall	.+4      	; 0x926 <wait10ms>

00000922 <wait30ms>:
wait30ms:
 rcall wait10ms	    	;10ms	8+x Return-Adresses  
     922:	01 d0       	rcall	.+2      	; 0x926 <wait10ms>

00000924 <wait20ms>:
wait20ms:
 rcall wait10ms	    	;10ms	8+x Return-Adresses
     924:	00 d0       	rcall	.+0      	; 0x926 <wait10ms>

00000926 <wait10ms>:

wait10ms:
 rcall wait5ms	   	;5ms	7+x Return-Adresses
     926:	00 d0       	rcall	.+0      	; 0x928 <wait5ms>

00000928 <wait5ms>:
wait5ms:
 wdr				; every 5ms one Watchdog reset!
     928:	a8 95       	wdr
 rcall wait1ms	   	;1ms	6+x Return-Adresses
     92a:	03 d0       	rcall	.+6      	; 0x932 <wait1ms>

0000092c <wait4ms>:
wait4ms:
 rcall wait1ms	   	;1ms	6+x Return-Adresses
     92c:	02 d0       	rcall	.+4      	; 0x932 <wait1ms>

0000092e <wait3ms>:
wait3ms:
 rcall wait1ms	   	;1ms	6+x Return-Adresses
     92e:	01 d0       	rcall	.+2      	; 0x932 <wait1ms>

00000930 <wait2ms>:
wait2ms:
 rcall wait1ms	   	;1ms	6+x Return-Adresses
     930:	00 d0       	rcall	.+0      	; 0x932 <wait1ms>

00000932 <wait1ms>:

wait1ms:
 rcall wait500us    	;500us	5+x Return-Adresses
     932:	00 d0       	rcall	.+0      	; 0x934 <wait500us>

00000934 <wait500us>:
wait500us:
 rcall wait100us    	;100us	4+x Return-Adresses
     934:	03 d0       	rcall	.+6      	; 0x93c <wait100us>

00000936 <wait400us>:
wait400us:
 rcall wait100us    	;100us	4+x Return-Adresses
     936:	02 d0       	rcall	.+4      	; 0x93c <wait100us>

00000938 <wait300us>:
wait300us:
 rcall wait100us    	;100us	4+x Return-Adresses
     938:	01 d0       	rcall	.+2      	; 0x93c <wait100us>

0000093a <wait200us>:
wait200us:
 rcall wait100us    	;100us	4+x Return-Adresses
     93a:	00 d0       	rcall	.+0      	; 0x93c <wait100us>

0000093c <wait100us>:

wait100us:
#if US100_TICS > (2 * US50_TICS)
 nop
#endif
 rcall wait50us	    	; 50us delay
     93c:	00 d0       	rcall	.+0      	; 0x93e <wait50us>

0000093e <wait50us>:
wait50us:
#if US50_TICS > (US40_TICS + US10_TICS)
 nop
#endif
 rcall wait10us     	;10us delay
     93e:	03 d0       	rcall	.+6      	; 0x946 <wait10us>

00000940 <wait40us>:
wait40us:
#if US40_TICS > (US30_TICS + US10_TICS)
 nop
#endif
 rcall wait10us     	;10us delay
     940:	02 d0       	rcall	.+4      	; 0x946 <wait10us>

00000942 <wait30us>:
wait30us:
#if US30_TICS > (US20_TICS + US10_TICS)
 nop
#endif
 rcall wait10us     	;10us delay
     942:	01 d0       	rcall	.+2      	; 0x946 <wait10us>

00000944 <wait20us>:
wait20us:
#if US20_TICS > (2 * US10_TICS)
 nop
#endif
 rcall wait10us		;10us delay
     944:	00 d0       	rcall	.+0      	; 0x946 <wait10us>

00000946 <wait10us>:

#if US5_TICS >= RCALL_TICS
 #if US10_TICS > (2 * US5_TICS)
  nop
 #endif
 rcall wait5us
     946:	00 d0       	rcall	.+0      	; 0x948 <wait5us>

00000948 <wait5us>:
   #define INNER_TICS US1_TICS
wait5us:
   #if US5_TICS > (US4_TICS + US1_TICS)
    nop
   #endif
   rcall wait1us
     948:	03 d0       	rcall	.+6      	; 0x950 <wait1us>

0000094a <wait4us>:
wait4us:
   #if US4_TICS > (US3_TICS + US1_TICS)
    nop
   #endif
   rcall wait1us
     94a:	02 d0       	rcall	.+4      	; 0x950 <wait1us>

0000094c <wait3us>:
wait3us:
   #if US3_TICS > (US2_TICS + US1_TICS)
    nop
   #endif
   rcall wait1us
     94c:	01 d0       	rcall	.+2      	; 0x950 <wait1us>

0000094e <wait2us>:
wait2us:
   #if US2_TICS > (2 * US1_TICS)
    nop
   #endif
   rcall wait1us
     94e:	00 d0       	rcall	.+0      	; 0x950 <wait1us>

00000950 <wait1us>:
 #endif
 #if WAST_TICS2 >= 2
    rjmp .		/* two additional tics */
 #endif
 #if ((WAST_TICS2 / 2) * 2) < WAST_TICS2
    nop			/* one additional tic */
     950:	00 00       	nop
 #endif

 ret
     952:	08 95       	ret

00000954 <sleep_5ms>:

;/* set the processor to sleep state */
;/* wake up will be done with compare match interrupt of counter 2 */
; void sleep_5ms(uint8_t spause){
sleep_5ms:
 	ldi	r25, 0x00	;  pause = spause;
     954:	90 e0       	ldi	r25, 0x00	; 0
 	cpi	r24, 201
     956:	89 3c       	cpi	r24, 0xC9	; 201
 	brcs	wloop		; if (spause > 200) 
     958:	28 f0       	brcs	.+10     	; 0x964 <wloop>

;// spause = 202 = 2s
;// spause = 203 = 3s
;// spause = 204 = 4s
;// spause = 205 = 5s
 	subi	r24, 0xC8	; 200 pause = (spause-200) * 200;
     95a:	88 5c       	subi	r24, 0xC8	; 200
 	ldi	r20, 0xC8	; 200
     95c:	48 ec       	ldi	r20, 0xC8	; 200
 	mul	r24, r20	; (spause-200) * 200
     95e:	84 9f       	mul	r24, r20
 	movw	r24, r0		; r24:25 = (spause-200) * 200
     960:	c0 01       	movw	r24, r0
 	eor	r1, r1
     962:	11 24       	eor	r1, r1

00000964 <wloop>:

wloop:
 	sbiw	r24, 0x00	; 0 while (pause > 0)
     964:	00 97       	sbiw	r24, 0x00	; 0
 	brne	check_remain 
     966:	09 f4       	brne	.+2      	; 0x96a <check_remain>
; 	sts	TIMSK2, r1	; TIMSK2 = (0<<OCIE2B) | (0<<OCIE2A) | (0<<TOIE2); /* disable output compare match A interrupt */ 
;#endif
 	ret
     968:	08 95       	ret

0000096a <check_remain>:

check_remain:
#if (F_CPU_HZ / 400) > RESTART_DELAY_TICS
        lds	r18, TCCR1B	; if (TCCR1B & ((1<<CS12)|(1<<CS11)|(1<<CS10)) != 0) 
     96a:	20 91 81 00 	lds	r18, 0x0081
	andi	r18, ((1<<CS12)|(1<<CS11)|(1<<CS10))	;
     96e:	27 70       	andi	r18, 0x07	; 7
	breq	do_sleep
     970:	19 f0       	breq	.+6      	; 0x978 <do_sleep>
;  timer 1 is running, don't use sleep
	RCALL	wait5ms		; wait5ms();
     972:	da df       	rcall	.-76     	; 0x928 <wait5ms>
	sbiw	r24, 1		; pause -= 1;
     974:	01 97       	sbiw	r24, 0x01	; 1
	rjmp	wloop
     976:	f6 cf       	rjmp	.-20     	; 0x964 <wloop>

00000978 <do_sleep>:
do_sleep:
 	cpi	r24, 0x01	; 1
     978:	81 30       	cpi	r24, 0x01	; 1
 	cpc	r25, r1
     97a:	91 05       	cpc	r25, r1
 	breq	only_one 		; if (pause > 1)
     97c:	19 f0       	breq	.+6      	; 0x984 <only_one>
 	sbiw	r24, 0x02	; pause -= 2;
     97e:	02 97       	sbiw	r24, 0x02	; 2
;     // Startup time is too long with 1MHz Clock!!!!
	ldi	r19, DELAY_10ms ; 	/* set to 10ms above the actual counter */
     980:	3e e3       	ldi	r19, 0x3E	; 62
 	rjmp	set_cntr 
     982:	03 c0       	rjmp	.+6      	; 0x98a <set_cntr>

00000984 <only_one>:

only_one:
	ldi	r19, DELAY_5ms	; 	/* set to 5ms above the actual counter */
     984:	37 e1       	ldi	r19, 0x17	; 23
 	ldi	r24, 0x00	;  pause = 0;
     986:	80 e0       	ldi	r24, 0x00	; 0
 	ldi	r25, 0x00	; 0
     988:	90 e0       	ldi	r25, 0x00	; 0

0000098a <set_cntr>:
   
set_cntr:
 	lds	r18, TCNT2
     98a:	20 91 b2 00 	lds	r18, 0x00B2
 	add	r18, r19	; + t2_offset
     98e:	23 0f       	add	r18, r19
 	sts	OCR2A, r18	; OCR2A = TCNT2 + t2_offset;	/* set the compare value */
     990:	20 93 b3 00 	sts	0x00B3, r18
 	ldi	r20, ((0<<OCIE2B) | (1<<OCIE2A) | (0<<TOIE2)); /* enable output compare match A interrupt */ 
     994:	42 e0       	ldi	r20, 0x02	; 2
 	sts	TIMSK2, r20	; TIMSK2 = (0<<OCIE2B) | (1<<OCIE2A) | (0<<TOIE2); /* enable output compare match A interrupt */ 
     996:	40 93 70 00 	sts	0x0070, r20

;;	ldi	r18, (1 << SM1) | (1 << SM0) | (0 << SE); set_sleep_mode(SLEEP_MODE_PWR_SAVE)
;;	out	_SFR_IO_ADDR(SMCR), r18;        /*  SMCR = (1 <<SM1) | (1 << SM0) | (0 << SE); */
	ldi	r18, (1 << SM1) | (1 << SM0) | (1 << SE);
     99a:	27 e0       	ldi	r18, 0x07	; 7
	out	_SFR_IO_ADDR(SMCR), r18;        /*  SMCR = (1 <<SM1) | (1 << SM0) | (1 << SE); */
     99c:	23 bf       	out	0x33, r18	; 51
	sleep			;
     99e:	88 95       	sleep
; // wake up after output compare match interrupt
	ldi	r18, (1 << SM1) | (1 << SM0) | (0 << SE);
     9a0:	26 e0       	ldi	r18, 0x06	; 6
	out	_SFR_IO_ADDR(SMCR), r18;        /*  SMCR = (1 << SM0) | (0 << SE); */
     9a2:	23 bf       	out	0x33, r18	; 51
 	sts	TIMSK2, r1	; TIMSK2 = (0<<OCIE2B) | (0<<OCIE2A) | (0<<TOIE2); /* disable output compare match A interrupt */ 
     9a4:	10 92 70 00 	sts	0x0070, r1
 	wdr			; wdt_reset();
     9a8:	a8 95       	wdr
#else
;    // restart delay ist too long, use normal delay of 5ms
	RCALL	wait5ms		; wait5ms();	// wait5ms includes wdt_reset()
	sbiw	r24, 1		; pause -= 1;
#endif
 	rjmp	wloop 
     9aa:	dc cf       	rjmp	.-72     	; 0x964 <wloop>

000009ac <W20msReadADC>:
W5msReadADC:
	ACALL wait5ms;
			;// runs directly to ReadADC, this will replace "ACALL ReadADC + ret"
#else
W20msReadADC:
	push	r24;
     9ac:	8f 93       	push	r24
	ldi	r24, 4;		/* 4 * 5ms */
     9ae:	84 e0       	ldi	r24, 0x04	; 4
	RCALL	sleep_5ms;
     9b0:	d1 df       	rcall	.-94     	; 0x954 <sleep_5ms>
	rjmp   to_read;
     9b2:	07 c0       	rjmp	.+14     	; 0x9c2 <to_read>

000009b4 <W10msReadADC>:
W10msReadADC:
	push	r24;
     9b4:	8f 93       	push	r24
	ldi	r24, 2;		/* 2 * 5ms */
     9b6:	82 e0       	ldi	r24, 0x02	; 2
	RCALL	sleep_5ms;
     9b8:	cd df       	rcall	.-102    	; 0x954 <sleep_5ms>
	rjmp   to_read;
     9ba:	03 c0       	rjmp	.+6      	; 0x9c2 <to_read>

000009bc <W5msReadADC>:
W5msReadADC:
	push	r24;
     9bc:	8f 93       	push	r24
	ldi	r24, 1;		/* 1 * 5ms */
     9be:	81 e0       	ldi	r24, 0x01	; 1
	RCALL	sleep_5ms;
     9c0:	c9 df       	rcall	.-110    	; 0x954 <sleep_5ms>

000009c2 <to_read>:

to_read:
	pop	r24;
     9c2:	8f 91       	pop	r24

000009c4 <ReadADC>:

;unsigned int ReadADC(uint8_t Probe) 
ReadADC:
;  //returns result of ADC port Probe scaled to mV resolution (unsigned int)
;  unsigned long Value;
	push	r17;
     9c4:	1f 93       	push	r17
; unsigned int U; /* return value (mV) */
; uint8_t Samples; /* loop counter */
; unsigned long Value; /* ADC value */
	mov	r17, r24;	Probe
     9c6:	18 2f       	mov	r17, r24
	ori	r17, (1 << REFS0)	; Probe |= (1 << REFS0); /* use internal reference anyway */
     9c8:	10 64       	ori	r17, 0x40	; 64

000009ca <get_sample>:
get_sample:
        AOUT	ADMUX, r17		; ADMUX = Probe; /* set input channel and U reference */
     9ca:	10 93 7c 00 	sts	0x007C, r17
#ifdef AUTOSCALE_ADC
 /* if voltage reference changed run a dummy conversion */
	mov	r30, r17;
     9ce:	e1 2f       	mov	r30, r17
       	andi	r30, (1 << REFS1)	; Samples = Probe & (1 << REFS1); /* get REFS1 bit flag */
     9d0:	e0 78       	andi	r30, 0x80	; 128
	lds	r24, ADCconfig+RefFlag	;
     9d2:	80 91 2c 01 	lds	r24, 0x012C
       	cp	r30, r24;
     9d6:	e8 17       	cp	r30, r24
       	breq	no_ref_change			; if (Samples != ADCconfig.RefFlag) 
     9d8:	59 f0       	breq	.+22     	; 0x9f0 <no_ref_change>
	sts	ADCconfig+RefFlag, r30	; ADCconfig.RefFlag = Samples; /* update flag */
     9da:	e0 93 2c 01 	sts	0x012C, r30
 #ifdef NO_AREF_CAP
	RCALL	wait100us		; wait100us(); /* time for voltage stabilization */
     9de:	ae df       	rcall	.-164    	; 0x93c <wait100us>
  #else
	ldi	r24, 2			; /* 2 * 5ms */
	RCALL	sleep_5ms		; wait_about10ms()
  #endif
 #endif		/* end NO_AREF_CAP */
	StartADCwait                    ; // allways do one dummy read of ADC, 112us
     9e0:	8e e9       	ldi	r24, 0x9E	; 158
     9e2:	80 93 7a 00 	sts	0x007A, r24
     9e6:	83 e0       	ldi	r24, 0x03	; 3
     9e8:	83 bf       	out	0x33, r24	; 51
     9ea:	88 95       	sleep
     9ec:	82 e0       	ldi	r24, 0x02	; 2
     9ee:	83 bf       	out	0x33, r24	; 51

000009f0 <no_ref_change>:
#endif		/* end AUTOSCALE_ADC */

;unsigned int ReadADC (uint8_t Probe) {
no_ref_change:
 /* * sample ADC readings */
	ldi	r18, 0x00;	 Value = 0UL; /* reset sampling variable */
     9f0:	20 e0       	ldi	r18, 0x00	; 0
	ldi	r19, 0x00; 
     9f2:	30 e0       	ldi	r19, 0x00	; 0
	movw	r20, r18;
     9f4:	a9 01       	movw	r20, r18
	ldi	r30, 0x00;	 Samples = 0; /* number of samples to take */
     9f6:	e0 e0       	ldi	r30, 0x00	; 0
	rjmp	r2ae8 ;
     9f8:	1f c0       	rjmp	.+62     	; 0xa38 <r2ae8>

000009fa <Loop>:
; while (Samples < ADCconfig.Samples) /* take samples */ 
Loop:
	StartADCwait                    /* start ADC and wait */
     9fa:	8e e9       	ldi	r24, 0x9E	; 158
     9fc:	80 93 7a 00 	sts	0x007A, r24
     a00:	83 e0       	ldi	r24, 0x03	; 3
     a02:	83 bf       	out	0x33, r24	; 51
     a04:	88 95       	sleep
     a06:	82 e0       	ldi	r24, 0x02	; 2
     a08:	83 bf       	out	0x33, r24	; 51

	lds	r22, ADCL;     Value += ADCW; /* add ADC reading */
     a0a:	60 91 78 00 	lds	r22, 0x0078
	lds	r23, ADCH;
     a0e:	70 91 79 00 	lds	r23, 0x0079
	add	r18, r22;
     a12:	26 0f       	add	r18, r22
	adc	r19, r23;
     a14:	37 1f       	adc	r19, r23
	adc	r20, r1;
     a16:	41 1d       	adc	r20, r1
	adc	r21, r1;
     a18:	51 1d       	adc	r21, r1
#ifdef AUTOSCALE_ADC
;    /* auto-switch voltage reference for low readings */
;    if ((Samples == 4) && (ADCconfig.U_Bandgap > 255) && ((uint16_t)Value < 1024) && !(Probe & (1 << REFS1))) {
	cpi	r30, 0x04;	Samples == 4
     a1a:	e4 30       	cpi	r30, 0x04	; 4
	brne	cnt_next		; if ((Samples == 4) && 
     a1c:	61 f4       	brne	.+24     	; 0xa36 <cnt_next>
	lds	r24, ADCconfig+3;
     a1e:	80 91 2e 01 	lds	r24, 0x012E
        cpi	r24,0;
     a22:	80 30       	cpi	r24, 0x00	; 0
        breq	cnt_next		; if ( && (ADCconfig.U_Bandgap > 255) )
     a24:	41 f0       	breq	.+16     	; 0xa36 <cnt_next>
       	ldi	r24, hi8(1024)		; Value < 1024
     a26:	84 e0       	ldi	r24, 0x04	; 4
	cpi	r18, lo8(1024)
     a28:	20 30       	cpi	r18, 0x00	; 0
	cpc	r19, r24;
     a2a:	38 07       	cpc	r19, r24
	brcc	cnt_next		; if ( &&  && ((uint16_t)Value < 1024) )
     a2c:	20 f4       	brcc	.+8      	; 0xa36 <cnt_next>
	sbrc	r17, REFS1;
     a2e:	17 fd       	sbrc	r17, 7
	rjmp	cnt_next		; if ( &&  &&  && !(Probe & (1 << REFS1))) 
     a30:	02 c0       	rjmp	.+4      	; 0xa36 <cnt_next>
	ori	r17, (1 << REFS1);   Probe |= (1 << REFS1); /* select internal bandgap reference */
     a32:	10 68       	ori	r17, 0x80	; 128
 #if (PROCESSOR_TYP == 644) || (PROCESSOR_TYP == 1280)
	cbr	r17, (1<<REFS0); Probe &= ~(1 << REFS0);  /* ATmega640/1280/2560 1.1V Reference with REFS0=0 */
 #endif
	rjmp	get_sample ;       goto get_sample; /* re-run sampling */
     a34:	ca cf       	rjmp	.-108    	; 0x9ca <get_sample>

00000a36 <cnt_next>:
#endif		/* end AUTOSCALE_ADC */
cnt_next:
	subi	r30, 0xFF;	  Samples++; /* one more done */
     a36:	ef 5f       	subi	r30, 0xFF	; 255

00000a38 <r2ae8>:
r2ae8:
	lds	r24, ADCconfig+Samples;
     a38:	80 91 2b 01 	lds	r24, 0x012B
	cp	r30, r24		; while (Samples < ADCconfig.Samples) /* take samples */ 
     a3c:	e8 17       	cp	r30, r24
	brcs	Loop ;
     a3e:	e8 f2       	brcs	.-70     	; 0x9fa <Loop>
	lds	r22, ADCconfig+U_AVCC		; U = ADCconfig.U_AVCC; /* Vcc reference */
     a40:	60 91 2f 01 	lds	r22, 0x012F
       	lds	r23, ADCconfig+U_AVCC+1;
     a44:	70 91 30 01 	lds	r23, 0x0130
#ifdef AUTOSCALE_ADC
; /* * convert ADC reading to voltage * - single sample: U = ADC reading * U_ref / 1024 */
; /* get voltage of reference used */
	sbrs	r17, REFS1			; if (Probe & (1 << REFS1))
     a48:	17 ff       	sbrs	r17, 7
	rjmp	r2b02 ;
     a4a:	04 c0       	rjmp	.+8      	; 0xa54 <r2b02>
	lds	r22, ADCconfig+U_Bandgap	; U = ADCconfig.U_Bandgap; /* bandgap reference */
     a4c:	60 91 2d 01 	lds	r22, 0x012D
	lds	r23, ADCconfig+U_Bandgap+1;
     a50:	70 91 2e 01 	lds	r23, 0x012E

00000a54 <r2b02>:
#endif		/* end AUTOSCALE_ADC */
; /* convert to voltage; */
r2b02:
	ldi	r24, 0x00			; Value *= U; /* ADC readings * U_ref */
     a54:	80 e0       	ldi	r24, 0x00	; 0
	ldi	r25, 0x00; 0
     a56:	90 e0       	ldi	r25, 0x00	; 0
	ACALL	__mulsi3;			; sum(ADCreads) * ADC_reference
     a58:	0e 94 2b 31 	call	0x6256	; 0x6256 <__mulsi3>
	ldi	r18, lo8(1023)			; Value /= 1023; /* / 1024 for 10bit ADC */
     a5c:	2f ef       	ldi	r18, 0xFF	; 255
	ldi	r19, hi8(1023);
     a5e:	33 e0       	ldi	r19, 0x03	; 3
	ldi	r20, 0x00; 0
     a60:	40 e0       	ldi	r20, 0x00	; 0
	ldi	r21, 0x00; 0
     a62:	50 e0       	ldi	r21, 0x00	; 0
	ACALL	__udivmodsi4;			R22-25 / R18-21
     a64:	0e 94 6d 31 	call	0x62da	; 0x62da <__udivmodsi4>
	movw	r22, r18;
     a68:	b9 01       	movw	r22, r18
	movw	r24, r20;
     a6a:	ca 01       	movw	r24, r20
; /* de-sample to get average voltage */
	lds	r18,ADCconfig+Samples			; Value /= ADCconfig.Samples;
     a6c:	20 91 2b 01 	lds	r18, 0x012B
	ldi	r19, 0x00; 0
     a70:	30 e0       	ldi	r19, 0x00	; 0
	ldi	r20, 0x00; 0
     a72:	40 e0       	ldi	r20, 0x00	; 0
	ldi	r21, 0x00; 0
     a74:	50 e0       	ldi	r21, 0x00	; 0
	ACALL	__udivmodsi4;			R22-25 / R18-21
     a76:	0e 94 6d 31 	call	0x62da	; 0x62da <__udivmodsi4>
	movw	r24, r18			;;//   return ((unsigned int)(Value / (1023 * (unsigned long)ADCconfig.Samples)));
     a7a:	c9 01       	movw	r24, r18
	pop	r17;
     a7c:	1f 91       	pop	r17
    	ret;
     a7e:	08 95       	ret

00000a80 <abs_diff>:
 .endfunc

.func abs_diff
.GLOBAL abs_diff
abs_diff:
	movw	r18, r22
     a80:	9b 01       	movw	r18, r22
        sub	r18, r24
     a82:	28 1b       	sub	r18, r24
	sbc	r19, r25
     a84:	39 0b       	sbc	r19, r25
	brcs	is_pl		; return v1-v2
     a86:	50 f0       	brcs	.+20     	; 0xa9c <is_pl>
	movw	r24, r18
     a88:	c9 01       	movw	r24, r18
	ret			; return v2-v1
     a8a:	08 95       	ret

00000a8c <vcc_diff>:

.func vcc_diff
.GLOBAL vcc_diff
; uint16_t vcc_diff(uint16_t v2)	// computes unsigned_diff(ADCconfig.U_AVCC, v2)
vcc_diff:
	movw	r22, r24
     a8c:	bc 01       	movw	r22, r24
	lds	r24, ADCconfig+U_AVCC
     a8e:	80 91 2f 01 	lds	r24, 0x012F
	lds	r25, ADCconfig+U_AVCC+1
     a92:	90 91 30 01 	lds	r25, 0x0130

00000a96 <unsigned_diff>:
.func unsigned_diff
.GLOBAL unsigned_diff
; uint16_t unsigned_diff(uint16_t v1, uint16_t v2)  // computes v1-v2 if positive, otherwise returns 0

unsigned_diff:
	cp	r22, r24
     a96:	68 17       	cp	r22, r24
	cpc	r23, r25
     a98:	79 07       	cpc	r23, r25
	brcc	no_pl
     a9a:	18 f4       	brcc	.+6      	; 0xaa2 <no_pl>

00000a9c <is_pl>:
is_pl:
	sub	r24, r22
     a9c:	86 1b       	sub	r24, r22
	sbc	r25, r23
     a9e:	97 0b       	sbc	r25, r23
	ret			; return v1-v2
     aa0:	08 95       	ret

00000aa2 <no_pl>:
no_pl:
	ldi	r24, 0
     aa2:	80 e0       	ldi	r24, 0x00	; 0
	ldi	r25, 0
     aa4:	90 e0       	ldi	r25, 0x00	; 0
	ret	;
     aa6:	08 95       	ret

00000aa8 <wait_for_key_ms>:
/* wait max_time or previous key press */
/* return value: !=0 == key is pressed for x*10ms, 0 == no key pressed, time has expired */
/* Additionally the movement of rotary encoder is monitored, if */
/* the constant WITH_ROTARY_SWITCH is defined.                  */
/* *********************************************************** */
uint8_t wait_for_key_ms(int max_time) {
     aa8:	ef 92       	push	r14
     aaa:	ff 92       	push	r15
     aac:	0f 93       	push	r16
     aae:	1f 93       	push	r17
     ab0:	cf 93       	push	r28
     ab2:	df 93       	push	r29
     ab4:	f8 2e       	mov	r15, r24
     ab6:	e9 2e       	mov	r14, r25
     ab8:	c5 e6       	ldi	r28, 0x65	; 101
        if ((RST_PIN_REG & (1<<RST_PIN)) != 0)  break; // key is released
        WaitRotary();		// wait the predefined time
     }
     if (ww < WWend) break;
#else
     if ((RST_PIN_REG & (1<<RST_PIN)) != 0)  break; // key is released
     aba:	4f 9b       	sbis	0x09, 7	; 9
     abc:	05 c0       	rjmp	.+10     	; 0xac8 <wait_for_key_ms+0x20>
     }
     wdt_reset();
//     wait_time++;
     if (count_time > 0) {		// count only, if counter > 0
        count_time -= 10;		// 10 ms are done, count down
        if (count_time == 0) count_time = -1;	// never count to zero, zero is endless!
     abe:	cf 2d       	mov	r28, r15
     ac0:	de 2d       	mov	r29, r14
     ac2:	05 e5       	ldi	r16, 0x55	; 85
     ac4:	10 e0       	ldi	r17, 0x00	; 0
     ac6:	19 c0       	rjmp	.+50     	; 0xafa <wait_for_key_ms+0x52>
        WaitRotary();		// wait the predefined time
     }
     if (ww < WWend) break;
#else
     if ((RST_PIN_REG & (1<<RST_PIN)) != 0)  break; // key is released
     wait_about5ms();		// wait 5 ms (sleep)
     ac8:	81 e0       	ldi	r24, 0x01	; 1
     aca:	44 df       	rcall	.-376    	; 0x954 <sleep_5ms>
     acc:	c1 50       	subi	r28, 0x01	; 1
     ace:	a9 f7       	brne	.-22     	; 0xaba <wait_for_key_ms+0x12>
  rotary.state[(rotary.ind+ROT_MSK-2)&ROT_MSK] = ' ' - '0';  // for debugging
 #endif
#endif

  kk = 100;
  while (kk >= 0)  { /* wait up to 500ms until key is released */
     ad0:	f6 cf       	rjmp	.-20     	; 0xabe <wait_for_key_ms+0x16>
     ad2:	82 e0       	ldi	r24, 0x02	; 2
     for (ww=0; ww < (WWend*2) ;ww++) {
        check_rotary();		// check for change of switch state of the rotary encoder
        WaitRotary();		// wait the predefined time, total 10ms
     }
#else
     wait_about10ms();
     ad4:	3f df       	rcall	.-386    	; 0x954 <sleep_5ms>
     ad6:	00 0f       	add	r16, r16
     ad8:	4f 9b       	sbis	0x09, 7	; 9
#endif
     key_pressed += key_pressed;	// multiply with 2 is shift to left
     ada:	0f 5f       	subi	r16, 0xFF	; 255
     if ((RST_PIN_REG & (1<<RST_PIN)) == 0) key_pressed++; // append a 1
     adc:	0f 73       	andi	r16, 0x3F	; 63
     ade:	0f 33       	cpi	r16, 0x3F	; 63
     key_pressed &= 0x3f;
     ae0:	79 f4       	brne	.+30     	; 0xb00 <wait_for_key_ms+0x58>
     if(key_pressed == 0x3f) {
     ae2:	11 11       	cpse	r17, r1
     ae4:	03 c0       	rjmp	.+6      	; 0xaec <wait_for_key_ms+0x44>
        // If the key is pressed again... 
        if (key_cs == 0) {
     ae6:	cf 2d       	mov	r28, r15
     ae8:	de 2d       	mov	r29, r14
           // first time, when key down is detected
           key_cs = 4;	// must be 7 times for 10ms hold down
           count_time = max_time;	// begin new time period
     aea:	14 e0       	ldi	r17, 0x04	; 4
     aec:	1f 5f       	subi	r17, 0xFF	; 255
     key_pressed &= 0x3f;
     if(key_pressed == 0x3f) {
        // If the key is pressed again... 
        if (key_cs == 0) {
           // first time, when key down is detected
           key_cs = 4;	// must be 7 times for 10ms hold down
     aee:	18 3c       	cpi	r17, 0xC8	; 200
           count_time = max_time;	// begin new time period
        }
        key_cs++;			// count the time, the key is hold down
     af0:	90 f4       	brcc	.+36     	; 0xb16 <wait_for_key_ms+0x6e>
        if (key_cs >= MAX_CS) break;
     af2:	a8 95       	wdr
     af4:	1c 16       	cp	r1, r28
     } else {
        // key_pressed is zero, if the key is not pressed for 80 ms
        if ((key_pressed == 0) && (key_cs != 0)) break;	// return, if key is released again
     }
     wdt_reset();
     af6:	1d 06       	cpc	r1, r29
//     wait_time++;
     if (count_time > 0) {		// count only, if counter > 0
     af8:	44 f0       	brlt	.+16     	; 0xb0a <wait_for_key_ms+0x62>
     afa:	d7 ff       	sbrs	r29, 7
     afc:	ea cf       	rjmp	.-44     	; 0xad2 <wait_for_key_ms+0x2a>
  key_pressed = 0x55;
  count_time = max_time;
#ifdef WITH_ROTARY_SWITCH
  wait_time = 0;
#endif
  while (count_time >= 0) {
     afe:	0b c0       	rjmp	.+22     	; 0xb16 <wait_for_key_ms+0x6e>
     b00:	01 11       	cpse	r16, r1
     b02:	f7 cf       	rjmp	.-18     	; 0xaf2 <wait_for_key_ms+0x4a>
        }
        key_cs++;			// count the time, the key is hold down
        if (key_cs >= MAX_CS) break;
     } else {
        // key_pressed is zero, if the key is not pressed for 80 ms
        if ((key_pressed == 0) && (key_cs != 0)) break;	// return, if key is released again
     b04:	11 23       	and	r17, r17
     b06:	a9 f3       	breq	.-22     	; 0xaf2 <wait_for_key_ms+0x4a>
     b08:	06 c0       	rjmp	.+12     	; 0xb16 <wait_for_key_ms+0x6e>
     b0a:	2a 97       	sbiw	r28, 0x0a	; 10
     b0c:	20 97       	sbiw	r28, 0x00	; 0
     }
     wdt_reset();
//     wait_time++;
     if (count_time > 0) {		// count only, if counter > 0
        count_time -= 10;		// 10 ms are done, count down
     b0e:	a9 f7       	brne	.-22     	; 0xafa <wait_for_key_ms+0x52>
        if (count_time == 0) count_time = -1;	// never count to zero, zero is endless!
     b10:	cf ef       	ldi	r28, 0xFF	; 255
     b12:	df ef       	ldi	r29, 0xFF	; 255
     b14:	f2 cf       	rjmp	.-28     	; 0xafa <wait_for_key_ms+0x52>
     b16:	81 2f       	mov	r24, r17
     b18:	cd b7       	in	r28, 0x3d	; 61
     if ((wait_time > 20) && (rotary.count != 0)) break;
     if (wait_time > 20) wait_time = 0;		// reset time window
#endif
  } /* end while (count_time >= 0) */
 return(key_cs);		// return period key is pressed within the specified time
}  /* end wait_for_key_5ms(  ) */
     b1a:	de b7       	in	r29, 0x3e	; 62
     b1c:	e6 e0       	ldi	r30, 0x06	; 6
     b1e:	0c 94 f8 31 	jmp	0x63f0	; 0x63f0 <__epilogue_restores__+0x18>

00000b22 <wait_for_key_5s_line2>:
     b22:	cf 93       	push	r28
     b24:	bd db       	rcall	.-2182   	; 0x2a0 <lcd_save_position>
#ifdef WAIT_LINE2_CLEAR
/* *********************************************************** */
/* wait 5 seconds or previous key press, then clear last line  of LCD and */
/* set the cursor to the beginning of last line */
/* *********************************************************** */
void wait_for_key_5s_line2(void) {
     b26:	c8 2f       	mov	r28, r24
  uint8_t current_line;
  current_line = lcd_save_position();
     b28:	80 91 3e 01 	lds	r24, 0x013E
     b2c:	88 23       	and	r24, r24
  if (last_line_used != 0) {
     b2e:	c1 f0       	breq	.+48     	; 0xb60 <wait_for_key_5s_line2+0x3e>
     b30:	81 30       	cpi	r24, 0x01	; 1
     b32:	49 f4       	brne	.+18     	; 0xb46 <wait_for_key_5s_line2+0x24>
     b34:	c1 30       	cpi	r28, 0x01	; 1
  if ((last_line_used == 1) && (current_line == (LCD_LINES-1))) {
     b36:	39 f4       	brne	.+14     	; 0xb46 <wait_for_key_5s_line2+0x24>
     b38:	6f e0       	ldi	r22, 0x0F	; 15
     b3a:	04 dc       	rcall	.-2040   	; 0x344 <lcd_set_cursor>
     b3c:	8b e2       	ldi	r24, 0x2B	; 43
     // add a + sign at the last location of screen
     lcd_set_cursor(((LCD_LINES - 1) * PAGES_PER_LINE), (LCD_LINE_LENGTH - 1));
     b3e:	b9 db       	rcall	.-2190   	; 0x2b2 <lcd_data>
     b40:	6f e0       	ldi	r22, 0x0F	; 15
     b42:	81 e0       	ldi	r24, 0x01	; 1
     lcd_data('+');
     b44:	ff db       	rcall	.-2050   	; 0x344 <lcd_set_cursor>
     b46:	80 e4       	ldi	r24, 0x40	; 64
     b48:	9f e1       	ldi	r25, 0x1F	; 31
     lcd_set_cursor(((LCD_LINES - 1) * PAGES_PER_LINE), (LCD_LINE_LENGTH - 1));
     b4a:	ae df       	rcall	.-164    	; 0xaa8 <wait_for_key_ms>
     b4c:	c1 30       	cpi	r28, 0x01	; 1
     b4e:	39 f4       	brne	.+14     	; 0xb5e <wait_for_key_5s_line2+0x3c>
     b50:	80 91 3e 01 	lds	r24, 0x013E
  do {
     if (wait_for_key_ms(SHORT_WAIT_TIME) > 0) break;
     // continue waiting, if the key is not pressed, but rotary switch is rotated
  } while (rotary.incre > 0);
 #else
  wait_for_key_ms(SHORT_WAIT_TIME);	// wait until time is elapsed or key is pressed
     b54:	81 30       	cpi	r24, 0x01	; 1
     b56:	19 f4       	brne	.+6      	; 0xb5e <wait_for_key_5s_line2+0x3c>
     b58:	60 e0       	ldi	r22, 0x00	; 0
 #endif
  if ((current_line == (LCD_LINES - 1)) && (last_line_used == 1)) {
     b5a:	f4 db       	rcall	.-2072   	; 0x344 <lcd_set_cursor>
     b5c:	9f dc       	rcall	.-1730   	; 0x49c <lcd_clear_line>
     b5e:	fc db       	rcall	.-2056   	; 0x358 <lcd_restore_position>
     b60:	cf 91       	pop	r28
     b62:	08 95       	ret

00000b64 <RefVoltage>:
 

RefVoltage:

#ifdef AUTO_CAL
 	ldi	r24, lo8(ref_offset)	; 1
     b64:	8f e3       	ldi	r24, 0x3F	; 63
 	ldi	r25, hi8(ref_offset)	; 0
     b66:	93 e0       	ldi	r25, 0x03	; 3
;; 	ACALL	eeprom_read_word	; eeprom_read_word((uint16_t *)(&ref_offset));
;; 	lds	r18, ref_mv
;; 	lds	r19, ref_mv+1
;; 	add	r18, r24		; referenz =  ref_mv +
;; 	adc	r19, r25
	ACALL	eeprom_read_byte	; eeprom_read_word((uint16_t *)(&ref_offset)); done as two read_byte
     b68:	0e 94 4b 32 	call	0x6496	; 0x6496 <__eerd_byte_m328p>
	mov	r19, r24
     b6c:	38 2f       	mov	r19, r24
	ldi	r24, lo8(ref_offset+1)
     b6e:	80 e4       	ldi	r24, 0x40	; 64
	ldi	r25, hi8(ref_offset+1)
     b70:	93 e0       	ldi	r25, 0x03	; 3
	ACALL	eeprom_read_byte
     b72:	0e 94 4b 32 	call	0x6496	; 0x6496 <__eerd_byte_m328p>
 	lds	r18, ref_mv
     b76:	20 91 33 01 	lds	r18, 0x0133
	add	r18, r19
     b7a:	23 0f       	add	r18, r19
 	lds	r19, ref_mv+1
     b7c:	30 91 34 01 	lds	r19, 0x0134
	adc	r19, r24
     b80:	38 1f       	adc	r19, r24
	lds	r18, ref_mv
	lds	r19, ref_mv+1
	subi	r18, -REF_C_KORR		; referenz = ref_mv + REF_C_KORR;
	adc	r19, zero_reg
#endif
        sts	ref_mv_offs, r18
     b82:	20 93 16 01 	sts	0x0116, r18
        sts	ref_mv_offs+1, r19
     b86:	30 93 17 01 	sts	0x0117, r19

#ifdef AUTO_RH 
 	ldi	r24, hi8(Ref_Tab_Beginn)	; 3
     b8a:	83 e0       	ldi	r24, 0x03	; 3
 	cpi	r18, lo8(Ref_Tab_Beginn)	; 232
     b8c:	28 3e       	cpi	r18, 0xE8	; 232
 	cpc	r19, r24
     b8e:	38 07       	cpc	r19, r24
 	brcs	ad210e 				; if (referenz >= Ref_Tab_Beginn) 
     b90:	20 f0       	brcs	.+8      	; 0xb9a <ad210e>
 	movw	r24, r18
     b92:	c9 01       	movw	r24, r18
 	subi	r24, lo8(Ref_Tab_Beginn)	; 232 referenz -= Ref_Tab_Beginn;
     b94:	88 5e       	subi	r24, 0xE8	; 232
 	sbci	r25, hi8(Ref_Tab_Beginn)	; 3
     b96:	93 40       	sbci	r25, 0x03	; 3
 	rjmp	ad2112 
     b98:	02 c0       	rjmp	.+4      	; 0xb9e <ad2112>

00000b9a <ad210e>:
ad210e:
 	ldi	r24, 0x00	; referenz = 0;		// limit to begin of table
     b9a:	80 e0       	ldi	r24, 0x00	; 0
 	ldi	r25, 0x00	; 0
     b9c:	90 e0       	ldi	r25, 0x00	; 0

00000b9e <ad2112>:
ad2112:
 	ldi	r22, lo8(Ref_Tab_Abstand)	; 50 tabind = referenz / Ref_Tab_Abstand;
     b9e:	62 e3       	ldi	r22, 0x32	; 50
 	ldi	r23, hi8(Ref_Tab_Abstand)	; 0
     ba0:	70 e0       	ldi	r23, 0x00	; 0
 	ACALL	__udivmodhi4
     ba2:	0e 94 46 31 	call	0x628c	; 0x628c <__udivmodhi4>
;  r22 = tabind = referenz / Ref_Tab_Abstand;
;  r24 =  tabres = referenz % Ref_Tab_Abstand;
 	cpi	r22, 0x08	; if (tabind > 7) 
     ba6:	68 30       	cpi	r22, 0x08	; 8
 	brcs	ad2120 
     ba8:	08 f0       	brcs	.+2      	; 0xbac <ad2120>
 	ldi	r22, 0x07	; tabind = 7;		// limit to end of table
     baa:	67 e0       	ldi	r22, 0x07	; 7

00000bac <ad2120>:
ad2120:
; // interpolate the table of factors

	LDIZ	RHtab
     bac:	e6 ea       	ldi	r30, 0xA6	; 166
     bae:	f1 e0       	ldi	r31, 0x01	; 1
	add	r30, r22
     bb0:	e6 0f       	add	r30, r22
	adc	r31, zero_reg
     bb2:	f1 1d       	adc	r31, r1
	add	r30, r22
     bb4:	e6 0f       	add	r30, r22
	adc	r31, zero_reg
     bb6:	f1 1d       	adc	r31, r1

 	lpm	r20, Z+		; y1 = pgm_read_word(&RHtab[tabind]);
     bb8:	45 91       	lpm	r20, Z+
 	lpm	r21, Z+
     bba:	55 91       	lpm	r21, Z+
 	lpm	r18, Z+		; y2 = pgm_read_word(&RHtab[tabind+1]);
     bbc:	25 91       	lpm	r18, Z+
 	lpm	r19, Z+
     bbe:	35 91       	lpm	r19, Z+
 	ldi	r22, Ref_Tab_Abstand	; 50
     bc0:	62 e3       	ldi	r22, 0x32	; 50
 	sub	r22, r24		; tabres = Ref_Tab_Abstand-tabres;
     bc2:	68 1b       	sub	r22, r24
;  // interpolate the table of factors
;  // RHmultip is the interpolated factor to compute capacity from load time with 470k
;; 	ldi	r23, 0x00	; 0
 	sub	r20, r18	; y1 - y2
     bc4:	42 1b       	sub	r20, r18
 #if FLASHEND > 0x1fff
	sbc	r21, r19	; hi8(y1 - y2) is usually allway zero
     bc6:	53 0b       	sbc	r21, r19
 #endif
 	mul	r22, r20	; lo8(tabres) * lo8(y1-y2)
     bc8:	64 9f       	mul	r22, r20
 	movw	r24, r0		; r24:25 = *
     bca:	c0 01       	movw	r24, r0
 #if FLASHEND > 0x1fff
 	mul	r22, r21	; lo8(tabres) * hi8(y1-y2)
     bcc:	65 9f       	mul	r22, r21
 	add	r25, r0		; r25 + lo8(*)
     bce:	90 0d       	add	r25, r0
 #endif
;; 	mul	r23, r20	; hi8(tabres) * lo8(y1*y2) , allways zero
;; 	add	r25, r0		; r25 + lo8(*)

 	eor	r1, r1
     bd0:	11 24       	eor	r1, r1
 	adiw	r24, (Ref_Tab_Abstand/2)	; 25
     bd2:	49 96       	adiw	r24, 0x19	; 25
 	ldi	r22, lo8(Ref_Tab_Abstand)	; 50
     bd4:	62 e3       	ldi	r22, 0x32	; 50
 	ldi	r23, hi8(Ref_Tab_Abstand)	; 0
     bd6:	70 e0       	ldi	r23, 0x00	; 0
 	ACALL	__udivmodhi4	; ((y1 - y2) * tabres + (Ref_Tab_Abstand/2)) / Ref_Tab_Abstand 
     bd8:	0e 94 46 31 	call	0x628c	; 0x628c <__udivmodhi4>
 	add	r22, r18	; + y2
     bdc:	62 0f       	add	r22, r18
 	adc	r23, r19
     bde:	73 1f       	adc	r23, r19
 	sts	RHmultip+1, r23
     be0:	70 93 72 01 	sts	0x0172, r23
 	sts	RHmultip, r22
     be4:	60 93 71 01 	sts	0x0171, r22
	ldi	r23, hi8(DEFAULT_RH_FAKT)
 	sts	RHmultip, r22
 	sts	RHmultip+1, r23
#endif 
#ifdef AUTO_CAL
	ldi	r24, lo8(RefDiff)
     be8:	81 e4       	ldi	r24, 0x41	; 65
	ldi	r25, hi8(RefDiff)
     bea:	93 e0       	ldi	r25, 0x03	; 3
	ACALL	eeprom_read_byte	; (int8_t)eeprom_read_byte((uint8_t *)&RefDiff));
     bec:	0e 94 4b 32 	call	0x6496	; 0x6496 <__eerd_byte_m328p>
	eor	r25, r25		; set zero for sign extend
     bf0:	99 27       	eor	r25, r25
        sbrc	r24, 7			; minus?
     bf2:	87 fd       	sbrc	r24, 7
	com	r25			; yes, set to 0xff
     bf4:	90 95       	com	r25
        lds	r22, ref_mv		; ADCconfig.U_Bandgap = (ref_mv + (int8_t)eeprom_read_byte((uint8_t *)&RefDiff));
     bf6:	60 91 33 01 	lds	r22, 0x0133
        lds	r23, ref_mv+1
     bfa:	70 91 34 01 	lds	r23, 0x0134
	add	r24, r22
     bfe:	86 0f       	add	r24, r22
	adc	r25, r23
     c00:	97 1f       	adc	r25, r23
        lds	r25, ref_mv+1
	add	r24, r22
        adc	r25, r23
#endif
#define U_Bandgap 2
        sts	ADCconfig+U_Bandgap+1, r25
     c02:	90 93 2e 01 	sts	0x012E, r25
        sts	ADCconfig+U_Bandgap, r24
     c06:	80 93 2d 01 	sts	0x012D, r24
	sts	adc_internal_reference+1, r25		; adc_internal_reference = ADCconfig.U_Bandgap;
     c0a:	90 93 6e 01 	sts	0x016E, r25
	sts	adc_internal_reference, r24
     c0e:	80 93 6d 01 	sts	0x016D, r24


 	ret
     c12:	08 95       	ret

00000c14 <get_log>:
 .section .text

; // get_log interpolate a table with the function -1000*log(1 - (permil/1000))
; uint16_t get_log(uint16_t permil) {
get_log:
 	push	r28
     c14:	cf 93       	push	r28
 	push	r29
     c16:	df 93       	push	r29

 	ldi	r18, lo8(Log_Tab_Distance)	;0x14
     c18:	24 e1       	ldi	r18, 0x14	; 20
 	ldi	r19, hi8(Log_Tab_Distance)	;0x00	
     c1a:	30 e0       	ldi	r19, 0x00	; 0
 	movw	r22, r18
     c1c:	b9 01       	movw	r22, r18
 	call	__udivmodhi4		; tabind = permil / Log_Tab_Distance;	// index to table
     c1e:	0e 94 46 31 	call	0x628c	; 0x628c <__udivmodhi4>
 	movw	r26, r24
     c22:	dc 01       	movw	r26, r24
;  r26:27 = tabres = permil % Log_Tab_Distance;	// fraction of table distance
;  // interpolate the table of factors
;  y1 = pgm_read_word(&LogTab[tabind]);	// get the lower table value
	LDIZ	LogTab;
     c24:	e8 eb       	ldi	r30, 0xB8	; 184
     c26:	f1 e0       	ldi	r31, 0x01	; 1
        add	r30, r22
     c28:	e6 0f       	add	r30, r22
        adc	r31, r23
     c2a:	f7 1f       	adc	r31, r23
        add	r30, r22
     c2c:	e6 0f       	add	r30, r22
	adc	r31, r23	; &LogTab[tabind]
     c2e:	f7 1f       	adc	r31, r23
 	lpm	r28, Z+		; y1 = pgm_read_word(&LogTab[tabind]);	// get the lower table value
     c30:	c5 91       	lpm	r28, Z+
 	lpm	r29, Z+
     c32:	d5 91       	lpm	r29, Z+
 	lpm	r20, Z+		; y2 = pgm_read_word(&LogTab[tabind+1]); // get the higher table value
     c34:	45 91       	lpm	r20, Z+
 	lpm	r21, Z+
     c36:	55 91       	lpm	r21, Z+
;  result = ((y2 - y1) * tabres ) / Log_Tab_Distance + y1; // interpolate
 	sub	r20, r28	;  (y2 - y1) 
     c38:	4c 1b       	sub	r20, r28
	sbc	r21, r29	;  hi8(y2 - y1) 
     c3a:	5d 0b       	sbc	r21, r29
 	mul	r20, r26	; * tabres   (maximum 19)
     c3c:	4a 9f       	mul	r20, r26
 	movw	r24, r0		;  r24:25 =  ((y2 - y1) * tabres )
     c3e:	c0 01       	movw	r24, r0
	mul	r20, r27	; hi8(tabres) 
     c40:	4b 9f       	mul	r20, r27
	add	r25, r0
     c42:	90 0d       	add	r25, r0
	mul	r21, r26	; hi8(y2 - Y1) 
     c44:	5a 9f       	mul	r21, r26
	add	r25, r0
     c46:	90 0d       	add	r25, r0
 	eor	r1, r1
     c48:	11 24       	eor	r1, r1
 	movw	r22, r18	; Log_Tab_Distance
     c4a:	b9 01       	movw	r22, r18
 	call	__udivmodhi4	;   ((y2 - y1) * tabres ) / Log_Tab_Distance
     c4c:	0e 94 46 31 	call	0x628c	; 0x628c <__udivmodhi4>
 	add	r22, r28	;  result = ((y2 - y1) * tabres ) / Log_Tab_Distance + y1; // interpolate
     c50:	6c 0f       	add	r22, r28
 	adc	r23, r29
     c52:	7d 1f       	adc	r23, r29
 	movw	r24, r22	; return(result);
     c54:	cb 01       	movw	r24, r22
 	pop	r29
     c56:	df 91       	pop	r29
 	pop	r28
     c58:	cf 91       	pop	r28
 	ret
     c5a:	08 95       	ret

00000c5c <__vector_7>:
	#define MAIN_C
	#include "Transistortester.h"

	#ifndef INHIBIT_SLEEP_MODE
	  // prepare sleep mode
	  EMPTY_INTERRUPT(TIMER2_COMPA_vect);
     c5c:	18 95       	reti

00000c5e <__vector_21>:
	#endif
        #if !defined(INHIBIT_SLEEP_MODE) || defined(SamplingADC)
	  // ADC_vect is always required by samplingADC()
	  EMPTY_INTERRUPT(ADC_vect);
     c5e:	18 95       	reti

00000c60 <search_vak_diode>:
}   // end main


// function search_vak_diode try to find a diode, which has no side connected to the transistor base
// returns 20, if no diode found
uint8_t search_vak_diode() {
     c60:	cf 93       	push	r28
     c62:	df 93       	push	r29
    uint8_t ii;
    for (ii=0; ii<NumOfDiodes; ii++) {
     c64:	30 91 18 01 	lds	r19, 0x0118
			if ((diodes.Anode[ii] == _trans->b)
     c68:	a0 91 3c 01 	lds	r26, 0x013C
     c6c:	b0 91 3d 01 	lds	r27, 0x013D
     c70:	e9 e8       	ldi	r30, 0x89	; 137
     c72:	f1 e0       	ldi	r31, 0x01	; 1

// function search_vak_diode try to find a diode, which has no side connected to the transistor base
// returns 20, if no diode found
uint8_t search_vak_diode() {
    uint8_t ii;
    for (ii=0; ii<NumOfDiodes; ii++) {
     c74:	80 e0       	ldi	r24, 0x00	; 0
     c76:	90 e0       	ldi	r25, 0x00	; 0
     c78:	83 17       	cp	r24, r19
     c7a:	c0 f4       	brcc	.+48     	; 0xcac <search_vak_diode+0x4c>
			if ((diodes.Anode[ii] == _trans->b)
     c7c:	41 91       	ld	r20, Z+
     c7e:	1c 96       	adiw	r26, 0x0c	; 12
     c80:	2c 91       	ld	r18, X
     c82:	1c 97       	sbiw	r26, 0x0c	; 12
     c84:	42 17       	cp	r20, r18
     c86:	31 f0       	breq	.+12     	; 0xc94 <search_vak_diode+0x34>
     c88:	ec 01       	movw	r28, r24
     c8a:	c7 57       	subi	r28, 0x77	; 119
     c8c:	de 4f       	sbci	r29, 0xFE	; 254
					|| (diodes.Cathode[ii] == _trans->b))
     c8e:	4e 81       	ldd	r20, Y+6	; 0x06
     c90:	42 13       	cpse	r20, r18
     c92:	02 c0       	rjmp	.+4      	; 0xc98 <search_vak_diode+0x38>
     c94:	01 96       	adiw	r24, 0x01	; 1
     c96:	f0 cf       	rjmp	.-32     	; 0xc78 <search_vak_diode+0x18>
				continue;
       // no side of the diode is connected to the base, this must be the protection diode   
       if (diodes.Voltage[ii] > 1000) break; // Voltage is too high for protection diode
     c98:	fc 01       	movw	r30, r24
     c9a:	ee 0f       	add	r30, r30
     c9c:	ff 1f       	adc	r31, r31
     c9e:	eb 56       	subi	r30, 0x6B	; 107
     ca0:	fe 4f       	sbci	r31, 0xFE	; 254
     ca2:	20 81       	ld	r18, Z
     ca4:	31 81       	ldd	r19, Z+1	; 0x01
     ca6:	29 3e       	cpi	r18, 0xE9	; 233
     ca8:	33 40       	sbci	r19, 0x03	; 3
     caa:	08 f0       	brcs	.+2      	; 0xcae <search_vak_diode+0x4e>
       return ii;
    }
    return 20;
     cac:	84 e1       	ldi	r24, 0x14	; 20
}
     cae:	df 91       	pop	r29
     cb0:	cf 91       	pop	r28
     cb2:	08 95       	ret

00000cb4 <init_parts>:

/* init_parts initialize all parts to nothing found */
void init_parts(void) {
  PartFound = PART_NONE;	// no part found
     cb4:	10 92 1a 01 	sts	0x011A, r1
  NumOfDiodes = 0;		// Number of diodes = 0
     cb8:	10 92 18 01 	sts	0x0118, r1
  ptrans.count = 0;		// Number of found P type transistors
     cbc:	10 92 68 01 	sts	0x0168, r1
  ntrans.count = 0;		// Number of found N type transistors
     cc0:	10 92 4e 01 	sts	0x014E, r1
  PartMode = PART_MODE_NONE;
     cc4:	10 92 19 01 	sts	0x0119, r1
  WithReference = 0;		// no precision reference voltage
     cc8:	10 92 3a 01 	sts	0x013A, r1
  ResistorsFound = 0;		// no resistors found
     ccc:	10 92 6f 01 	sts	0x016F, r1
  ResistorChecked[0] = 0;
     cd0:	10 92 53 01 	sts	0x0153, r1
  ResistorChecked[1] = 0;
     cd4:	10 92 54 01 	sts	0x0154, r1
  ResistorChecked[2] = 0;
     cd8:	10 92 55 01 	sts	0x0155, r1
  cap.ca = TP1;
     cdc:	10 92 83 01 	sts	0x0183, r1
  cap.cb = TP3;
     ce0:	82 e0       	ldi	r24, 0x02	; 2
     ce2:	80 93 84 01 	sts	0x0184, r24
#if FLASHEND > 0x1fff
  inductor_lpre = 0;		// mark as zero
     ce6:	10 92 01 01 	sts	0x0101, r1
  cap.v_loss = 0;		// set Vloss to zero
     cea:	10 92 82 01 	sts	0x0182, r1
     cee:	10 92 81 01 	sts	0x0181, r1
#endif
  cap.cval_max = 0;		// set max to zero
     cf2:	10 92 77 01 	sts	0x0177, r1
     cf6:	10 92 78 01 	sts	0x0178, r1
     cfa:	10 92 79 01 	sts	0x0179, r1
     cfe:	10 92 7a 01 	sts	0x017A, r1
  cap.cpre_max = -15;	// set max to fF unit
     d02:	81 ef       	ldi	r24, 0xF1	; 241
     d04:	80 93 86 01 	sts	0x0186, r24
     d08:	08 95       	ret

00000d0a <switch_tester_off>:
  uart_newline();	// MAURO
 #endif
 #if ((LCD_ST_TYPE == 7565) || (LCD_ST_TYPE == 1306))
  lcd_powersave();			// set graphical display to power save mode
 #endif
  ON_PORT &= ~(1<<ON_PIN);		//switch off power
     d0a:	5e 98       	cbi	0x0b, 6	; 11
  wait2s();
     d0c:	01 de       	rcall	.-1022   	; 0x910 <wait2s>
     d0e:	80 e0       	ldi	r24, 0x00	; 0
  wait_for_key_ms(0); //never ending loop 
     d10:	90 e0       	ldi	r25, 0x00	; 0
     d12:	ca ce       	rjmp	.-620    	; 0xaa8 <wait_for_key_ms>
     d14:	08 95       	ret

00000d16 <ShortedProbes>:
     d16:	a1 e0       	ldi	r26, 0x01	; 1
     d18:	b0 e0       	ldi	r27, 0x00	; 0
 *  - 0 if not shorted
 *  - 1 if shorted
 */

uint8_t ShortedProbes(uint8_t Probe1, uint8_t Probe2)
{
     d1a:	e1 e9       	ldi	r30, 0x91	; 145
     d1c:	f6 e0       	ldi	r31, 0x06	; 6
     d1e:	0c 94 de 31 	jmp	0x63bc	; 0x63bc <__prologue_saves__+0x1c>
     d22:	17 b8       	out	0x07, r1	; 7
     d24:	18 b8       	out	0x08, r1	; 8
   *  Set up a voltage divider between the two probes:
   *  - Probe1: Rl pull-up
   *  - Probe2: Rl pull-down
   */

  ADC_DDR =  TXD_MSK;		// all-Pins to Input
     d26:	e8 2f       	mov	r30, r24
  ADC_PORT = TXD_VAL;		// all ADC-Ports to GND
     d28:	f0 e0       	ldi	r31, 0x00	; 0
  addr = &PinRLRHADCtab[Probe1];
     d2a:	e0 57       	subi	r30, 0x70	; 112
     d2c:	fe 4f       	sbci	r31, 0xFE	; 254
     d2e:	94 91       	lpm	r25, Z
     d30:	95 b9       	out	0x05, r25	; 5
  pp = pgm_read_byte(addr);
     d32:	26 2f       	mov	r18, r22
  R_PORT = pp;
     d34:	28 1b       	sub	r18, r24
  addr += (int8_t)(Probe2-Probe1);
     d36:	e2 0f       	add	r30, r18
     d38:	f1 1d       	adc	r31, r1
     d3a:	27 fd       	sbrc	r18, 7
     d3c:	fa 95       	dec	r31
     d3e:	e4 91       	lpm	r30, Z
     d40:	e9 2b       	or	r30, r25
  R_DDR =  pp | pgm_read_byte(addr);	// pgm_read_byte(PinRHtab[Probe1]) | pgm_read_byte(PinRLtab[Probe2]);
     d42:	e4 b9       	out	0x04, r30	; 4
     d44:	69 83       	std	Y+1, r22	; 0x01
     d46:	3e de       	rcall	.-900    	; 0x9c4 <ReadADC>

  /* read voltages */
  U1 = ReadADC(Probe1);
     d48:	8c 01       	movw	r16, r24
     d4a:	69 81       	ldd	r22, Y+1	; 0x01
     d4c:	86 2f       	mov	r24, r22
     d4e:	3a de       	rcall	.-908    	; 0x9c4 <ReadADC>
  U2 = ReadADC(Probe2);
     d50:	20 91 2f 01 	lds	r18, 0x012F
     d54:	30 91 30 01 	lds	r19, 0x0130
   */
 #ifndef MAX_UH_DIFF
  #define MAX_UH_DIFF 30
 #endif

  URH = ADCconfig.U_AVCC / 2;
     d58:	36 95       	lsr	r19
     d5a:	27 95       	ror	r18
     d5c:	a9 01       	movw	r20, r18
     d5e:	43 50       	subi	r20, 0x03	; 3
     d60:	51 09       	sbc	r21, r1
     d62:	b8 01       	movw	r22, r16
  URH -= ((long)U_VCC * (long)(PIN_RP-PIN_RM)) / (4*(unsigned long)(R_L_VAL+PIN_RM));			// differenz of Pin resistance high (22) and low (20)
     d64:	62 5e       	subi	r22, 0xE2	; 226
     d66:	7f 4f       	sbci	r23, 0xFF	; 255
     d68:	46 17       	cp	r20, r22
  if (((U1 + MAX_UH_DIFF) > URH ) && (U1 < (URH + MAX_UH_DIFF)))
     d6a:	57 07       	cpc	r21, r23
     d6c:	78 f4       	brcc	.+30     	; 0xd8c <ShortedProbes+0x76>
     d6e:	25 5e       	subi	r18, 0xE5	; 229
     d70:	3f 4f       	sbci	r19, 0xFF	; 255
     d72:	02 17       	cp	r16, r18
     d74:	13 07       	cpc	r17, r19
     d76:	50 f4       	brcc	.+20     	; 0xd8c <ShortedProbes+0x76>
     d78:	bc 01       	movw	r22, r24
     d7a:	62 5e       	subi	r22, 0xE2	; 226
     d7c:	7f 4f       	sbci	r23, 0xFF	; 255
     d7e:	46 17       	cp	r20, r22
  {
    if (((U2 + MAX_UH_DIFF) > URH) && (U2 < (URH + MAX_UH_DIFF)))
     d80:	57 07       	cpc	r21, r23
     d82:	20 f4       	brcc	.+8      	; 0xd8c <ShortedProbes+0x76>
     d84:	41 e0       	ldi	r20, 0x01	; 1
     d86:	82 17       	cp	r24, r18
     d88:	93 07       	cpc	r25, r19
     d8a:	08 f0       	brcs	.+2      	; 0xd8e <ShortedProbes+0x78>
     d8c:	40 e0       	ldi	r20, 0x00	; 0
     d8e:	14 b8       	out	0x04, r1	; 4
     d90:	84 2f       	mov	r24, r20
     d92:	21 96       	adiw	r28, 0x01	; 1
 *  - 1 if shorted
 */

uint8_t ShortedProbes(uint8_t Probe1, uint8_t Probe2)
{
  uint8_t           Flag1 = 0;      /* return value */
     d94:	e4 e0       	ldi	r30, 0x04	; 4
      Flag1 = 1;
    }
  }

  /* reset port */
  R_DDR = 0;
     d96:	0c 94 fa 31 	jmp	0x63f4	; 0x63f4 <__epilogue_restores__+0x1c>

00000d9a <AllProbesShorted>:

  return Flag1;
}
     d9a:	cf 93       	push	r28
     d9c:	61 e0       	ldi	r22, 0x01	; 1
     d9e:	80 e0       	ldi	r24, 0x00	; 0
     da0:	ba df       	rcall	.-140    	; 0xd16 <ShortedProbes>
 *  - 0 if no probes are short-circuited
 *  - number of probe pairs short-circuited (3 = all)
 */

uint8_t AllProbesShorted(void)
{
     da2:	c8 2f       	mov	r28, r24
  uint8_t           Flag2;      /* return value */

  /* check all possible combinations */
  Flag2 = ShortedProbes(TP1, TP2);
     da4:	62 e0       	ldi	r22, 0x02	; 2
     da6:	80 e0       	ldi	r24, 0x00	; 0
     da8:	b6 df       	rcall	.-148    	; 0xd16 <ShortedProbes>
     daa:	c8 0f       	add	r28, r24
     dac:	62 e0       	ldi	r22, 0x02	; 2
  Flag2 += ShortedProbes(TP1, TP3);
     dae:	81 e0       	ldi	r24, 0x01	; 1
     db0:	b2 df       	rcall	.-156    	; 0xd16 <ShortedProbes>
     db2:	8c 0f       	add	r24, r28
     db4:	cf 91       	pop	r28
     db6:	08 95       	ret

00000db8 <AutoCheck>:
  Flag2 += ShortedProbes(TP2, TP3);
     db8:	a3 e1       	ldi	r26, 0x13	; 19
     dba:	b0 e0       	ldi	r27, 0x00	; 0
     dbc:	e2 ee       	ldi	r30, 0xE2	; 226
     dbe:	f6 e0       	ldi	r31, 0x06	; 6

  return Flag2;
}
     dc0:	0c 94 d0 31 	jmp	0x63a0	; 0x63a0 <__prologue_saves__>
     dc4:	b8 2e       	mov	r11, r24
// Selftest of the device and calibration 
#ifdef WITH_SELFTEST
void AutoCheck(uint8_t test_mode) {
     dc6:	10 92 1a 01 	sts	0x011A, r1
     dca:	80 7f       	andi	r24, 0xF0	; 240
     dcc:	a9 f4       	brne	.+42     	; 0xdf8 <AutoCheck+0x40>
     dce:	e5 df       	rcall	.-54     	; 0xd9a <AllProbesShorted>
     dd0:	83 30       	cpi	r24, 0x03	; 3
     dd2:	09 f0       	breq	.+2      	; 0xdd6 <AutoCheck+0x1e>
  #ifdef AUTOSCALE_ADC
int8_t udiff;		// difference between ADC Voltage with VCC or Bandgap reference
int8_t udiff2;
  #endif
 #endif
PartFound = PART_NONE;		// no part found before
     dd4:	b8 c3       	rjmp	.+1904   	; 0x1546 <AutoCheck+0x78e>
     dd6:	c6 da       	rcall	.-2676   	; 0x364 <lcd_clear>
if ((test_mode & 0xf0) == 0) {
     dd8:	8f e4       	ldi	r24, 0x4F	; 79
     dda:	92 e0       	ldi	r25, 0x02	; 2
  // probed should be shorted already to begin selftest
  if (AllProbesShorted() != 3) return;
     ddc:	e2 da       	rcall	.-2620   	; 0x3a2 <lcd_fix_string>
     dde:	9a da       	rcall	.-2764   	; 0x314 <lcd_line2>
     de0:	8f e3       	ldi	r24, 0x3F	; 63
     de2:	67 da       	rcall	.-2866   	; 0x2b2 <lcd_data>
     de4:	80 ed       	ldi	r24, 0xD0	; 208
  lcd_clear();
     de6:	97 e0       	ldi	r25, 0x07	; 7
     de8:	5f de       	rcall	.-834    	; 0xaa8 <wait_for_key_ms>
  lcd_MEM_string(SELFTEST);		// "Selftest mode.."
     dea:	8b 30       	cpi	r24, 0x0B	; 11
     dec:	c0 f4       	brcc	.+48     	; 0xe1e <AutoCheck+0x66>
     dee:	ba da       	rcall	.-2700   	; 0x364 <lcd_clear>
     df0:	83 e1       	ldi	r24, 0x13	; 19
  lcd_line2();
     df2:	91 e0       	ldi	r25, 0x01	; 1
     df4:	d6 da       	rcall	.-2644   	; 0x3a2 <lcd_fix_string>
  lcd_data('?');			// wait for key pressed for confirmation
     df6:	a7 c3       	rjmp	.+1870   	; 0x1546 <AutoCheck+0x78e>
     df8:	06 e9       	ldi	r16, 0x96	; 150
     dfa:	10 e0       	ldi	r17, 0x00	; 0
  if (wait_for_key_ms(2000) > 10) goto begin_selftest;	// key is pressed again
     dfc:	b3 da       	rcall	.-2714   	; 0x364 <lcd_clear>
     dfe:	8e eb       	ldi	r24, 0xBE	; 190
     e00:	91 e0       	ldi	r25, 0x01	; 1
     e02:	cf da       	rcall	.-2658   	; 0x3a2 <lcd_fix_string>
     e04:	ca df       	rcall	.-108    	; 0xd9a <AllProbesShorted>
     e06:	83 30       	cpi	r24, 0x03	; 3
  if (tt < 150) goto begin_selftest;		// is shorted before time limit
  goto no_zero_resistance;			// skip measuring of the zero resistance
 #endif
}
// no key pressed for 2s
lcd_clear();
     e08:	21 f4       	brne	.+8      	; 0xe12 <AutoCheck+0x5a>
     e0a:	1f 5f       	subi	r17, 0xFF	; 255
lcd_MEM_string(VERSION_str);	//"Version ..."
     e0c:	14 30       	cpi	r17, 0x04	; 4
     e0e:	10 f0       	brcs	.+4      	; 0xe14 <AutoCheck+0x5c>
     e10:	06 c0       	rjmp	.+12     	; 0xe1e <AutoCheck+0x66>
     e12:	10 e0       	ldi	r17, 0x00	; 0
return;
     e14:	88 e2       	ldi	r24, 0x28	; 40
int8_t udiff;		// difference between ADC Voltage with VCC or Bandgap reference
int8_t udiff2;
  #endif
 #endif
PartFound = PART_NONE;		// no part found before
if ((test_mode & 0xf0) == 0) {
     e16:	9e dd       	rcall	.-1220   	; 0x954 <sleep_5ms>
     e18:	01 50       	subi	r16, 0x01	; 1
 #ifdef WITH_MENU
} else {
  // report to user, that probes should be shorted
  ww = 0;
  for (tt=0;tt<150;tt++) {	/* wait about 30 seconds for shorted probes */
    lcd_clear();
     e1a:	81 f7       	brne	.-32     	; 0xdfc <AutoCheck+0x44>
     e1c:	63 c0       	rjmp	.+198    	; 0xee4 <AutoCheck+0x12c>
    lcd_MEM2_string(SHORT_PROBES_str);	// message "Short probes!" to LCD
     e1e:	7a da       	rcall	.-2828   	; 0x314 <lcd_line2>
     e20:	0e 94 95 18 	call	0x312a	; 0x312a <Calibrate_UR>
     e24:	8f ec       	ldi	r24, 0xCF	; 207
    if (AllProbesShorted() == 3) {
     e26:	90 e0       	ldi	r25, 0x00	; 0
     e28:	bc da       	rcall	.-2696   	; 0x3a2 <lcd_fix_string>
     e2a:	60 e0       	ldi	r22, 0x00	; 0
     e2c:	89 e1       	ldi	r24, 0x19	; 25
       ww++;	// all probes now shorted
     e2e:	93 e0       	ldi	r25, 0x03	; 3
    } else {
       ww = 0;	// connection not stable, retry
    }
    if (ww > 3) break;	// connection seems to be stable
     e30:	0e 94 58 32 	call	0x64b0	; 0x64b0 <__eewr_byte_m328p>
     e34:	60 e0       	ldi	r22, 0x00	; 0
    lcd_clear();
    lcd_MEM2_string(SHORT_PROBES_str);	// message "Short probes!" to LCD
    if (AllProbesShorted() == 3) {
       ww++;	// all probes now shorted
    } else {
       ww = 0;	// connection not stable, retry
     e36:	8a e1       	ldi	r24, 0x1A	; 26
    }
    if (ww > 3) break;	// connection seems to be stable
    lcd_refresh();		// write the pixels to display, ST7920 only
    wait_about200ms();			// wait 200ms and try again
     e38:	93 e0       	ldi	r25, 0x03	; 3
     e3a:	0e 94 58 32 	call	0x64b0	; 0x64b0 <__eewr_byte_m328p>
     e3e:	60 e0       	ldi	r22, 0x00	; 0
  if (wait_for_key_ms(2000) > 10) goto begin_selftest;	// key is pressed again
 #ifdef WITH_MENU
} else {
  // report to user, that probes should be shorted
  ww = 0;
  for (tt=0;tt<150;tt++) {	/* wait about 30 seconds for shorted probes */
     e40:	88 e1       	ldi	r24, 0x18	; 24
     e42:	93 e0       	ldi	r25, 0x03	; 3
lcd_clear();
lcd_MEM_string(VERSION_str);	//"Version ..."
return;

begin_selftest:
lcd_line2();
     e44:	0e 94 58 32 	call	0x64b0	; 0x64b0 <__eewr_byte_m328p>
Calibrate_UR();		// get Reference voltage, Pin resistance
     e48:	60 e0       	ldi	r22, 0x00	; 0
     e4a:	82 e0       	ldi	r24, 0x02	; 2
lcd_MEM2_string(R0_str);		// "R0="
     e4c:	0e 94 9c 1d 	call	0x3b38	; 0x3b38 <GetESR>
     e50:	6c 01       	movw	r12, r24
     e52:	9a 83       	std	Y+2, r25	; 0x02
eeprom_write_byte((uint8_t *)(&EE_ESR_ZEROtab[2]), (uint8_t)0);	// clear zero offset
     e54:	89 83       	std	Y+1, r24	; 0x01
     e56:	61 e0       	ldi	r22, 0x01	; 1
     e58:	82 e0       	ldi	r24, 0x02	; 2
     e5a:	0e 94 9c 1d 	call	0x3b38	; 0x3b38 <GetESR>
eeprom_write_byte((uint8_t *)(&EE_ESR_ZEROtab[3]), (uint8_t)0);	// clear zero offset
     e5e:	7c 01       	movw	r14, r24
     e60:	9c 83       	std	Y+4, r25	; 0x04
     e62:	8b 83       	std	Y+3, r24	; 0x03
     e64:	60 e0       	ldi	r22, 0x00	; 0
     e66:	81 e0       	ldi	r24, 0x01	; 1
eeprom_write_byte((uint8_t *)(&EE_ESR_ZEROtab[1]), (uint8_t)0);	// clear zero offset
     e68:	0e 94 9c 1d 	call	0x3b38	; 0x3b38 <GetESR>
     e6c:	8c 01       	movw	r16, r24
     e6e:	9e 83       	std	Y+6, r25	; 0x06
     e70:	8d 83       	std	Y+5, r24	; 0x05

adcmv[0] = GetESR(TP3, TP1);
     e72:	23 e0       	ldi	r18, 0x03	; 3
     e74:	40 e2       	ldi	r20, 0x20	; 32
     e76:	6e ef       	ldi	r22, 0xFE	; 254
     e78:	c6 01       	movw	r24, r12
     e7a:	27 dd       	rcall	.-1458   	; 0x8ca <DisplayValue16>
     e7c:	23 e0       	ldi	r18, 0x03	; 3
     e7e:	40 e2       	ldi	r20, 0x20	; 32
adcmv[1] = GetESR(TP3, TP2);
     e80:	6e ef       	ldi	r22, 0xFE	; 254
     e82:	c7 01       	movw	r24, r14
     e84:	22 dd       	rcall	.-1468   	; 0x8ca <DisplayValue16>
     e86:	23 e0       	ldi	r18, 0x03	; 3
     e88:	44 e0       	ldi	r20, 0x04	; 4
     e8a:	6e ef       	ldi	r22, 0xFE	; 254
     e8c:	c8 01       	movw	r24, r16
adcmv[2] = GetESR(TP2, TP1);
     e8e:	1d dd       	rcall	.-1478   	; 0x8ca <DisplayValue16>
     e90:	2a e5       	ldi	r18, 0x5A	; 90
     e92:	c2 16       	cp	r12, r18
     e94:	d1 04       	cpc	r13, r1
     e96:	24 f0       	brlt	.+8      	; 0xea0 <AutoCheck+0xe8>
     e98:	24 e1       	ldi	r18, 0x14	; 20
     e9a:	30 e0       	ldi	r19, 0x00	; 0
DisplayValue16(adcmv[0],-2,' ',3);
     e9c:	3a 83       	std	Y+2, r19	; 0x02
     e9e:	29 83       	std	Y+1, r18	; 0x01
     ea0:	69 81       	ldd	r22, Y+1	; 0x01
     ea2:	89 e1       	ldi	r24, 0x19	; 25
     ea4:	93 e0       	ldi	r25, 0x03	; 3
     ea6:	0e 94 58 32 	call	0x64b0	; 0x64b0 <__eewr_byte_m328p>
DisplayValue16(adcmv[1],-2,' ',3);
     eaa:	8a e5       	ldi	r24, 0x5A	; 90
     eac:	e8 16       	cp	r14, r24
     eae:	f1 04       	cpc	r15, r1
     eb0:	24 f0       	brlt	.+8      	; 0xeba <AutoCheck+0x102>
     eb2:	24 e1       	ldi	r18, 0x14	; 20
DisplayValue16(adcmv[2],-2,LCD_CHAR_OMEGA,3);
     eb4:	30 e0       	ldi	r19, 0x00	; 0
     eb6:	3c 83       	std	Y+4, r19	; 0x04
     eb8:	2b 83       	std	Y+3, r18	; 0x03
     eba:	6b 81       	ldd	r22, Y+3	; 0x03
     ebc:	8a e1       	ldi	r24, 0x1A	; 26
     ebe:	93 e0       	ldi	r25, 0x03	; 3
if (adcmv[0] >= 90) {
     ec0:	0e 94 58 32 	call	0x64b0	; 0x64b0 <__eewr_byte_m328p>
     ec4:	0a 35       	cpi	r16, 0x5A	; 90
     ec6:	11 05       	cpc	r17, r1
  adcmv[0] = ESR_ZERO;	// set back to default value
     ec8:	24 f0       	brlt	.+8      	; 0xed2 <AutoCheck+0x11a>
     eca:	24 e1       	ldi	r18, 0x14	; 20
     ecc:	30 e0       	ldi	r19, 0x00	; 0
     ece:	3e 83       	std	Y+6, r19	; 0x06
}
eeprom_write_byte((uint8_t *)(&EE_ESR_ZEROtab[2]), (uint8_t)adcmv[0]);	// fix zero offset
     ed0:	2d 83       	std	Y+5, r18	; 0x05
     ed2:	6d 81       	ldd	r22, Y+5	; 0x05
     ed4:	88 e1       	ldi	r24, 0x18	; 24
     ed6:	93 e0       	ldi	r25, 0x03	; 3
     ed8:	0e 94 58 32 	call	0x64b0	; 0x64b0 <__eewr_byte_m328p>
if (adcmv[1] >= 90) {
     edc:	82 e0       	ldi	r24, 0x02	; 2
     ede:	80 93 3e 01 	sts	0x013E, r24
  adcmv[1] = ESR_ZERO;	// set back to default value
     ee2:	1f de       	rcall	.-962    	; 0xb22 <wait_for_key_5s_line2>
     ee4:	9b 2d       	mov	r25, r11
     ee6:	9f 70       	andi	r25, 0x0F	; 15
     ee8:	9f 87       	std	Y+15, r25	; 0x0f
}
eeprom_write_byte((uint8_t *)(&EE_ESR_ZEROtab[3]), (uint8_t)adcmv[1]);	// fix zero offset
     eea:	91 30       	cpi	r25, 0x01	; 1
     eec:	09 f0       	breq	.+2      	; 0xef0 <AutoCheck+0x138>
     eee:	4d c0       	rjmp	.+154    	; 0xf8a <AutoCheck+0x1d2>
     ef0:	01 e0       	ldi	r16, 0x01	; 1
     ef2:	10 e0       	ldi	r17, 0x00	; 0
if (adcmv[2] >= 90) {
     ef4:	58 eb       	ldi	r21, 0xB8	; 184
     ef6:	25 2e       	mov	r2, r21
     ef8:	52 ed       	ldi	r21, 0xD2	; 210
  adcmv[2] = ESR_ZERO;	// set back to default value
     efa:	35 2e       	mov	r3, r21
     efc:	57 e4       	ldi	r21, 0x47	; 71
     efe:	45 2e       	mov	r4, r21
     f00:	51 2c       	mov	r5, r1
}
eeprom_write_byte((uint8_t *)(&EE_ESR_ZEROtab[1]), (uint8_t)adcmv[2]);	// fix zero offset
     f02:	62 e0       	ldi	r22, 0x02	; 2
     f04:	a6 2e       	mov	r10, r22
     f06:	78 e0       	ldi	r23, 0x08	; 8
     f08:	97 2e       	mov	r9, r23
     f0a:	ec e0       	ldi	r30, 0x0C	; 12
last_line_used = 2;
     f0c:	6e 2e       	mov	r6, r30
     f0e:	f4 ec       	ldi	r31, 0xC4	; 196
     f10:	cf 2e       	mov	r12, r31
wait_for_key_5s_line2();		// wait up to 5 seconds and clear line 2
     f12:	f6 e3       	ldi	r31, 0x36	; 54
     f14:	df 2e       	mov	r13, r31
 #ifdef WITH_MENU
no_zero_resistance:
 #endif
 #ifdef EXTENDED_TESTS
#define TEST_COUNT 8
if((test_mode & 0x0f) == 1) {  /* full test requested */
     f16:	e1 2c       	mov	r14, r1
     f18:	f1 2c       	mov	r15, r1
     f1a:	39 c0       	rjmp	.+114    	; 0xf8e <AutoCheck+0x1d6>
     f1c:	83 94       	inc	r8
     f1e:	23 e0       	ldi	r18, 0x03	; 3
     f20:	28 15       	cp	r18, r8
     f22:	58 f1       	brcs	.+86     	; 0xf7a <AutoCheck+0x1c2>
     f24:	e8 da       	rcall	.-2608   	; 0x4f6 <lcd_clear_line2>
      R_PORT = 1<<PIN_RH3;
      adcmv[2] = W20msReadADC(TP3) - ADCconfig.U_AVCC;
      lcd_MEM_string(RH1H_str);	// "RH_Hi="
   }
   if (tt == 7) { // is the voltage of all R_H / R_L dividers correct?
      u680 = ((long)ADCconfig.U_AVCC * (PIN_RM + R_L_VAL) / (PIN_RM + R_L_VAL + (unsigned long)R_H_VAL*100));
     f26:	e3 da       	rcall	.-2618   	; 0x4ee <lcd_clear_line1>
     f28:	84 e5       	ldi	r24, 0x54	; 84
     f2a:	c3 d9       	rcall	.-3194   	; 0x2b2 <lcd_data>
     f2c:	c8 01       	movw	r24, r16
     f2e:	1f db       	rcall	.-2498   	; 0x56e <u2lcd>
     f30:	ce d9       	rcall	.-3172   	; 0x2ce <lcd_space>
     f32:	e1 e0       	ldi	r30, 0x01	; 1
      R_PORT = 1<<PIN_RH1;		//RH1 to VCC
     f34:	be 12       	cpse	r11, r30
     f36:	30 c0       	rjmp	.+96     	; 0xf98 <AutoCheck+0x1e0>
      R_DDR = (1<<PIN_RH1) | (1<<PIN_RL1);	//RH1 to +, RL1 to -
      adcmv[0] = W20msReadADC(TP1);
      adcmv[0] -= u680;
      R_PORT = 1<<PIN_RH2;		//RH2 to VCC
     f38:	82 e0       	ldi	r24, 0x02	; 2
     f3a:	91 e0       	ldi	r25, 0x01	; 1
      R_DDR = (1<<PIN_RH2) | (1<<PIN_RL2);	//RH2 to +, RL2 to -
     f3c:	32 da       	rcall	.-2972   	; 0x3a2 <lcd_fix_string>
     f3e:	64 e0       	ldi	r22, 0x04	; 4
      u2lcd(RHmultip);	//lcd_string(utoa(RHmultip, outval, 10));
      ADCconfig.Samples = R_ANZ_MESS;	// set number of ADC reads near to maximum
   }
				//############################################
   if (tt == 2) { // how equal are the RL resistors? 
      u680 = ((long)ADCconfig.U_AVCC * (PIN_RM + R_L_VAL) / (PIN_RM + R_L_VAL + R_L_VAL + PIN_RP));
     f40:	80 91 33 01 	lds	r24, 0x0133
     f44:	90 91 34 01 	lds	r25, 0x0134
     f48:	cb dc       	rcall	.-1642   	; 0x8e0 <Display_mV>
     f4a:	e4 d9       	rcall	.-3128   	; 0x314 <lcd_line2>
     f4c:	8d ef       	ldi	r24, 0xFD	; 253
 #ifdef EXTENDED_TESTS
#define TEST_COUNT 8
if((test_mode & 0x0f) == 1) {  /* full test requested */

for(tt=1;tt<TEST_COUNT;tt++) {		// loop for all Tests
for(ww=0;ww<MAX_REP;ww++) {	// repeat the test MAX_REP times
     f4e:	90 e0       	ldi	r25, 0x00	; 0
     f50:	28 da       	rcall	.-2992   	; 0x3a2 <lcd_fix_string>
     f52:	80 91 71 01 	lds	r24, 0x0171
   lcd_clear_line2();		// clear total line 2
     f56:	90 91 72 01 	lds	r25, 0x0172
   lcd_clear_line1();		// clear total line 1
     f5a:	09 db       	rcall	.-2542   	; 0x56e <u2lcd>
     f5c:	8e eb       	ldi	r24, 0xBE	; 190
   lcd_data('T');			//output the Testmode "T"
     f5e:	80 93 2b 01 	sts	0x012B, r24
     f62:	17 b8       	out	0x07, r1	; 7
   u2lcd(tt);		//lcd_string(utoa(tt, outval, 10));	//output Test number
     f64:	18 b8       	out	0x08, r1	; 8
     f66:	14 b8       	out	0x04, r1	; 4
     f68:	15 b8       	out	0x05, r1	; 5
   lcd_space();
     f6a:	88 ee       	ldi	r24, 0xE8	; 232
     f6c:	93 e0       	ldi	r25, 0x03	; 3
				//############################################
   if (tt == 1) {   // output of reference voltage and factors for capacity measurement
     f6e:	9c dd       	rcall	.-1224   	; 0xaa8 <wait_for_key_ms>
     f70:	f4 e0       	ldi	r31, 0x04	; 4
     f72:	bf 16       	cp	r11, r31
      lcd_MEM2_string(URef_str);	//"URef="
     f74:	99 f2       	breq	.-90     	; 0xf1c <AutoCheck+0x164>
     f76:	8b 30       	cpi	r24, 0x0B	; 11
     f78:	88 f2       	brcs	.-94     	; 0xf1c <AutoCheck+0x164>
     f7a:	88 ee       	ldi	r24, 0xE8	; 232
      Display_mV(ref_mv,4);
     f7c:	93 e0       	ldi	r25, 0x03	; 3
     f7e:	94 dd       	rcall	.-1240   	; 0xaa8 <wait_for_key_ms>
     f80:	0f 5f       	subi	r16, 0xFF	; 255
     f82:	1f 4f       	sbci	r17, 0xFF	; 255
     f84:	08 30       	cpi	r16, 0x08	; 8
     f86:	11 05       	cpc	r17, r1
     f88:	11 f4       	brne	.+4      	; 0xf8e <AutoCheck+0x1d6>
      lcd_line2();			//Cursor to column 1, row 2
     f8a:	18 e7       	ldi	r17, 0x78	; 120
     f8c:	1b c1       	rjmp	.+566    	; 0x11c4 <AutoCheck+0x40c>
      lcd_MEM2_string(RHfakt_str);	//"RHf="
     f8e:	81 2c       	mov	r8, r1
     f90:	b0 2e       	mov	r11, r16
     f92:	b0 e2       	ldi	r27, 0x20	; 32
     f94:	7b 2e       	mov	r7, r27
      u2lcd(RHmultip);	//lcd_string(utoa(RHmultip, outval, 10));
     f96:	c6 cf       	rjmp	.-116    	; 0xf24 <AutoCheck+0x16c>
     f98:	f2 e0       	ldi	r31, 0x02	; 2
     f9a:	bf 12       	cpse	r11, r31
     f9c:	41 c0       	rjmp	.+130    	; 0x1020 <AutoCheck+0x268>
     f9e:	20 91 2f 01 	lds	r18, 0x012F
      ADCconfig.Samples = R_ANZ_MESS;	// set number of ADC reads near to maximum
     fa2:	30 91 30 01 	lds	r19, 0x0130
     fa6:	a8 e5       	ldi	r26, 0x58	; 88
      lcd_space();
      i2lcd(adcmv[1]);		// lcd_string(itoa(adcmv[1], outval, 10));	//output voltage 2
      lcd_space();
      i2lcd(adcmv[2]);		// lcd_string(itoa(adcmv[2], outval, 10));	//output voltage 3
   }
   ADC_DDR =  TXD_MSK;		// all-Pins to Input
     fa8:	bb e1       	ldi	r27, 0x1B	; 27
   ADC_PORT = TXD_VAL;		// all ADC-Ports to GND
     faa:	0e 94 ab 31 	call	0x6356	; 0x6356 <__umulhisi3>
   R_DDR = 0;			// all R-Ports to Input
   R_PORT = 0;
     fae:	a7 01       	movw	r20, r14
   taste = wait_for_key_ms(1000);	// wait up to 1 second or key is pressed
     fb0:	96 01       	movw	r18, r12
     fb2:	0e 94 8f 31 	call	0x631e	; 0x631e <__divmodsi4>
     fb6:	81 e0       	ldi	r24, 0x01	; 1
   if ((tt != 4) && (taste > 10)) {
     fb8:	85 b9       	out	0x05, r24	; 5
     fba:	85 e0       	ldi	r24, 0x05	; 5
     fbc:	84 b9       	out	0x04, r24	; 4
     fbe:	80 e0       	ldi	r24, 0x00	; 0
     fc0:	28 8b       	std	Y+16, r18	; 0x10
      // don't finish repetition  for T4 with pressed key
      break; // if key is pressed, don't repeat
   }
} //end for ww
wait_for_key_ms(1000);	// wait up to 1 second or key is pressed
     fc2:	39 8b       	std	Y+17, r19	; 0x11
     fc4:	4a 8b       	std	Y+18, r20	; 0x12
     fc6:	5b 8b       	std	Y+19, r21	; 0x13
     fc8:	f1 dc       	rcall	.-1566   	; 0x9ac <W20msReadADC>
     fca:	28 89       	ldd	r18, Y+16	; 0x10
     fcc:	39 89       	ldd	r19, Y+17	; 0x11
 #endif
 #ifdef EXTENDED_TESTS
#define TEST_COUNT 8
if((test_mode & 0x0f) == 1) {  /* full test requested */

for(tt=1;tt<TEST_COUNT;tt++) {		// loop for all Tests
     fce:	4a 89       	ldd	r20, Y+18	; 0x12
     fd0:	5b 89       	ldd	r21, Y+19	; 0x13
     fd2:	82 1b       	sub	r24, r18
 #ifdef WITH_MENU
no_zero_resistance:
 #endif
 #ifdef EXTENDED_TESTS
#define TEST_COUNT 8
if((test_mode & 0x0f) == 1) {  /* full test requested */
     fd4:	93 0b       	sbc	r25, r19
     fd6:	9a 83       	std	Y+2, r25	; 0x02
    lcd_clear();
    lcd_MEM2_string(SHORT_PROBES_str);	// message "Short probes!" to LCD
    if (AllProbesShorted() == 3) {
       ww++;	// all probes now shorted
    } else {
       ww = 0;	// connection not stable, retry
     fd8:	89 83       	std	Y+1, r24	; 0x01
     fda:	81 e1       	ldi	r24, 0x11	; 17
      adcmv[0] -= u680;
      R_PORT = 1<<PIN_RH2;		//RH2 to VCC
      R_DDR = (1<<PIN_RH2) | (1<<PIN_RL2);	//RH2 to +, RL2 to -
      adcmv[1] = W20msReadADC(TP2);
      adcmv[1] -= u680;
      R_PORT = 1<<PIN_RH3;		//RH3 to VCC
     fdc:	84 b9       	out	0x04, r24	; 4
     fde:	80 e0       	ldi	r24, 0x00	; 0
     fe0:	28 8b       	std	Y+16, r18	; 0x10
      lcd_MEM2_string(RHfakt_str);	//"RHf="
      u2lcd(RHmultip);	//lcd_string(utoa(RHmultip, outval, 10));
      ADCconfig.Samples = R_ANZ_MESS;	// set number of ADC reads near to maximum
   }
				//############################################
   if (tt == 2) { // how equal are the RL resistors? 
     fe2:	39 8b       	std	Y+17, r19	; 0x11
     fe4:	4a 8b       	std	Y+18, r20	; 0x12
     fe6:	5b 8b       	std	Y+19, r21	; 0x13
      u680 = ((long)ADCconfig.U_AVCC * (PIN_RM + R_L_VAL) / (PIN_RM + R_L_VAL + R_L_VAL + PIN_RP));
     fe8:	e1 dc       	rcall	.-1598   	; 0x9ac <W20msReadADC>
     fea:	28 89       	ldd	r18, Y+16	; 0x10
     fec:	39 89       	ldd	r19, Y+17	; 0x11
     fee:	4a 89       	ldd	r20, Y+18	; 0x12
     ff0:	5b 89       	ldd	r21, Y+19	; 0x13
     ff2:	82 1b       	sub	r24, r18
     ff4:	93 0b       	sbc	r25, r19
     ff6:	9c 83       	std	Y+4, r25	; 0x04
     ff8:	8b 83       	std	Y+3, r24	; 0x03
     ffa:	84 e0       	ldi	r24, 0x04	; 4
     ffc:	85 b9       	out	0x05, r24	; 5
     ffe:	84 e1       	ldi	r24, 0x14	; 20
      R_PORT = 1<<PIN_RL1;		//RL1 to VCC
    1000:	84 b9       	out	0x04, r24	; 4
    1002:	81 e0       	ldi	r24, 0x01	; 1
      R_DDR = (1<<PIN_RL1) | (1<<PIN_RL2);	//RL2 to -
    1004:	28 8b       	std	Y+16, r18	; 0x10
    1006:	39 8b       	std	Y+17, r19	; 0x11
      adcmv[0] = W20msReadADC(TP1);
    1008:	4a 8b       	std	Y+18, r20	; 0x12
    100a:	5b 8b       	std	Y+19, r21	; 0x13
    100c:	cf dc       	rcall	.-1634   	; 0x9ac <W20msReadADC>
    100e:	28 89       	ldd	r18, Y+16	; 0x10
    1010:	39 89       	ldd	r19, Y+17	; 0x11
    1012:	82 1b       	sub	r24, r18
    1014:	93 0b       	sbc	r25, r19
      adcmv[0] -= u680;
    1016:	9e 83       	std	Y+6, r25	; 0x06
    1018:	8d 83       	std	Y+5, r24	; 0x05
    101a:	87 ee       	ldi	r24, 0xE7	; 231
    101c:	90 e0       	ldi	r25, 0x00	; 0
    101e:	b7 c0       	rjmp	.+366    	; 0x118e <AutoCheck+0x3d6>
    1020:	93 e0       	ldi	r25, 0x03	; 3
    1022:	b9 12       	cpse	r11, r25
    1024:	29 c0       	rjmp	.+82     	; 0x1078 <AutoCheck+0x2c0>
      R_DDR = (1<<PIN_RL1) | (1<<PIN_RL3);	//RL3 to -
    1026:	a5 b8       	out	0x05, r10	; 5
    1028:	ea e0       	ldi	r30, 0x0A	; 10
      adcmv[1] = W20msReadADC(TP1);
    102a:	e4 b9       	out	0x04, r30	; 4
    102c:	80 e0       	ldi	r24, 0x00	; 0
    102e:	be dc       	rcall	.-1668   	; 0x9ac <W20msReadADC>
    1030:	20 91 2f 01 	lds	r18, 0x012F
    1034:	30 91 30 01 	lds	r19, 0x0130
      adcmv[1] -= u680;
    1038:	36 95       	lsr	r19
    103a:	27 95       	ror	r18
    103c:	38 87       	std	Y+8, r19	; 0x08
    103e:	2f 83       	std	Y+7, r18	; 0x07
    1040:	82 1b       	sub	r24, r18
    1042:	93 0b       	sbc	r25, r19
    1044:	9a 83       	std	Y+2, r25	; 0x02
    1046:	89 83       	std	Y+1, r24	; 0x01
      R_PORT = 1<<PIN_RL2;		//RL2 to VCC
    1048:	f2 e2       	ldi	r31, 0x22	; 34
    104a:	f4 b9       	out	0x04, r31	; 4
      R_DDR = (1<<PIN_RL2) | (1<<PIN_RL3);	//RL3 to -
    104c:	80 e0       	ldi	r24, 0x00	; 0
    104e:	ae dc       	rcall	.-1700   	; 0x9ac <W20msReadADC>
      adcmv[2] = W20msReadADC(TP2);
    1050:	2f 81       	ldd	r18, Y+7	; 0x07
    1052:	38 85       	ldd	r19, Y+8	; 0x08
    1054:	82 1b       	sub	r24, r18
    1056:	93 0b       	sbc	r25, r19
    1058:	9c 83       	std	Y+4, r25	; 0x04
    105a:	8b 83       	std	Y+3, r24	; 0x03
    105c:	95 b8       	out	0x05, r9	; 5
      adcmv[2] -= u680;
    105e:	28 e2       	ldi	r18, 0x28	; 40
    1060:	24 b9       	out	0x04, r18	; 4
    1062:	81 e0       	ldi	r24, 0x01	; 1
    1064:	a3 dc       	rcall	.-1722   	; 0x9ac <W20msReadADC>
    1066:	2f 81       	ldd	r18, Y+7	; 0x07
    1068:	38 85       	ldd	r19, Y+8	; 0x08
      lcd_MEM_string(RLRL_str);	// "RLRL"
    106a:	82 1b       	sub	r24, r18
    106c:	93 0b       	sbc	r25, r19
    106e:	9e 83       	std	Y+6, r25	; 0x06
   }
				//############################################
   if (tt == 3) { // how equal are the RH resistors
    1070:	8d 83       	std	Y+5, r24	; 0x05
    1072:	89 ed       	ldi	r24, 0xD9	; 217
    1074:	90 e0       	ldi	r25, 0x00	; 0
      R_PORT = 1<<PIN_RH1;		//RH1 to VCC
    1076:	8b c0       	rjmp	.+278    	; 0x118e <AutoCheck+0x3d6>
      R_DDR = (1<<PIN_RH1) | (1<<PIN_RH2);	//RH2 to -
    1078:	84 e0       	ldi	r24, 0x04	; 4
    107a:	b8 12       	cpse	r11, r24
      adcmv[0] = W20msReadADC(TP1);
    107c:	07 c0       	rjmp	.+14     	; 0x108c <AutoCheck+0x2d4>
    107e:	8f e3       	ldi	r24, 0x3F	; 63
    1080:	92 e0       	ldi	r25, 0x02	; 2
      adcmv[3] = ADCconfig.U_AVCC / 2;
    1082:	8f d9       	rcall	.-3298   	; 0x3a2 <lcd_fix_string>
    1084:	8a de       	rcall	.-748    	; 0xd9a <AllProbesShorted>
    1086:	81 11       	cpse	r24, r1
    1088:	5b c2       	rjmp	.+1206   	; 0x1540 <AutoCheck+0x788>
    108a:	87 c0       	rjmp	.+270    	; 0x119a <AutoCheck+0x3e2>
    108c:	95 e0       	ldi	r25, 0x05	; 5
    108e:	b9 12       	cpse	r11, r25
    1090:	13 c0       	rjmp	.+38     	; 0x10b8 <AutoCheck+0x300>
      adcmv[0] -= adcmv[3];
    1092:	15 b8       	out	0x05, r1	; 5
    1094:	a4 b8       	out	0x04, r10	; 4
    1096:	80 e0       	ldi	r24, 0x00	; 0
    1098:	89 dc       	rcall	.-1774   	; 0x9ac <W20msReadADC>
      R_DDR = (1<<PIN_RH1) | (1<<PIN_RH3);	//RH3 to -
    109a:	9a 83       	std	Y+2, r25	; 0x02
    109c:	89 83       	std	Y+1, r24	; 0x01
      adcmv[1] = W20msReadADC(TP1);
    109e:	94 b8       	out	0x04, r9	; 4
    10a0:	81 e0       	ldi	r24, 0x01	; 1
    10a2:	84 dc       	rcall	.-1784   	; 0x9ac <W20msReadADC>
      adcmv[1] -= adcmv[3];
    10a4:	9c 83       	std	Y+4, r25	; 0x04
    10a6:	8b 83       	std	Y+3, r24	; 0x03
    10a8:	74 b8       	out	0x04, r7	; 4
    10aa:	82 e0       	ldi	r24, 0x02	; 2
    10ac:	7f dc       	rcall	.-1794   	; 0x9ac <W20msReadADC>
    10ae:	9e 83       	std	Y+6, r25	; 0x06
      R_PORT = 1<<PIN_RH2;		//RH2 to VCC
    10b0:	8d 83       	std	Y+5, r24	; 0x05
      R_DDR = (1<<PIN_RH2) | (1<<PIN_RH3);	//RH3 to -
    10b2:	89 ef       	ldi	r24, 0xF9	; 249
    10b4:	90 e0       	ldi	r25, 0x00	; 0
      adcmv[2] = W20msReadADC(TP2);
    10b6:	6b c0       	rjmp	.+214    	; 0x118e <AutoCheck+0x3d6>
    10b8:	e6 e0       	ldi	r30, 0x06	; 6
    10ba:	be 12       	cpse	r11, r30
      adcmv[2] -= adcmv[3];
    10bc:	27 c0       	rjmp	.+78     	; 0x110c <AutoCheck+0x354>
    10be:	a4 b8       	out	0x04, r10	; 4
    10c0:	a5 b8       	out	0x05, r10	; 5
    10c2:	80 e0       	ldi	r24, 0x00	; 0
    10c4:	73 dc       	rcall	.-1818   	; 0x9ac <W20msReadADC>
    10c6:	20 91 2f 01 	lds	r18, 0x012F
      lcd_MEM_string(RHRH_str);	// "RHRH"
    10ca:	30 91 30 01 	lds	r19, 0x0130
   }
				//############################################
   if (tt == 4) { // Text release probes
    10ce:	82 1b       	sub	r24, r18
    10d0:	93 0b       	sbc	r25, r19
    10d2:	9a 83       	std	Y+2, r25	; 0x02
      lcd_MEM_string(RELPROBE);	// "Release Probes"
    10d4:	89 83       	std	Y+1, r24	; 0x01
    10d6:	94 b8       	out	0x04, r9	; 4
    10d8:	95 b8       	out	0x05, r9	; 5
    10da:	81 e0       	ldi	r24, 0x01	; 1
      if (AllProbesShorted() != 0) ww = MAX_REP-2;
    10dc:	67 dc       	rcall	.-1842   	; 0x9ac <W20msReadADC>
    10de:	20 91 2f 01 	lds	r18, 0x012F
    10e2:	30 91 30 01 	lds	r19, 0x0130
   }
				//############################################
   if (tt == 5) { // can we switch the ADC pins to GND across R_H resistor?
    10e6:	82 1b       	sub	r24, r18
    10e8:	93 0b       	sbc	r25, r19
    10ea:	9c 83       	std	Y+4, r25	; 0x04
      R_PORT = 0;
    10ec:	8b 83       	std	Y+3, r24	; 0x03
      R_DDR = 1<<PIN_RH1;		//Pin 1 over R_H to GND
    10ee:	74 b8       	out	0x04, r7	; 4
      adcmv[0] = W20msReadADC(TP1);
    10f0:	75 b8       	out	0x05, r7	; 5
    10f2:	82 e0       	ldi	r24, 0x02	; 2
    10f4:	5b dc       	rcall	.-1866   	; 0x9ac <W20msReadADC>
    10f6:	20 91 2f 01 	lds	r18, 0x012F

      R_DDR = 1<<PIN_RH2;		//Pin 2 over R_H to GND
    10fa:	30 91 30 01 	lds	r19, 0x0130
      adcmv[1] = W20msReadADC(TP2);
    10fe:	82 1b       	sub	r24, r18
    1100:	93 0b       	sbc	r25, r19
    1102:	9e 83       	std	Y+6, r25	; 0x06
    1104:	8d 83       	std	Y+5, r24	; 0x05

      R_DDR = 1<<PIN_RH3;		//Pin 3 over R_H to GND
    1106:	85 ef       	ldi	r24, 0xF5	; 245
      adcmv[2] = W20msReadADC(TP3);
    1108:	90 e0       	ldi	r25, 0x00	; 0
    110a:	41 c0       	rjmp	.+130    	; 0x118e <AutoCheck+0x3d6>
    110c:	f7 e0       	ldi	r31, 0x07	; 7
    110e:	bf 12       	cpse	r11, r31
    1110:	40 c0       	rjmp	.+128    	; 0x1192 <AutoCheck+0x3da>
      lcd_MEM_string(RH1L_str);	// "RH_Lo="
    1112:	20 91 2f 01 	lds	r18, 0x012F
    1116:	30 91 30 01 	lds	r19, 0x0130
   }
				//############################################
   if (tt == 6) { // can we switch the ADC pins to VCC across the R_H resistor?
    111a:	a8 e5       	ldi	r26, 0x58	; 88
    111c:	bb e1       	ldi	r27, 0x1B	; 27
      R_DDR = 1<<PIN_RH1;		//Pin 1 over R_H to VCC
    111e:	0e 94 ab 31 	call	0x6356	; 0x6356 <__umulhisi3>
      R_PORT = 1<<PIN_RH1;
      adcmv[0] = W20msReadADC(TP1) - ADCconfig.U_AVCC;
    1122:	a2 01       	movw	r20, r4
    1124:	91 01       	movw	r18, r2
    1126:	0e 94 6d 31 	call	0x62da	; 0x62da <__udivmodsi4>
    112a:	a5 b8       	out	0x05, r10	; 5
    112c:	83 e0       	ldi	r24, 0x03	; 3
    112e:	84 b9       	out	0x04, r24	; 4
    1130:	80 e0       	ldi	r24, 0x00	; 0
    1132:	28 8b       	std	Y+16, r18	; 0x10
    1134:	39 8b       	std	Y+17, r19	; 0x11
    1136:	4a 8b       	std	Y+18, r20	; 0x12
      R_DDR = 1<<PIN_RH2;		//Pin 2 over R_H to VCC
    1138:	5b 8b       	std	Y+19, r21	; 0x13
      R_PORT = 1<<PIN_RH2;
    113a:	38 dc       	rcall	.-1936   	; 0x9ac <W20msReadADC>
      adcmv[1] = W20msReadADC(TP2) - ADCconfig.U_AVCC;
    113c:	28 89       	ldd	r18, Y+16	; 0x10
    113e:	39 89       	ldd	r19, Y+17	; 0x11
    1140:	4a 89       	ldd	r20, Y+18	; 0x12
    1142:	5b 89       	ldd	r21, Y+19	; 0x13
    1144:	82 1b       	sub	r24, r18
    1146:	93 0b       	sbc	r25, r19
    1148:	9a 83       	std	Y+2, r25	; 0x02
    114a:	89 83       	std	Y+1, r24	; 0x01
    114c:	95 b8       	out	0x05, r9	; 5
    114e:	64 b8       	out	0x04, r6	; 4
    1150:	81 e0       	ldi	r24, 0x01	; 1
      R_DDR = 1<<PIN_RH3;		//Pin 3 over R_H to VCC
    1152:	28 8b       	std	Y+16, r18	; 0x10
      R_PORT = 1<<PIN_RH3;
    1154:	39 8b       	std	Y+17, r19	; 0x11
      adcmv[2] = W20msReadADC(TP3) - ADCconfig.U_AVCC;
    1156:	4a 8b       	std	Y+18, r20	; 0x12
    1158:	5b 8b       	std	Y+19, r21	; 0x13
    115a:	28 dc       	rcall	.-1968   	; 0x9ac <W20msReadADC>
    115c:	28 89       	ldd	r18, Y+16	; 0x10
    115e:	39 89       	ldd	r19, Y+17	; 0x11
    1160:	4a 89       	ldd	r20, Y+18	; 0x12
    1162:	5b 89       	ldd	r21, Y+19	; 0x13
    1164:	82 1b       	sub	r24, r18
    1166:	93 0b       	sbc	r25, r19
    1168:	9c 83       	std	Y+4, r25	; 0x04
    116a:	8b 83       	std	Y+3, r24	; 0x03
      lcd_MEM_string(RH1H_str);	// "RH_Hi="
    116c:	75 b8       	out	0x05, r7	; 5
    116e:	90 e3       	ldi	r25, 0x30	; 48
    1170:	94 b9       	out	0x04, r25	; 4
   }
   if (tt == 7) { // is the voltage of all R_H / R_L dividers correct?
    1172:	82 e0       	ldi	r24, 0x02	; 2
    1174:	28 8b       	std	Y+16, r18	; 0x10
    1176:	39 8b       	std	Y+17, r19	; 0x11
      u680 = ((long)ADCconfig.U_AVCC * (PIN_RM + R_L_VAL) / (PIN_RM + R_L_VAL + (unsigned long)R_H_VAL*100));
    1178:	4a 8b       	std	Y+18, r20	; 0x12
    117a:	5b 8b       	std	Y+19, r21	; 0x13
    117c:	17 dc       	rcall	.-2002   	; 0x9ac <W20msReadADC>
    117e:	28 89       	ldd	r18, Y+16	; 0x10
    1180:	39 89       	ldd	r19, Y+17	; 0x11
    1182:	82 1b       	sub	r24, r18
    1184:	93 0b       	sbc	r25, r19
    1186:	9e 83       	std	Y+6, r25	; 0x06
    1188:	8d 83       	std	Y+5, r24	; 0x05
    118a:	83 ed       	ldi	r24, 0xD3	; 211
    118c:	90 e0       	ldi	r25, 0x00	; 0
    118e:	09 d9       	rcall	.-3566   	; 0x3a2 <lcd_fix_string>
      R_PORT = 1<<PIN_RH1;		//RH1 to VCC
    1190:	04 c0       	rjmp	.+8      	; 0x119a <AutoCheck+0x3e2>
      R_DDR = (1<<PIN_RH1) | (1<<PIN_RL1);	//RH1 to +, RL1 to -
    1192:	e1 e0       	ldi	r30, 0x01	; 1
    1194:	be 16       	cp	r11, r30
      adcmv[0] = W20msReadADC(TP1);
    1196:	09 f4       	brne	.+2      	; 0x119a <AutoCheck+0x3e2>
    1198:	e4 ce       	rjmp	.-568    	; 0xf62 <AutoCheck+0x1aa>
    119a:	bc d8       	rcall	.-3720   	; 0x314 <lcd_line2>
    119c:	89 81       	ldd	r24, Y+1	; 0x01
    119e:	9a 81       	ldd	r25, Y+2	; 0x02
    11a0:	db d9       	rcall	.-3146   	; 0x558 <i2lcd>
    11a2:	95 d8       	rcall	.-3798   	; 0x2ce <lcd_space>
      adcmv[0] -= u680;
    11a4:	8b 81       	ldd	r24, Y+3	; 0x03
    11a6:	9c 81       	ldd	r25, Y+4	; 0x04
    11a8:	d7 d9       	rcall	.-3154   	; 0x558 <i2lcd>
    11aa:	91 d8       	rcall	.-3806   	; 0x2ce <lcd_space>
    11ac:	8d 81       	ldd	r24, Y+5	; 0x05
    11ae:	9e 81       	ldd	r25, Y+6	; 0x06
    11b0:	d3 d9       	rcall	.-3162   	; 0x558 <i2lcd>
    11b2:	d7 ce       	rjmp	.-594    	; 0xf62 <AutoCheck+0x1aa>
      R_PORT = 1<<PIN_RH2;		//RH2 to VCC
    11b4:	a0 d9       	rcall	.-3264   	; 0x4f6 <lcd_clear_line2>
      R_DDR = (1<<PIN_RH2) | (1<<PIN_RL2);	//RH2 to +, RL2 to -
    11b6:	8f e3       	ldi	r24, 0x3F	; 63
      adcmv[1] = W20msReadADC(TP2);
    11b8:	92 e0       	ldi	r25, 0x02	; 2
    11ba:	f3 d8       	rcall	.-3610   	; 0x3a2 <lcd_fix_string>
    11bc:	84 e6       	ldi	r24, 0x64	; 100
    11be:	ca db       	rcall	.-2156   	; 0x954 <sleep_5ms>
    11c0:	11 50       	subi	r17, 0x01	; 1
    11c2:	19 f0       	breq	.+6      	; 0x11ca <AutoCheck+0x412>
    11c4:	ea dd       	rcall	.-1068   	; 0xd9a <AllProbesShorted>
      adcmv[1] -= u680;
    11c6:	81 11       	cpse	r24, r1
    11c8:	f5 cf       	rjmp	.-22     	; 0x11b4 <AutoCheck+0x3fc>
    11ca:	cc d8       	rcall	.-3688   	; 0x364 <lcd_clear>
    11cc:	88 ec       	ldi	r24, 0xC8	; 200
    11ce:	90 e0       	ldi	r25, 0x00	; 0
    11d0:	e8 d8       	rcall	.-3632   	; 0x3a2 <lcd_fix_string>
    11d2:	23 e0       	ldi	r18, 0x03	; 3
    11d4:	44 e0       	ldi	r20, 0x04	; 4
      R_PORT = 1<<PIN_RH3;		//RH3 to VCC
    11d6:	6f ef       	ldi	r22, 0xFF	; 255
      R_DDR = (1<<PIN_RH3) | (1<<PIN_RL3);	//RH3 to +, RL3 to -
    11d8:	80 91 31 01 	lds	r24, 0x0131
      adcmv[2] = W20msReadADC(TP3);
    11dc:	90 91 32 01 	lds	r25, 0x0132
    11e0:	74 db       	rcall	.-2328   	; 0x8ca <DisplayValue16>
    11e2:	98 d8       	rcall	.-3792   	; 0x314 <lcd_line2>
    11e4:	81 ec       	ldi	r24, 0xC1	; 193
    11e6:	90 e0       	ldi	r25, 0x00	; 0
    11e8:	dc d8       	rcall	.-3656   	; 0x3a2 <lcd_fix_string>
      adcmv[2] -= u680;
    11ea:	23 e0       	ldi	r18, 0x03	; 3
    11ec:	44 e0       	ldi	r20, 0x04	; 4
    11ee:	6f ef       	ldi	r22, 0xFF	; 255
    11f0:	80 91 38 01 	lds	r24, 0x0138
    11f4:	90 91 39 01 	lds	r25, 0x0139
      lcd_MEM_string(RHRL_str);	// "RH/RL"
    11f8:	68 db       	rcall	.-2352   	; 0x8ca <DisplayValue16>
    11fa:	82 e0       	ldi	r24, 0x02	; 2
    11fc:	80 93 3e 01 	sts	0x013E, r24
   }
				//############################################
   if (tt > 1) {	// output 3 voltages 
    1200:	90 dc       	rcall	.-1760   	; 0xb22 <wait_for_key_5s_line2>
    1202:	10 92 1a 01 	sts	0x011A, r1
    1206:	ae d8       	rcall	.-3748   	; 0x364 <lcd_clear>
      lcd_line2();			//Cursor to column 1, row 2
    1208:	8d eb       	ldi	r24, 0xBD	; 189
    120a:	90 e0       	ldi	r25, 0x00	; 0
      i2lcd(adcmv[0]);		// lcd_string(itoa(adcmv[0], outval, 10));	//output voltage 1
    120c:	ca d8       	rcall	.-3692   	; 0x3a2 <lcd_fix_string>
    120e:	60 e0       	ldi	r22, 0x00	; 0
    1210:	82 e0       	ldi	r24, 0x02	; 2
    1212:	0e 94 3f 15 	call	0x2a7e	; 0x2a7e <ReadCapacity>
      lcd_space();
    1216:	80 90 7b 01 	lds	r8, 0x017B
      i2lcd(adcmv[1]);		// lcd_string(itoa(adcmv[1], outval, 10));	//output voltage 2
    121a:	90 90 7c 01 	lds	r9, 0x017C
    121e:	a0 90 7d 01 	lds	r10, 0x017D
      lcd_space();
    1222:	b0 90 7e 01 	lds	r11, 0x017E
      i2lcd(adcmv[2]);		// lcd_string(itoa(adcmv[2], outval, 10));	//output voltage 3
    1226:	9c 86       	std	Y+12, r9	; 0x0c
    1228:	8b 86       	std	Y+11, r8	; 0x0b
    122a:	61 e0       	ldi	r22, 0x01	; 1
    122c:	82 e0       	ldi	r24, 0x02	; 2
 #endif		/* end EXTENDED_TESTS */

for (ww=0;ww<120;ww++) {
  // wait up to 1 minute for releasing the probes
  if (AllProbesShorted() == 0) break;
  lcd_clear_line2();		// clear total line2
    122e:	0e 94 3f 15 	call	0x2a7e	; 0x2a7e <ReadCapacity>
  lcd_MEM_string(RELPROBE);	// "Release Probes"
    1232:	c0 90 7b 01 	lds	r12, 0x017B
    1236:	d0 90 7c 01 	lds	r13, 0x017C
  lcd_refresh();		// write the pixels to display, ST7920 only
  wait_about500ms();
    123a:	e0 90 7d 01 	lds	r14, 0x017D
    123e:	f0 90 7e 01 	lds	r15, 0x017E
wait_for_key_5s_line2();		// wait up to 5 seconds and clear line 2
  #endif	/* PROCESSOR_TYP == 1280 */
}	/* end if((test_mode & 0x0f) == 1) */
 #endif		/* end EXTENDED_TESTS */

for (ww=0;ww<120;ww++) {
    1242:	de 86       	std	Y+14, r13	; 0x0e
  // wait up to 1 minute for releasing the probes
  if (AllProbesShorted() == 0) break;
    1244:	cd 86       	std	Y+13, r12	; 0x0d
    1246:	60 e0       	ldi	r22, 0x00	; 0
    1248:	81 e0       	ldi	r24, 0x01	; 1
    124a:	0e 94 3f 15 	call	0x2a7e	; 0x2a7e <ReadCapacity>
  wait_about500ms();
}



lcd_clear();
    124e:	00 91 7b 01 	lds	r16, 0x017B
lcd_MEM_string(RIHI_str);	// "RiHi="
    1252:	10 91 7c 01 	lds	r17, 0x017C
    1256:	1e 83       	std	Y+6, r17	; 0x06
DisplayValue16(RRpinPL,-1,LCD_CHAR_OMEGA,3);
    1258:	0d 83       	std	Y+5, r16	; 0x05
    125a:	62 e0       	ldi	r22, 0x02	; 2
    125c:	80 e0       	ldi	r24, 0x00	; 0
    125e:	0e 94 3f 15 	call	0x2a7e	; 0x2a7e <ReadCapacity>
    1262:	80 91 7b 01 	lds	r24, 0x017B
    1266:	90 91 7c 01 	lds	r25, 0x017C
lcd_line2();
    126a:	9c 83       	std	Y+4, r25	; 0x04
    126c:	8b 83       	std	Y+3, r24	; 0x03
lcd_MEM_string(RILO_str);	// "RiLo="
    126e:	62 e0       	ldi	r22, 0x02	; 2
    1270:	81 e0       	ldi	r24, 0x01	; 1
    1272:	0e 94 3f 15 	call	0x2a7e	; 0x2a7e <ReadCapacity>
DisplayValue16(RRpinMI,-1,LCD_CHAR_OMEGA,3);
    1276:	80 91 7b 01 	lds	r24, 0x017B
    127a:	90 91 7c 01 	lds	r25, 0x017C
    127e:	9a 87       	std	Y+10, r25	; 0x0a
    1280:	89 87       	std	Y+9, r24	; 0x09
    1282:	61 e0       	ldi	r22, 0x01	; 1
    1284:	80 e0       	ldi	r24, 0x00	; 0
    1286:	0e 94 3f 15 	call	0x2a7e	; 0x2a7e <ReadCapacity>
last_line_used = 2;
    128a:	80 91 7b 01 	lds	r24, 0x017B
wait_for_key_5s_line2();		// wait up to 5 seconds and clear line 2
    128e:	90 91 7c 01 	lds	r25, 0x017C

//measure Zero offset for Capacity measurement
PartFound = PART_NONE;
    1292:	9a 83       	std	Y+2, r25	; 0x02
    1294:	89 83       	std	Y+1, r24	; 0x01
lcd_clear();
    1296:	ef 85       	ldd	r30, Y+15	; 0x0f
    1298:	e1 30       	cpi	r30, 0x01	; 1
lcd_MEM_string(C0_str);			//output "C0 "
    129a:	21 f0       	breq	.+8      	; 0x12a4 <AutoCheck+0x4ec>
    129c:	20 91 37 01 	lds	r18, 0x0137
    12a0:	22 30       	cpi	r18, 0x02	; 2
ReadCapacity(TP3, TP1);
    12a2:	21 f4       	brne	.+8      	; 0x12ac <AutoCheck+0x4f4>
    12a4:	02 96       	adiw	r24, 0x02	; 2
    12a6:	98 87       	std	Y+8, r25	; 0x08
    12a8:	8f 83       	std	Y+7, r24	; 0x07
adcmv[5] = (unsigned int) cap.cval_uncorrected.dw;	//save capacity value of empty Pin 1:3
    12aa:	06 c0       	rjmp	.+12     	; 0x12b8 <AutoCheck+0x500>
    12ac:	98 87       	std	Y+8, r25	; 0x08
    12ae:	8f 83       	std	Y+7, r24	; 0x07
    12b0:	10 92 37 01 	sts	0x0137, r1
    12b4:	8c e0       	ldi	r24, 0x0C	; 12
    12b6:	22 d8       	rcall	.-4028   	; 0x2fc <lcd_command>
    12b8:	c4 01       	movw	r24, r8
    12ba:	62 d9       	rcall	.-3388   	; 0x580 <u2lcd_space>
    12bc:	c6 01       	movw	r24, r12
ReadCapacity(TP3, TP2);
    12be:	60 d9       	rcall	.-3392   	; 0x580 <u2lcd_space>
    12c0:	b8 01       	movw	r22, r16
    12c2:	88 27       	eor	r24, r24
    12c4:	77 fd       	sbrc	r23, 7
adcmv[6] = (unsigned int) cap.cval_uncorrected.dw;	//save capacity value of empty Pin 2:3
    12c6:	80 95       	com	r24
    12c8:	98 2f       	mov	r25, r24
    12ca:	03 e0       	ldi	r16, 0x03	; 3
    12cc:	26 e4       	ldi	r18, 0x46	; 70
    12ce:	44 ef       	ldi	r20, 0xF4	; 244
    12d0:	0d da       	rcall	.-3046   	; 0x6ec <DisplayValue>
    12d2:	6e 01       	movw	r12, r28
    12d4:	ff e0       	ldi	r31, 0x0F	; 15
    12d6:	cf 0e       	add	r12, r31
    12d8:	d1 1c       	adc	r13, r1
ReadCapacity(TP2, TP1);
    12da:	fe 01       	movw	r30, r28
    12dc:	31 96       	adiw	r30, 0x01	; 1
    12de:	81 91       	ld	r24, Z+
    12e0:	91 91       	ld	r25, Z+
adcmv[2] = (unsigned int) cap.cval_uncorrected.dw;	//save capacity value of empty Pin 1:2
    12e2:	0a 97       	sbiw	r24, 0x0a	; 10
    12e4:	85 3b       	cpi	r24, 0xB5	; 181
    12e6:	91 05       	cpc	r25, r1
    12e8:	e8 f4       	brcc	.+58     	; 0x1324 <AutoCheck+0x56c>
    12ea:	ec 15       	cp	r30, r12
    12ec:	fd 05       	cpc	r31, r13
ReadCapacity(TP1, TP3);
    12ee:	b9 f7       	brne	.-18     	; 0x12de <AutoCheck+0x526>
    12f0:	a8 e3       	ldi	r26, 0x38	; 56
    12f2:	ea 2e       	mov	r14, r26
    12f4:	a3 e0       	ldi	r26, 0x03	; 3
adcmv[1] = (unsigned int) cap.cval_uncorrected.dw;	//save capacity value of empty Pin 3:1
    12f6:	fa 2e       	mov	r15, r26
    12f8:	8e 01       	movw	r16, r28
    12fa:	0f 5f       	subi	r16, 0xFF	; 255
    12fc:	1f 4f       	sbci	r17, 0xFF	; 255
    12fe:	f8 01       	movw	r30, r16
    1300:	60 81       	ld	r22, Z
ReadCapacity(TP2, TP3);
    1302:	0e 5f       	subi	r16, 0xFE	; 254
    1304:	1f 4f       	sbci	r17, 0xFF	; 255
    1306:	6e 5e       	subi	r22, 0xEE	; 238
    1308:	c7 01       	movw	r24, r14
adcmv[4] = (unsigned int) cap.cval_uncorrected.dw;	//save capacity value of empty Pin 3:2
    130a:	0e 94 58 32 	call	0x64b0	; 0x64b0 <__eewr_byte_m328p>
    130e:	ff ef       	ldi	r31, 0xFF	; 255
    1310:	ef 1a       	sub	r14, r31
    1312:	ff 0a       	sbc	r15, r31
    1314:	0c 15       	cp	r16, r12
ReadCapacity(TP1, TP2);
    1316:	1d 05       	cpc	r17, r13
    1318:	91 f7       	brne	.-28     	; 0x12fe <AutoCheck+0x546>
    131a:	0e 94 8a 01 	call	0x314	; 0x314 <lcd_line2>
adcmv[0] = (unsigned int) cap.cval_uncorrected.dw;	//save capacity value of empty Pin 2:1
    131e:	85 eb       	ldi	r24, 0xB5	; 181
    1320:	91 e0       	ldi	r25, 0x01	; 1
    1322:	3f d8       	rcall	.-3970   	; 0x3a2 <lcd_fix_string>
    1324:	82 e0       	ldi	r24, 0x02	; 2
    1326:	80 93 3e 01 	sts	0x013E, r24
 #ifdef WITH_MENU
if (((test_mode & 0x0f) == 1) || (UnCalibrated == 2))
    132a:	fb db       	rcall	.-2058   	; 0xb22 <wait_for_key_5s_line2>
    132c:	0e 94 2a 28 	call	0x5054	; 0x5054 <sampling_cap_calibrate>
    1330:	2f 85       	ldd	r18, Y+15	; 0x0f
    1332:	21 30       	cpi	r18, 0x01	; 1
    1334:	29 f0       	breq	.+10     	; 0x1340 <AutoCheck+0x588>
    1336:	80 91 37 01 	lds	r24, 0x0137
 #else
if (UnCalibrated == 2)
 #endif
{
  adcmv[3] = adcmv[0] + 2;		// mark as uncalibrated until Cap > 100nF has success
    133a:	82 30       	cpi	r24, 0x02	; 2
    133c:	09 f0       	breq	.+2      	; 0x1340 <AutoCheck+0x588>
    133e:	e7 c0       	rjmp	.+462    	; 0x150e <AutoCheck+0x756>
} else {
  adcmv[3] = adcmv[0];			// mark as calibrated, short calibration is finished
    1340:	11 d8       	rcall	.-4062   	; 0x364 <lcd_clear>
    1342:	80 e0       	ldi	r24, 0x00	; 0
  UnCalibrated = 0;			// clear the UnCalibrated Flag
    1344:	0e 94 64 01 	call	0x2c8	; 0x2c8 <lcd_testpin>
  lcd_cursor_off();			// switch cursor off
    1348:	8b e6       	ldi	r24, 0x6B	; 107
    134a:	91 e0       	ldi	r25, 0x01	; 1
    134c:	2a d8       	rcall	.-4012   	; 0x3a2 <lcd_fix_string>
}
u2lcd_space(adcmv[5]);	//DisplayValue(adcmv[5],0,' ',3);		//output cap0 1:3
    134e:	82 e0       	ldi	r24, 0x02	; 2
    1350:	0e 94 64 01 	call	0x2c8	; 0x2c8 <lcd_testpin>
u2lcd_space(adcmv[6]);	//DisplayValue(adcmv[6],0,' ',3);		//output cap0 2:3
    1354:	82 e3       	ldi	r24, 0x32	; 50
    1356:	90 e0       	ldi	r25, 0x00	; 0
    1358:	24 d8       	rcall	.-4024   	; 0x3a2 <lcd_fix_string>
DisplayValue(adcmv[2],-12,'F',3);		//output cap0 1:2
    135a:	e0 e4       	ldi	r30, 0x40	; 64
    135c:	be 2e       	mov	r11, r30
    135e:	10 e0       	ldi	r17, 0x00	; 0
    1360:	fa e0       	ldi	r31, 0x0A	; 10
    1362:	cf 2e       	mov	r12, r31
    1364:	d1 2c       	mov	r13, r1
    1366:	e1 2c       	mov	r14, r1
    1368:	f1 2c       	mov	r15, r1
    136a:	a4 dc       	rcall	.-1720   	; 0xcb4 <init_parts>
    136c:	10 92 1a 01 	sts	0x011A, r1
    1370:	60 e0       	ldi	r22, 0x00	; 0
    1372:	82 e0       	ldi	r24, 0x02	; 2
    1374:	0e 94 3f 15 	call	0x2a7e	; 0x2a7e <ReadCapacity>
    1378:	00 91 85 01 	lds	r16, 0x0185
 #ifdef AUTO_CAL
for (ww=0;ww<7;ww++) {			//checking loop
if ((adcmv[ww] > 190) || (adcmv[ww] < 10)) goto no_c0save;
    137c:	60 91 73 01 	lds	r22, 0x0173
    1380:	70 91 74 01 	lds	r23, 0x0174
    1384:	80 91 75 01 	lds	r24, 0x0175
}
u2lcd_space(adcmv[5]);	//DisplayValue(adcmv[5],0,' ',3);		//output cap0 1:3
u2lcd_space(adcmv[6]);	//DisplayValue(adcmv[6],0,' ',3);		//output cap0 2:3
DisplayValue(adcmv[2],-12,'F',3);		//output cap0 1:2
 #ifdef AUTO_CAL
for (ww=0;ww<7;ww++) {			//checking loop
    1388:	90 91 76 01 	lds	r25, 0x0176
    138c:	07 3f       	cpi	r16, 0xF7	; 247
    138e:	44 f4       	brge	.+16     	; 0x13a0 <AutoCheck+0x5e8>
    1390:	a7 01       	movw	r20, r14
    1392:	96 01       	movw	r18, r12
    1394:	0e 94 6d 31 	call	0x62da	; 0x62da <__udivmodsi4>
    1398:	0f 5f       	subi	r16, 0xFF	; 255
if ((adcmv[ww] > 190) || (adcmv[ww] < 10)) goto no_c0save;
}
for (ww=0;ww<7;ww++) {
  // write all zero offsets to the EEprom 
  (void) eeprom_write_byte((uint8_t *)(&c_zero_tab[ww]),adcmv[ww]+(COMP_SLEW1 / (CC0 + CABLE_CAP + COMP_SLEW2)));
    139a:	b9 01       	movw	r22, r18
    139c:	ca 01       	movw	r24, r20
    139e:	f6 cf       	rjmp	.-20     	; 0x138c <AutoCheck+0x5d4>
    13a0:	00 93 85 01 	sts	0x0185, r16
    13a4:	60 93 73 01 	sts	0x0173, r22
    13a8:	70 93 74 01 	sts	0x0174, r23
    13ac:	80 93 75 01 	sts	0x0175, r24
DisplayValue(adcmv[2],-12,'F',3);		//output cap0 1:2
 #ifdef AUTO_CAL
for (ww=0;ww<7;ww++) {			//checking loop
if ((adcmv[ww] > 190) || (adcmv[ww] < 10)) goto no_c0save;
}
for (ww=0;ww<7;ww++) {
    13b0:	90 93 76 01 	sts	0x0176, r25
    13b4:	07 3f       	cpi	r16, 0xF7	; 247
  // write all zero offsets to the EEprom 
  (void) eeprom_write_byte((uint8_t *)(&c_zero_tab[ww]),adcmv[ww]+(COMP_SLEW1 / (CC0 + CABLE_CAP + COMP_SLEW2)));
}
lcd_line2();
    13b6:	09 f0       	breq	.+2      	; 0x13ba <AutoCheck+0x602>
    13b8:	93 c0       	rjmp	.+294    	; 0x14e0 <AutoCheck+0x728>
lcd_MEM_string(OK_str);		// output "OK"
    13ba:	dc 01       	movw	r26, r24
    13bc:	cb 01       	movw	r24, r22
    13be:	80 56       	subi	r24, 0x60	; 96
    13c0:	91 09       	sbc	r25, r1
no_c0save:
 #endif
last_line_used = 2;
    13c2:	a1 09       	sbc	r26, r1
    13c4:	b1 09       	sbc	r27, r1
    13c6:	80 39       	cpi	r24, 0x90	; 144
wait_for_key_5s_line2();		// wait up to 5 seconds and clear line 2
    13c8:	95 45       	sbci	r25, 0x55	; 85
    13ca:	a1 05       	cpc	r26, r1

#ifdef SamplingADC
  sampling_cap_calibrate();		// measure zero capacity for samplingADC
    13cc:	b1 05       	cpc	r27, r1
    13ce:	08 f0       	brcs	.+2      	; 0x13d2 <AutoCheck+0x61a>
#endif

 #ifdef AUTO_CAL
  #ifdef WITH_MENU
if (((test_mode & 0x0f) == 1) || (UnCalibrated == 2))
    13d0:	87 c0       	rjmp	.+270    	; 0x14e0 <AutoCheck+0x728>
    13d2:	60 91 87 01 	lds	r22, 0x0187
    13d6:	70 91 88 01 	lds	r23, 0x0188
    13da:	cb 01       	movw	r24, r22
    13dc:	8b 56       	subi	r24, 0x6B	; 107
    13de:	9f 4f       	sbci	r25, 0xFF	; 255
{
// for full test or first time calibration, use external capacitor
// Message C > 100nF at TP1 and TP3
cap_found = 0;
#if (TPCAP <= 0)
lcd_clear();
    13e0:	8b 32       	cpi	r24, 0x2B	; 43
    13e2:	91 40       	sbci	r25, 0x01	; 1
lcd_testpin(TP1);
    13e4:	08 f0       	brcs	.+2      	; 0x13e8 <AutoCheck+0x630>
    13e6:	7c c0       	rjmp	.+248    	; 0x14e0 <AutoCheck+0x728>
    13e8:	1f 5f       	subi	r17, 0xFF	; 255
lcd_MEM_string(CapZeich);	// "-||-"
    13ea:	15 30       	cpi	r17, 0x05	; 5
    13ec:	08 f4       	brcc	.+2      	; 0x13f0 <AutoCheck+0x638>
    13ee:	79 c0       	rjmp	.+242    	; 0x14e2 <AutoCheck+0x72a>
    13f0:	8f e3       	ldi	r24, 0x3F	; 63
lcd_testpin(TP3);
    13f2:	93 e0       	ldi	r25, 0x03	; 3
    13f4:	0e 94 66 32 	call	0x64cc	; 0x64cc <__eewr_word_m328p>
lcd_MEM2_string(MinCap_str);	// " >100nF!"
    13f8:	0e 94 b2 01 	call	0x364	; 0x364 <lcd_clear>
    13fc:	8b e2       	ldi	r24, 0x2B	; 43
    13fe:	90 e0       	ldi	r25, 0x00	; 0
    1400:	0e 94 d1 01 	call	0x3a2	; 0x3a2 <lcd_fix_string>
// calibration (UnCalibrated = 2) or for the full selftest call (test_mode = 1) 
// of the menu function, not with the automatically call (test_mode = 1).
{
// for full test or first time calibration, use external capacitor
// Message C > 100nF at TP1 and TP3
cap_found = 0;
    1404:	80 91 87 01 	lds	r24, 0x0187
  PartFound = PART_NONE;
  ReadCapacity(TP3, TP1);	// look for capacitor > 100nF
  #endif
  while (cap.cpre < -9) {
   cap.cpre++;
   cap.cval /= 10;
    1408:	90 91 88 01 	lds	r25, 0x0188
    140c:	a5 d8       	rcall	.-3766   	; 0x558 <i2lcd>
    140e:	aa db       	rcall	.-2220   	; 0xb64 <RefVoltage>
lcd_MEM_string(CapZeich);	// "-||-"
lcd_testpin(TP3);
lcd_MEM2_string(MinCap_str);	// " >100nF!"
#endif
for (ww=0;ww<64;ww++) {
  init_parts();
    1410:	18 b8       	out	0x08, r1	; 8
    1412:	81 e0       	ldi	r24, 0x01	; 1
  #if (TPCAP >= 0)
  CalibrationCap();	// measure with internal calibration capacitor
  #else
  PartFound = PART_NONE;
    1414:	87 b9       	out	0x07, r24	; 7
    1416:	80 e2       	ldi	r24, 0x20	; 32
  ReadCapacity(TP3, TP1);	// look for capacitor > 100nF
    1418:	84 b9       	out	0x04, r24	; 4
    141a:	82 e0       	ldi	r24, 0x02	; 2
    141c:	d3 da       	rcall	.-2650   	; 0x9c4 <ReadADC>
    141e:	85 3d       	cpi	r24, 0xD5	; 213
    1420:	93 40       	sbci	r25, 0x03	; 3
    1422:	dc f7       	brge	.-10     	; 0x141a <AutoCheck+0x662>
    1424:	14 b8       	out	0x04, r1	; 4
    1426:	10 92 2e 01 	sts	0x012E, r1
    142a:	10 92 2d 01 	sts	0x012D, r1
    142e:	82 e0       	ldi	r24, 0x02	; 2
    1430:	c9 da       	rcall	.-2670   	; 0x9c4 <ReadADC>
    1432:	8c 01       	movw	r16, r24
  #endif
  while (cap.cpre < -9) {
    1434:	80 91 6d 01 	lds	r24, 0x016D
   cap.cpre++;
   cap.cval /= 10;
    1438:	90 91 6e 01 	lds	r25, 0x016E
    143c:	90 93 2e 01 	sts	0x012E, r25
  #else
  PartFound = PART_NONE;
  ReadCapacity(TP3, TP1);	// look for capacitor > 100nF
  #endif
  while (cap.cpre < -9) {
   cap.cpre++;
    1440:	80 93 2d 01 	sts	0x012D, r24
   cap.cval /= 10;
    1444:	82 e0       	ldi	r24, 0x02	; 2
    1446:	be da       	rcall	.-2692   	; 0x9c4 <ReadADC>
    1448:	7c 01       	movw	r14, r24
    144a:	ee 0c       	add	r14, r14
    144c:	ff 1c       	adc	r15, r15
    144e:	10 92 2e 01 	sts	0x012E, r1
    1452:	10 92 2d 01 	sts	0x012D, r1
    1456:	82 e0       	ldi	r24, 0x02	; 2
    1458:	b5 da       	rcall	.-2710   	; 0x9c4 <ReadADC>
    145a:	c0 90 6d 01 	lds	r12, 0x016D
  }
  if ((cap.cpre == -9) && (cap.cval > 95) && (cap.cval < 22000) &&
    145e:	d0 90 6e 01 	lds	r13, 0x016E
    1462:	d0 92 2e 01 	sts	0x012E, r13
    1466:	c0 92 2d 01 	sts	0x012D, r12
    146a:	08 0f       	add	r16, r24
    146c:	19 1f       	adc	r17, r25
    146e:	0e 19       	sub	r16, r14
    1470:	1f 09       	sbc	r17, r15
    1472:	0e 94 8a 01 	call	0x314	; 0x314 <lcd_line2>
    1476:	84 e2       	ldi	r24, 0x24	; 36
    1478:	90 e0       	ldi	r25, 0x00	; 0
    (load_diff > -150) && (load_diff < 150)) {
    147a:	0e 94 d1 01 	call	0x3a2	; 0x3a2 <lcd_fix_string>
    147e:	81 e4       	ldi	r24, 0x41	; 65
    1480:	93 e0       	ldi	r25, 0x03	; 3
    1482:	0e 94 4b 32 	call	0x6496	; 0x6496 <__eerd_byte_m328p>
    1486:	73 e0       	ldi	r23, 0x03	; 3
    1488:	b7 2e       	mov	r11, r23
    148a:	b8 0e       	add	r11, r24
    148c:	96 01       	movw	r18, r12
    148e:	d8 01       	movw	r26, r16
   cap_found++;
    1490:	0e 94 ba 31 	call	0x6374	; 0x6374 <__usmulhisi3>
  } else {
   cap_found = 0;		// wait for stable connection
  }
  if (cap_found > 4) {
    1494:	97 01       	movw	r18, r14
    1496:	44 27       	eor	r20, r20
     // value of capacitor is correct
     (void) eeprom_write_word((uint16_t *)(&ref_offset), load_diff);	// hold zero offset + slew rate dependend offset
    1498:	37 fd       	sbrc	r19, 7
    149a:	40 95       	com	r20
    149c:	54 2f       	mov	r21, r20
    149e:	0e 94 8f 31 	call	0x631e	; 0x631e <__divmodsi4>
     lcd_clear();
    14a2:	b2 0e       	add	r11, r18
     lcd_MEM2_string(REF_C_str);	// "REF_C="
    14a4:	6b 2d       	mov	r22, r11
    14a6:	81 e4       	ldi	r24, 0x41	; 65
    14a8:	93 e0       	ldi	r25, 0x03	; 3
    14aa:	0e 94 58 32 	call	0x64b0	; 0x64b0 <__eewr_byte_m328p>
     i2lcd(load_diff);		// lcd_string(itoa(load_diff, outval, 10));	//output REF_C_KORR
    14ae:	8b 2d       	mov	r24, r11
    14b0:	99 27       	eor	r25, r25
    14b2:	87 fd       	sbrc	r24, 7
    14b4:	90 95       	com	r25
    14b6:	50 d8       	rcall	.-3936   	; 0x558 <i2lcd>
     RefVoltage();			// new ref_mv_offs and RHmultip
    14b8:	55 db       	rcall	.-2390   	; 0xb64 <RefVoltage>
    14ba:	82 e0       	ldi	r24, 0x02	; 2
    #define CAP_ADC TPCAP	/* Cap >100nF is integrated at TPCAP */
   TCAP_PORT &= ~(1<<TCAP_RH);	// 470k resistor to GND
   TCAP_DDR |= (1<<TCAP_RH);	// enable output
   #else
    #define CAP_ADC TP3		/* Cap >100nF at TP3 */
   ADC_PORT =  TXD_VAL;	//ADC-Port 1 to GND
    14bc:	80 93 3e 01 	sts	0x013E, r24
   ADC_DDR = 1<<TP1 | TXD_MSK;	//ADC-Pin  1 to output 0V
    14c0:	30 db       	rcall	.-2464   	; 0xb22 <wait_for_key_5s_line2>
   R_DDR = 1<<PIN_RH3;		//Pin 3 over R_H to GND
    14c2:	10 92 37 01 	sts	0x0137, r1
   #endif
   do {
      adcmv[0] = ReadADC(CAP_ADC);
    14c6:	8c e0       	ldi	r24, 0x0C	; 12
    14c8:	0e 94 7e 01 	call	0x2fc	; 0x2fc <lcd_command>
   } while (adcmv[0] > 980);
    14cc:	88 e3       	ldi	r24, 0x38	; 56
    14ce:	93 e0       	ldi	r25, 0x03	; 3
    14d0:	0e 94 4b 32 	call	0x6496	; 0x6496 <__eerd_byte_m328p>
   #if (TPCAP >= 0)
   TCAP_DDR &= ~(1<<TCAP_RH);	// 470k resistor port to input mode
   #else
   R_DDR = 0;		//all Pins to input 
   #endif
   ADCconfig.U_Bandgap = 0;	// do not use internal Ref
    14d4:	68 2f       	mov	r22, r24
    14d6:	8b e3       	ldi	r24, 0x3B	; 59
    14d8:	93 e0       	ldi	r25, 0x03	; 3
    14da:	0e 94 58 32 	call	0x64b0	; 0x64b0 <__eewr_byte_m328p>
   adcmv[0] = ReadADC(CAP_ADC);  // get cap voltage with VCC reference
    14de:	17 c0       	rjmp	.+46     	; 0x150e <AutoCheck+0x756>
    14e0:	10 e0       	ldi	r17, 0x00	; 0
    14e2:	0e 94 8a 01 	call	0x314	; 0x314 <lcd_line2>
   ADCconfig.U_Bandgap = adc_internal_reference;
    14e6:	60 91 73 01 	lds	r22, 0x0173
    14ea:	70 91 74 01 	lds	r23, 0x0174
    14ee:	80 91 75 01 	lds	r24, 0x0175
    14f2:	90 91 76 01 	lds	r25, 0x0176
   adcmv[1] = ReadADC(CAP_ADC);	// get cap voltage with internal reference
    14f6:	04 e0       	ldi	r16, 0x04	; 4
    14f8:	26 e4       	ldi	r18, 0x46	; 70
   adcmv[1] += adcmv[1];		// double the value
    14fa:	40 91 85 01 	lds	r20, 0x0185
    14fe:	f6 d8       	rcall	.-3604   	; 0x6ec <DisplayValue>
   ADCconfig.U_Bandgap = 0;	// do not use internal Ref
    1500:	0e 94 4e 02 	call	0x49c	; 0x49c <lcd_clear_line>
    1504:	88 e2       	ldi	r24, 0x28	; 40
    1506:	26 da       	rcall	.-2996   	; 0x954 <sleep_5ms>
   adcmv[2] = ReadADC(CAP_ADC);  // get cap voltage with VCC reference
    1508:	ba 94       	dec	r11
    150a:	09 f0       	breq	.+2      	; 0x150e <AutoCheck+0x756>
    150c:	2e cf       	rjmp	.-420    	; 0x136a <AutoCheck+0x5b2>
   ADCconfig.U_Bandgap = adc_internal_reference;
    150e:	8e e1       	ldi	r24, 0x1E	; 30
    1510:	80 93 2b 01 	sts	0x012B, r24
    1514:	80 e0       	ldi	r24, 0x00	; 0
    1516:	0e 94 37 2b 	call	0x566e	; 0x566e <sampling_lc_calibrate>
    151a:	0e 94 b2 01 	call	0x364	; 0x364 <lcd_clear>
   udiff = (int8_t)(((signed long)(adcmv[0] + adcmv[2] - adcmv[1])) * adc_internal_reference / adcmv[1])+REF_R_KORR;
    151e:	83 e1       	ldi	r24, 0x13	; 19
    1520:	91 e0       	ldi	r25, 0x01	; 1
    1522:	0e 94 d1 01 	call	0x3a2	; 0x3a2 <lcd_fix_string>
   lcd_line2();
    1526:	0e 94 8a 01 	call	0x314	; 0x314 <lcd_line2>
   lcd_MEM2_string(REF_R_str);	// "REF_R="
    152a:	86 e3       	ldi	r24, 0x36	; 54
    152c:	92 e0       	ldi	r25, 0x02	; 2
    152e:	0e 94 d1 01 	call	0x3a2	; 0x3a2 <lcd_fix_string>
   udiff2 = udiff + (int8_t)eeprom_read_byte((uint8_t *)(&RefDiff));
    1532:	10 92 1a 01 	sts	0x011A, r1
    1536:	82 e0       	ldi	r24, 0x02	; 2
    1538:	80 93 3e 01 	sts	0x013E, r24
   adcmv[1] = ReadADC(CAP_ADC);	// get cap voltage with internal reference
   adcmv[1] += adcmv[1];		// double the value
   ADCconfig.U_Bandgap = 0;	// do not use internal Ref
   adcmv[2] = ReadADC(CAP_ADC);  // get cap voltage with VCC reference
   ADCconfig.U_Bandgap = adc_internal_reference;
   udiff = (int8_t)(((signed long)(adcmv[0] + adcmv[2] - adcmv[1])) * adc_internal_reference / adcmv[1])+REF_R_KORR;
    153c:	f2 da       	rcall	.-2588   	; 0xb22 <wait_for_key_5s_line2>
    153e:	03 c0       	rjmp	.+6      	; 0x1546 <AutoCheck+0x78e>
    1540:	52 e0       	ldi	r21, 0x02	; 2
    1542:	85 2e       	mov	r8, r21
    1544:	2a ce       	rjmp	.-940    	; 0x119a <AutoCheck+0x3e2>
    1546:	63 96       	adiw	r28, 0x13	; 19
    1548:	e2 e1       	ldi	r30, 0x12	; 18
    154a:	0c 94 ec 31 	jmp	0x63d8	; 0x63d8 <__epilogue_restores__>

0000154e <mark_as_uncalibrated>:
    154e:	80 91 37 01 	lds	r24, 0x0137
    1552:	81 11       	cpse	r24, r1
    1554:	0d c0       	rjmp	.+26     	; 0x1570 <mark_as_uncalibrated+0x22>
   lcd_line2();
   lcd_MEM2_string(REF_R_str);	// "REF_R="
   udiff2 = udiff + (int8_t)eeprom_read_byte((uint8_t *)(&RefDiff));
    1556:	88 e3       	ldi	r24, 0x38	; 56
   (void) eeprom_write_byte((uint8_t *)(&RefDiff), (uint8_t)udiff2);	// hold offset for true reference Voltage
    1558:	93 e0       	ldi	r25, 0x03	; 3
    155a:	0e 94 4b 32 	call	0x6496	; 0x6496 <__eerd_byte_m328p>
    155e:	61 e0       	ldi	r22, 0x01	; 1
    1560:	68 0f       	add	r22, r24
   i2lcd(udiff2);		// output correction voltage
    1562:	8b e3       	ldi	r24, 0x3B	; 59
    1564:	93 e0       	ldi	r25, 0x03	; 3
    1566:	0e 94 58 32 	call	0x64b0	; 0x64b0 <__eewr_byte_m328p>
    156a:	81 e0       	ldi	r24, 0x01	; 1
    156c:	80 93 37 01 	sts	0x0137, r24
   RefVoltage();			// set new ADCconfig.U_Bandgap
    1570:	08 95       	ret

00001572 <GetIr>:
  #endif	/* end AUTOSCALE_ADC */
   last_line_used = 2;
    1572:	cf 92       	push	r12
    1574:	df 92       	push	r13
    1576:	ff 92       	push	r15
   wait_for_key_5s_line2();		// wait up to 5 seconds and clear line 2
    1578:	0f 93       	push	r16
    157a:	1f 93       	push	r17
   UnCalibrated = 0;		// clear the UnCalibrated Flag
    157c:	cf 93       	push	r28
    157e:	df 93       	push	r29
   lcd_cursor_off();		// switch cursor off
    1580:	1f 92       	push	r1
    1582:	cd b7       	in	r28, 0x3d	; 61
    1584:	de b7       	in	r29, 0x3e	; 62
   cap_found = eeprom_read_byte((uint8_t *)&c_zero_tab[0]);	// read first capacity zero offset
    1586:	e8 2f       	mov	r30, r24
    1588:	f0 e0       	ldi	r31, 0x00	; 0
    158a:	ed 56       	subi	r30, 0x6D	; 109
    158c:	fe 4f       	sbci	r31, 0xFE	; 254
   eeprom_write_byte((uint8_t *)&c_zero_tab[3], cap_found);	// mark as calibrated permanent
    158e:	e4 91       	lpm	r30, Z
    1590:	e8 b9       	out	0x08, r30	; 8
    1592:	e7 b9       	out	0x07, r30	; 7
    1594:	15 b8       	out	0x05, r1	; 5
    1596:	e6 2f       	mov	r30, r22
   break;			// leave the ww for loop
    1598:	f0 e0       	ldi	r31, 0x00	; 0
    159a:	e0 57       	subi	r30, 0x70	; 112
  }  /* end if (cap_found > 4) */
  lcd_line2();
    159c:	fe 4f       	sbci	r31, 0xFE	; 254
    159e:	e4 91       	lpm	r30, Z
  DisplayValue(cap.cval,cap.cpre,'F',4);
    15a0:	e4 b9       	out	0x04, r30	; 4
    15a2:	08 e8       	ldi	r16, 0x88	; 136
    15a4:	13 e1       	ldi	r17, 0x13	; 19
    15a6:	fe 2e       	mov	r15, r30
    15a8:	ff 0c       	add	r15, r15
    15aa:	86 2f       	mov	r24, r22
    15ac:	69 83       	std	Y+1, r22	; 0x01
    15ae:	fe d9       	rcall	.-3076   	; 0x9ac <W20msReadADC>
    15b0:	6c 01       	movw	r12, r24
    15b2:	f4 b8       	out	0x04, r15	; 4
    15b4:	69 81       	ldd	r22, Y+1	; 0x01
    15b6:	80 17       	cp	r24, r16
    15b8:	91 07       	cpc	r25, r17
    15ba:	10 f4       	brcc	.+4      	; 0x15c0 <GetIr+0x4e>
  lcd_clear_line();
    15bc:	8c 01       	movw	r16, r24
    15be:	f5 cf       	rjmp	.-22     	; 0x15aa <GetIr+0x38>
  lcd_refresh();		// write the pixels to display, ST7920 only
  wait_about200ms();			// wait additional time
    15c0:	00 97       	sbiw	r24, 0x00	; 0
    15c2:	d1 f0       	breq	.+52     	; 0x15f8 <GetIr+0x86>
    15c4:	89 e4       	ldi	r24, 0x49	; 73
    15c6:	91 e0       	ldi	r25, 0x01	; 1
lcd_testpin(TP1);
lcd_MEM_string(CapZeich);	// "-||-"
lcd_testpin(TP3);
lcd_MEM2_string(MinCap_str);	// " >100nF!"
#endif
for (ww=0;ww<64;ww++) {
    15c8:	0e 94 d1 01 	call	0x3a2	; 0x3a2 <lcd_fix_string>
  wait_about200ms();			// wait additional time
} // end for ww
}	/* end if((test_mode & 0x0f) == 1) */
 #endif  /* end AUTO_CAL */

ADCconfig.Samples = ANZ_MESS;	// set to configured number of ADC samples
    15cc:	d6 01       	movw	r26, r12
    15ce:	20 ea       	ldi	r18, 0xA0	; 160
    15d0:	36 e8       	ldi	r19, 0x86	; 134

#if defined(SamplingADC) && !defined(AUTO_LC_CAP)
  sampling_lc_calibrate(0);	// Cap for L-meas
    15d2:	41 e0       	ldi	r20, 0x01	; 1
    15d4:	50 e0       	ldi	r21, 0x00	; 0
    15d6:	0e 94 c0 31 	call	0x6380	; 0x6380 <__muluhisi3>
      // if key is pressed, don't repeat
      break;
   }
 } /* end for ww */
 #endif		/* end FREQUENCY_50HZ */
lcd_clear();
    15da:	28 e9       	ldi	r18, 0x98	; 152
lcd_MEM_string(VERSION_str);	//"Version ..."
    15dc:	37 eb       	ldi	r19, 0xB7	; 183
    15de:	40 e0       	ldi	r20, 0x00	; 0
    15e0:	50 e0       	ldi	r21, 0x00	; 0
    15e2:	0e 94 6d 31 	call	0x62da	; 0x62da <__udivmodsi4>
lcd_line2();
    15e6:	da 01       	movw	r26, r20
lcd_MEM_string(ATE);		//"Selftest End"
    15e8:	c9 01       	movw	r24, r18
    15ea:	22 e0       	ldi	r18, 0x02	; 2
    15ec:	41 e4       	ldi	r20, 0x41	; 65
    15ee:	67 ef       	ldi	r22, 0xF7	; 247
PartFound = PART_NONE;
    15f0:	6c d9       	rcall	.-3368   	; 0x8ca <DisplayValue16>
    15f2:	17 b8       	out	0x07, r1	; 7
     last_line_used = 2;
    15f4:	18 b8       	out	0x08, r1	; 8
    15f6:	14 b8       	out	0x04, r1	; 4
    15f8:	0f 90       	pop	r0
wait_for_key_5s_line2();		// wait up to 5 seconds and clear line 2
    15fa:	df 91       	pop	r29
    15fc:	cf 91       	pop	r28
    15fe:	1f 91       	pop	r17
      lcd_MEM_string(RHRH_str);	// "RHRH"
   }
				//############################################
   if (tt == 4) { // Text release probes
      lcd_MEM_string(RELPROBE);	// "Release Probes"
      if (AllProbesShorted() != 0) ww = MAX_REP-2;
    1600:	0f 91       	pop	r16
    1602:	ff 90       	pop	r15
    1604:	df 90       	pop	r13
lcd_line2();
lcd_MEM_string(ATE);		//"Selftest End"
PartFound = PART_NONE;
     last_line_used = 2;
wait_for_key_5s_line2();		// wait up to 5 seconds and clear line 2
} /* end AutoCheck */ 
    1606:	cf 90       	pop	r12
    1608:	08 95       	ret

0000160a <Battery_check>:

//	  Calibrate_UR();		// get Ref Voltages and Pin resistance
//        lcd_line1();			// Cursor to 1. row, column 1
	  
#ifdef BAT_CHECK
void Battery_check(void) {
    160a:	0f 93       	push	r16
    160c:	1f 93       	push	r17
    160e:	cf 93       	push	r28
    1610:	df 93       	push	r29
 uint16_t bat_voltage;
 uint16_t bat_adc;
  // Battery check is selected
  ReadADC(TPBAT);	//Dummy-Readout
    1612:	85 e0       	ldi	r24, 0x05	; 5
    1614:	d7 d9       	rcall	.-3154   	; 0x9c4 <ReadADC>
    1616:	85 e0       	ldi	r24, 0x05	; 5
  bat_adc = W5msReadADC(TPBAT); 	//with 5V reference
    1618:	d1 d9       	rcall	.-3166   	; 0x9bc <W5msReadADC>
    161a:	8c 01       	movw	r16, r24
    161c:	ec 01       	movw	r28, r24
    161e:	cc 0f       	add	r28, r28
  // A good result can be get with multiply by 4 and divide by 10 (about 0.75%).
  #if BAT_NUMERATOR <= (0xffff/U_VCC)
	  bat_voltage = (bat_adc*BAT_NUMERATOR)/BAT_DENOMINATOR + BAT_OUT;
  #else
   #if (BAT_NUMERATOR == 133) && (BAT_DENOMINATOR == 33)
	  bat_voltage = (bat_adc*4)+BAT_OUT;		// usually output only 2 digits
    1620:	dd 1f       	adc	r29, r29
    1622:	cc 0f       	add	r28, r28
    1624:	dd 1f       	adc	r29, r29
    1626:	2a 96       	adiw	r28, 0x0a	; 10
    1628:	10 92 35 01 	sts	0x0135, r1
   #else
	  bat_voltage = ((unsigned long)bat_adc*BAT_NUMERATOR)/BAT_DENOMINATOR + BAT_OUT;
   #endif
  #endif
  #if FLASHEND > 0x1fff
          DC_Pwr_mode = 0;
    162c:	c4 38       	cpi	r28, 0x84	; 132
    162e:	83 e0       	ldi	r24, 0x03	; 3
   #ifdef DC_PWR
          if ((bat_voltage < 900) || (bat_voltage > DC_PWR))
   #else
          if (bat_voltage < 900) 
    1630:	d8 07       	cpc	r29, r24
    1632:	50 f4       	brcc	.+20     	; 0x1648 <Battery_check+0x3e>
    1634:	89 ea       	ldi	r24, 0xA9	; 169
    1636:	91 e0       	ldi	r25, 0x01	; 1
   #endif
          {
             // no battery present, don't check,
	     lcd_MEM_string(DC_Pwr_Mode_str);	// "DC Pwr Mode"
    1638:	0e 94 d1 01 	call	0x3a2	; 0x3a2 <lcd_fix_string>
    163c:	0e 94 4e 02 	call	0x49c	; 0x49c <lcd_clear_line>
             lcd_clear_line();			// clear to end of line
    1640:	81 e0       	ldi	r24, 0x01	; 1
    1642:	80 93 35 01 	sts	0x0135, r24
             DC_Pwr_mode = 1;
    1646:	23 c0       	rjmp	.+70     	; 0x168e <Battery_check+0x84>
    1648:	88 eb       	ldi	r24, 0xB8	; 184
             return;
    164a:	91 e0       	ldi	r25, 0x01	; 1
          }
  #endif
         lcd_MEM_string(Bat_str);		//output: "Bat. "
    164c:	0e 94 d1 01 	call	0x3a2	; 0x3a2 <lcd_fix_string>
    1650:	62 e0       	ldi	r22, 0x02	; 2
    1652:	ce 01       	movw	r24, r28
	 Display_mV(bat_voltage,2);		// Display 2 Digits of this 10mV units
    1654:	45 d9       	rcall	.-3446   	; 0x8e0 <Display_mV>
    1656:	0e 94 67 01 	call	0x2ce	; 0x2ce <lcd_space>
    165a:	0a 3f       	cpi	r16, 0xFA	; 250
         lcd_space();
    165c:	86 e0       	ldi	r24, 0x06	; 6
    165e:	18 07       	cpc	r17, r24
  #define WARN_LEVEL (((unsigned long)(BAT_POOR+100)*(unsigned long)BAT_DENOMINATOR)/BAT_NUMERATOR)
 #endif
 #define POOR_LEVEL (((unsigned long)(BAT_POOR)*(unsigned long)BAT_DENOMINATOR)/BAT_NUMERATOR)

  // check the battery voltage
  if (bat_adc <  WARN_LEVEL) {
    1660:	80 f4       	brcc	.+32     	; 0x1682 <Battery_check+0x78>
    1662:	03 33       	cpi	r16, 0x33	; 51
    1664:	16 40       	sbci	r17, 0x06	; 6
    1666:	50 f4       	brcc	.+20     	; 0x167c <Battery_check+0x72>
     //Vcc < 7,3V; show Warning 
     if(bat_adc < POOR_LEVEL) {	
    1668:	88 ea       	ldi	r24, 0xA8	; 168
    166a:	92 e0       	ldi	r25, 0x02	; 2
    166c:	0e 94 d1 01 	call	0x3a2	; 0x3a2 <lcd_fix_string>
	//Vcc <6,3V; no proper operation is possible
	lcd_MEM_string(BatEmpty);	//Battery empty!
    1670:	0e 94 4e 02 	call	0x49c	; 0x49c <lcd_clear_line>
    1674:	8d ec       	ldi	r24, 0xCD	; 205
        lcd_clear_line();			// clear to end of line
    1676:	6e d9       	rcall	.-3364   	; 0x954 <sleep_5ms>
    1678:	48 db       	rcall	.-2416   	; 0xd0a <switch_tester_off>
	lcd_refresh();			// write the pixels to display, ST7920 only
	wait_about5s();			// Let time to read the "empty" message
    167a:	09 c0       	rjmp	.+18     	; 0x168e <Battery_check+0x84>
    167c:	8f ea       	ldi	r24, 0xAF	; 175
    167e:	92 e0       	ldi	r25, 0x02	; 2
        switch_tester_off();		// switch power off
    1680:	02 c0       	rjmp	.+4      	; 0x1686 <Battery_check+0x7c>
    1682:	85 eb       	ldi	r24, 0xB5	; 181
	return;
    1684:	91 e0       	ldi	r25, 0x01	; 1
     }
     lcd_MEM_string(BatWeak);		//Battery weak
    1686:	0e 94 d1 01 	call	0x3a2	; 0x3a2 <lcd_fix_string>
    168a:	0e 94 4e 02 	call	0x49c	; 0x49c <lcd_clear_line>
  } else { // Battery-voltage OK
     lcd_MEM_string(OK_str); 		// "OK"
    168e:	df 91       	pop	r29
    1690:	cf 91       	pop	r28
    1692:	1f 91       	pop	r17
  }
  lcd_clear_line();			// clear to end of line
    1694:	0f 91       	pop	r16
    1696:	08 95       	ret

00001698 <expand_FET_quadratic>:
   // Quadratic current curve can be calculated by:
   //  v1 = v0 - v1;
   //  return (uint32_t)((uint16_t)((uint32_t)(ii * v0) / v1) * v0) / v1;
   // But this simpler code need 100 bytes more flash than the following code!
   uint8_t drv, dri;	// needed for rounding
   v1 = v0 - v1;
    1698:	9c 01       	movw	r18, r24
    169a:	26 1b       	sub	r18, r22
    169c:	37 0b       	sbc	r19, r23
   drv = 0;
   dri = 0;
    169e:	b0 e0       	ldi	r27, 0x00	; 0
   //  v1 = v0 - v1;
   //  return (uint32_t)((uint16_t)((uint32_t)(ii * v0) / v1) * v0) / v1;
   // But this simpler code need 100 bytes more flash than the following code!
   uint8_t drv, dri;	// needed for rounding
   v1 = v0 - v1;
   drv = 0;
    16a0:	a0 e0       	ldi	r26, 0x00	; 0
   dri = 0;
   for (;;) {
      uint8_t dv, di;
      dv = (v1 + drv) >> 8;
    16a2:	b9 01       	movw	r22, r18
    16a4:	6a 0f       	add	r22, r26
    16a6:	71 1d       	adc	r23, r1
    16a8:	67 2f       	mov	r22, r23
    16aa:	77 27       	eor	r23, r23
      drv = (v1 + drv) & 0xff;		// remainder of voltage division by 256
    16ac:	a2 0f       	add	r26, r18
//      if (dv == 0) dv = 1;		// prevent infinite loop
      v1 += dv;      // increase v by 0.4 %;  unfortunately the compiler doesn't do this very smartly, insists on creating a 16-bit temporary variable for d
    16ae:	26 0f       	add	r18, r22
    16b0:	37 1f       	adc	r19, r23
      di = (ii + dri) >> 8;
    16b2:	ba 01       	movw	r22, r20
    16b4:	6b 0f       	add	r22, r27
    16b6:	71 1d       	adc	r23, r1
    16b8:	67 2f       	mov	r22, r23
    16ba:	77 27       	eor	r23, r23
      dri = (ii + dri) & 0xff;		// remainder of current division by 256
    16bc:	b4 0f       	add	r27, r20
      ii += di;     
    16be:	fb 01       	movw	r30, r22
    16c0:	ee 0f       	add	r30, r30
    16c2:	ff 1f       	adc	r31, r31
      ii += di;      // increase ii by 0.8 %
    16c4:	4e 0f       	add	r20, r30
    16c6:	5f 1f       	adc	r21, r31
      if (di > (60000>>8)) {
    16c8:	6b 3e       	cpi	r22, 0xEB	; 235
    16ca:	28 f4       	brcc	.+10     	; 0x16d6 <expand_FET_quadratic+0x3e>
         return 0;       
      }
         // no Idss measurement if Idss exceeds 40 mA, the ATmega's maximum pin current
         // note that this is actually quite safe, since by the time there's 40 mA running, the Vgs will be 40mA * 20 ohm = 0.8 V, so quite far from 0, so Id will be less than those 40 mA
      if (v1 > v0) return ii;      // V exceeds Vp, so we've reached Vgs=0 without Id exceeding 40 mA, so we can safely do the Idss measurement
    16cc:	82 17       	cp	r24, r18
    16ce:	93 07       	cpc	r25, r19
    16d0:	40 f7       	brcc	.-48     	; 0x16a2 <expand_FET_quadratic+0xa>
//      if (dv == 0) dv = 1;		// prevent infinite loop
      v1 += dv;      // increase v by 0.4 %;  unfortunately the compiler doesn't do this very smartly, insists on creating a 16-bit temporary variable for d
      di = (ii + dri) >> 8;
      dri = (ii + dri) & 0xff;		// remainder of current division by 256
      ii += di;     
      ii += di;      // increase ii by 0.8 %
    16d2:	ca 01       	movw	r24, r20
      }
         // no Idss measurement if Idss exceeds 40 mA, the ATmega's maximum pin current
         // note that this is actually quite safe, since by the time there's 40 mA running, the Vgs will be 40mA * 20 ohm = 0.8 V, so quite far from 0, so Id will be less than those 40 mA
      if (v1 > v0) return ii;      // V exceeds Vp, so we've reached Vgs=0 without Id exceeding 40 mA, so we can safely do the Idss measurement
   }
}
    16d4:	08 95       	ret
      di = (ii + dri) >> 8;
      dri = (ii + dri) & 0xff;		// remainder of current division by 256
      ii += di;     
      ii += di;      // increase ii by 0.8 %
      if (di > (60000>>8)) {
         return 0;       
    16d6:	80 e0       	ldi	r24, 0x00	; 0
    16d8:	90 e0       	ldi	r25, 0x00	; 0
    16da:	08 95       	ret

000016dc <CheckPins>:
}
#endif

//******************************************************************
void CheckPins(uint8_t HighPin, uint8_t LowPin, uint8_t TristatePin)
  {
    16dc:	ad e1       	ldi	r26, 0x1D	; 29
    16de:	b0 e0       	ldi	r27, 0x00	; 0
    16e0:	e4 e7       	ldi	r30, 0x74	; 116
    16e2:	fb e0       	ldi	r31, 0x0B	; 11
    16e4:	0c 94 d0 31 	jmp	0x63a0	; 0x63a0 <__prologue_saves__>
    16e8:	98 2e       	mov	r9, r24
    16ea:	86 2e       	mov	r8, r22
    16ec:	24 2e       	mov	r2, r20
  /*
    switch HighPin directls to VCC 
    switch R_L port for LowPin to GND 
    TristatePin remains switched to input , no action required 
  */
  wdt_reset();
    16ee:	a8 95       	wdr
  addr = &PinRLRHADCtab[LowPin-TP_MIN];		// Address of combined RL / RH / ADC pin table
    16f0:	e6 2f       	mov	r30, r22
    16f2:	f0 e0       	ldi	r31, 0x00	; 0
    16f4:	e0 57       	subi	r30, 0x70	; 112
    16f6:	fe 4f       	sbci	r31, 0xFE	; 254
  LoPinRL = pgm_read_byte(addr);		// instruction for LowPin R_L
    16f8:	24 91       	lpm	r18, Z
    16fa:	2e 87       	std	Y+14, r18	; 0x0e
#if FLASHEND > 0x1fff
 #if (((PIN_RL1 + 1) != PIN_RH1) || ((PIN_RL2 + 1) != PIN_RH2) || ((PIN_RL3 + 1) != PIN_RH3))
  addr += 3;			// address of PinRHtab[LowPin]
  LoPinRH = pgm_read_byte(addr);		// instruction for LowPin R_H
 #else
  LoPinRH = LoPinRL + LoPinRL;				// instruction for LowPin R_H
    16fc:	22 0f       	add	r18, r18
    16fe:	28 8f       	std	Y+24, r18	; 0x18
 #endif
  addr += 3;			// address of PinADCtab[LowPin]
    1700:	33 96       	adiw	r30, 0x03	; 3
  addr += 6;			// address of PinADCtab[LowPin]
 #else
  addr += 3;			// address of PinADCtab[LowPin], table PinRHtab is missing
 #endif
#endif
  LoADCp = pgm_read_byte(addr);		// instruction for ADC Low-Pin, including | TXD_VAL
    1702:	34 91       	lpm	r19, Z
    1704:	3b 83       	std	Y+3, r19	; 0x03

  addr = &PinRLRHADCtab[TristatePin-TP_MIN];
    1706:	e4 2f       	mov	r30, r20
    1708:	f0 e0       	ldi	r31, 0x00	; 0
    170a:	e0 57       	subi	r30, 0x70	; 112
    170c:	fe 4f       	sbci	r31, 0xFE	; 254
  TriPinRL = pgm_read_byte(addr);	// instruction for TristatePin R_L
    170e:	44 91       	lpm	r20, Z
    1710:	4c 83       	std	Y+4, r20	; 0x04
#if (((PIN_RL1 + 1) != PIN_RH1) || ((PIN_RL2 + 1) != PIN_RH2) || ((PIN_RL3 + 1) != PIN_RH3))
  addr += 3;			// address of PinRLtab[TristatePin]
  TriPinRH = pgm_read_byte(addr);	// instruction for TristatePin R_H
#else
  TriPinRH = TriPinRL + TriPinRL;			// instruction for TristatePin R_H
    1712:	f4 2e       	mov	r15, r20
    1714:	ff 0c       	add	r15, r15
#endif
#ifdef SHOW_R_DS
  addr += 3;			// address of PinADCtab[TristatePin]
    1716:	33 96       	adiw	r30, 0x03	; 3
  TriADCp = pgm_read_byte(addr);	// instruction for ADC Tristate-Pin, including | TXD_VAL
    1718:	b4 90       	lpm	r11, Z
#endif

  addr = &PinRLRHADCtab[HighPin-TP_MIN];
    171a:	e8 2f       	mov	r30, r24
    171c:	f0 e0       	ldi	r31, 0x00	; 0
    171e:	e0 57       	subi	r30, 0x70	; 112
    1720:	fe 4f       	sbci	r31, 0xFE	; 254
  HiPinRL = pgm_read_byte(addr);		// instruction for HighPin R_L
    1722:	54 91       	lpm	r21, Z
    1724:	59 83       	std	Y+1, r21	; 0x01
#if (((PIN_RL1 + 1) != PIN_RH1) || ((PIN_RL2 + 1) != PIN_RH2) || ((PIN_RL3 + 1) != PIN_RH3))
  addr += 3;			// address of PinRHtab[HighPin]
  HiPinRH = pgm_read_byte(addr);		// instruction for HighPin R_H
#else
  HiPinRH = HiPinRL + HiPinRL;				// instruction for HighPin R_H
    1726:	55 0f       	add	r21, r21
    1728:	5f 87       	std	Y+15, r21	; 0x0f
#endif
  addr += 3;			// address of PinADCtab[HighPin]
    172a:	33 96       	adiw	r30, 0x03	; 3
  HiADCp = pgm_read_byte(addr);		// instruction for ADC High-Pin, including | TXD_VAL 
    172c:	34 90       	lpm	r3, Z
  }
#else
  // first try the common emitter circuit for P-Channel type
     uint16_t v_change_n;
     uint16_t v_change_p;
  R_PORT = TriPinRL;			//resistor-Port TriState to 1
    172e:	45 b9       	out	0x05, r20	; 5
  R_DDR = LoPinRL | TriPinRL;		// resistor-Port Low-Pin to 0
    1730:	6e 85       	ldd	r22, Y+14	; 0x0e
    1732:	46 2b       	or	r20, r22
    1734:	4a 87       	std	Y+10, r20	; 0x0a
    1736:	44 b9       	out	0x04, r20	; 4
  ADC_DDR = HiADCm;		//High-Pin to output
    1738:	37 b8       	out	0x07, r3	; 7
  ADC_PORT = HiADCp;		//High-Pin fix to Vcc
    173a:	38 b8       	out	0x08, r3	; 8
  //for some MOSFET the gate (TristatePin) must be discharged
  adc.vCEs = W5msReadADC(LowPin);	// lp1 is the voltage at 680 Ohm with + Gate
    173c:	88 2d       	mov	r24, r8
    173e:	3e d9       	rcall	.-3460   	; 0x9bc <W5msReadADC>
    1740:	ac 01       	movw	r20, r24
    1742:	8c 81       	ldd	r24, Y+4	; 0x04
 #ifdef WITH_PUT
  R_PORT = TriPinRL | TriPinRH;
    1744:	8f 29       	or	r24, r15
    1746:	85 b9       	out	0x05, r24	; 5
    1748:	ee 84       	ldd	r14, Y+14	; 0x0e
  R_DDR = LoPinRL | TriPinRH;           
    174a:	ef 28       	or	r14, r15
    174c:	e4 b8       	out	0x04, r14	; 4
    174e:	88 2d       	mov	r24, r8
  adc.lp_otrh = W5msReadADC(LowPin);	//read voltage of Low-Pin  , with tri-state ping to plus via RH; prevents accidental triggering of PUT
    1750:	49 8f       	std	Y+25, r20	; 0x19
    1752:	5d 8f       	std	Y+29, r21	; 0x1d
    1754:	33 d9       	rcall	.-3482   	; 0x9bc <W5msReadADC>
    1756:	7e 85       	ldd	r23, Y+14	; 0x0e
    1758:	74 b9       	out	0x04, r23	; 4
 #endif
  R_DDR = LoPinRL;		// resistor-Port Low-Pin to 0
    175a:	88 2d       	mov	r24, r8
    175c:	2f d9       	rcall	.-3490   	; 0x9bc <W5msReadADC>
  adc.lp_otr = W5msReadADC(LowPin);	//read voltage of Low-Pin  , without Gate current (+)
    175e:	3c 01       	movw	r6, r24
    1760:	14 b8       	out	0x04, r1	; 4
    1762:	e1 d8       	rcall	.-3646   	; 0x926 <wait10ms>
    1764:	15 b8       	out	0x05, r1	; 5
  R_DDR = 0;
    1766:	8a 85       	ldd	r24, Y+10	; 0x0a
  wait10ms();	 			// release all current (clear TRIAC and Thyristor)
    1768:	84 b9       	out	0x04, r24	; 4
    176a:	88 2d       	mov	r24, r8
  R_PORT = 0;
    176c:	27 d9       	rcall	.-3506   	; 0x9bc <W5msReadADC>
  R_DDR = LoPinRL | TriPinRL;		// start current again
    176e:	49 8d       	ldd	r20, Y+25	; 0x19
    1770:	5d 8d       	ldd	r21, Y+29	; 0x1d
  adc.lp2 = W5msReadADC(LowPin);	// lp2 is the voltage at 680 Ohm with - Gate
    1772:	ba 01       	movw	r22, r20
    1774:	85 d9       	rcall	.-3318   	; 0xa80 <abs_diff>
    1776:	6c 01       	movw	r12, r24
  v_change_p = abs_diff(adc.lp2, adc.vCEs);
    1778:	9b 81       	ldd	r25, Y+3	; 0x03
    177a:	97 b9       	out	0x07, r25	; 7
    177c:	18 b8       	out	0x08, r1	; 8
    177e:	a9 81       	ldd	r26, Y+1	; 0x01
    1780:	bc 81       	ldd	r27, Y+4	; 0x04
    1782:	ab 2b       	or	r26, r27
     // switch to common emitter for NPN or N-channel FET
     ADC_DDR = LoADCm;		//Low-Pin to output
    1784:	ad 83       	std	Y+5, r26	; 0x05
    1786:	a5 b9       	out	0x05, r26	; 5
     ADC_PORT = TXD_VAL;		//Low-Pin fix to GND
    1788:	a4 b9       	out	0x04, r26	; 4
     R_PORT = HiPinRL | TriPinRL;
    178a:	89 2d       	mov	r24, r9
    178c:	17 d9       	rcall	.-3538   	; 0x9bc <W5msReadADC>
    178e:	7e d9       	rcall	.-3332   	; 0xa8c <vcc_diff>
    1790:	8c 01       	movw	r16, r24
    1792:	15 b8       	out	0x05, r1	; 5
     R_DDR = HiPinRL | TriPinRL;	// resistor-Port High-Pin and TriState-Pin to 1
    1794:	c8 d8       	rcall	.-3696   	; 0x926 <wait10ms>
     adc.hp1 = vcc_diff(W5msReadADC(HighPin));		// voltage at 680 Ohm with + Gate
    1796:	e9 81       	ldd	r30, Y+1	; 0x01
    1798:	e5 b9       	out	0x05, r30	; 5
    179a:	89 2d       	mov	r24, r9
    179c:	0f d9       	rcall	.-3554   	; 0x9bc <W5msReadADC>
    179e:	76 d9       	rcall	.-3348   	; 0xa8c <vcc_diff>
    17a0:	2c 01       	movw	r4, r24
     R_PORT = 0;			// clear Thyristor
    17a2:	f9 81       	ldd	r31, Y+1	; 0x01
     wait10ms();				// release all current (clear TRIAC and Thyristor)
    17a4:	f4 b9       	out	0x04, r31	; 4
    17a6:	89 2d       	mov	r24, r9
     R_PORT = HiPinRL;			//resistor-Port High-Pin to +, TriState to 0
    17a8:	09 d9       	rcall	.-3566   	; 0x9bc <W5msReadADC>
    17aa:	70 d9       	rcall	.-3360   	; 0xa8c <vcc_diff>
     adc.hp2 = vcc_diff(W5msReadADC(HighPin));	// voltage at 680 Ohm with - Gate
    17ac:	a8 2e       	mov	r10, r24
    17ae:	29 2f       	mov	r18, r25
    17b0:	b2 01       	movw	r22, r4
    17b2:	c8 01       	movw	r24, r16
    17b4:	2a 8f       	std	Y+26, r18	; 0x1a
    17b6:	64 d9       	rcall	.-3384   	; 0xa80 <abs_diff>
     R_DDR = HiPinRL;			// resistor-Port High-Pin to 1, TriState open
    17b8:	2a 8d       	ldd	r18, Y+26	; 0x1a
    17ba:	49 8d       	ldd	r20, Y+25	; 0x19
     adc.hp3 = vcc_diff(W5msReadADC(HighPin)); // voltage at 680 Ohm with open Gate
    17bc:	5d 8d       	ldd	r21, Y+29	; 0x1d
    17be:	80 32       	cpi	r24, 0x20	; 32
    17c0:	31 e0       	ldi	r19, 0x01	; 1
    17c2:	93 07       	cpc	r25, r19
    17c4:	30 f4       	brcc	.+12     	; 0x17d2 <CheckPins+0xf6>
    17c6:	60 e2       	ldi	r22, 0x20	; 32
    17c8:	c6 16       	cp	r12, r22
     v_change_n = abs_diff(adc.hp1, adc.hp2);
    17ca:	61 e0       	ldi	r22, 0x01	; 1
    17cc:	d6 06       	cpc	r13, r22
    17ce:	08 f4       	brcc	.+2      	; 0x17d2 <CheckPins+0xf6>
    17d0:	7e c5       	rjmp	.+2812   	; 0x22ce <CheckPins+0xbf2>
    17d2:	c4 0c       	add	r12, r4
  } else {
     // if ((adc.vCEs+288) > adc.lp2) goto checkDiode;	// no significant change
     if (abs_diff(adc.lp2, adc.vCEs) < 288) goto checkDiode;    // no significant change
  }
#endif
  if ((v_change_n < 288)  && (v_change_p < 288)) goto checkDiode; // no significant change
    17d4:	d5 1c       	adc	r13, r5
    17d6:	84 0f       	add	r24, r20
    17d8:	95 1f       	adc	r25, r21
    17da:	c8 16       	cp	r12, r24
    17dc:	d9 06       	cpc	r13, r25
    17de:	10 f0       	brcs	.+4      	; 0x17e4 <CheckPins+0x108>
    17e0:	2a 01       	movw	r4, r20
    17e2:	02 c0       	rjmp	.+4      	; 0x17e8 <CheckPins+0x10c>
    17e4:	6a 2c       	mov	r6, r10
    17e6:	72 2e       	mov	r7, r18
    17e8:	20 91 4e 01 	lds	r18, 0x014E
    17ec:	80 91 68 01 	lds	r24, 0x0168
//  if ((v_change_n+150) > (v_change_p + adc.hp3))
  if ((adc.hp2 + v_change_p) < (adc.vCEs + v_change_n))
    17f0:	90 e0       	ldi	r25, 0x00	; 0
    17f2:	82 0f       	add	r24, r18
    17f4:	91 1d       	adc	r25, r1
    17f6:	02 97       	sbiw	r24, 0x02	; 2
    17f8:	4c f0       	brlt	.+18     	; 0x180c <CheckPins+0x130>
    17fa:	21 30       	cpi	r18, 0x01	; 1
  R_PORT = TriPinRL;			//resistor-Port TriState to 1
  R_DDR = LoPinRL | TriPinRL;		// resistor-Port Low-Pin to 0
  ADC_DDR = HiADCm;		//High-Pin to output
  ADC_PORT = HiADCp;		//High-Pin fix to Vcc
  //for some MOSFET the gate (TristatePin) must be discharged
  adc.vCEs = W5msReadADC(LowPin);	// lp1 is the voltage at 680 Ohm with + Gate
    17fc:	09 f0       	breq	.+2      	; 0x1800 <CheckPins+0x124>
    17fe:	67 c5       	rjmp	.+2766   	; 0x22ce <CheckPins+0xbf2>
 #if DebugOut == 5
     lcd_data('c');
     lcd_data('N');
 #endif
     adc.vCEs = adc.hp2;	// voltage at + 680 Ohm with - Gate
     adc.lp_otr = adc.hp3;	// voltage at + 680 Ohm with open Gate
    1800:	90 91 4b 01 	lds	r25, 0x014B
  // a TRIAC is marked as two transistors at least (2 or 3)
  // both of NPN transistors (normal and inverse) are found, if ntrans.count == 2
  // both of PNP transistors (normal and inverse) are found, if ptrans.count == 2
  // If Transistor with protection diode is checked, all results are found,
  // if ntrans.count == 1 and ptrans.count == 1
  if ((ntrans.count + ptrans.count) > 1) {
    1804:	80 91 65 01 	lds	r24, 0x0165
    1808:	98 13       	cpse	r25, r24
    180a:	61 c5       	rjmp	.+2754   	; 0x22ce <CheckPins+0xbf2>
    180c:	79 81       	ldd	r23, Y+1	; 0x01
    180e:	7f 29       	or	r23, r15
    1810:	79 87       	std	Y+9, r23	; 0x09
    1812:	84 e7       	ldi	r24, 0x74	; 116
    1814:	48 16       	cp	r4, r24
     // all transistors found, no more search is needed
     // but TRIAC can be detected as NPNp with same pins as PNPn
     if (!((ntrans.count == 1) && (ntrans.b == ptrans.b))) {
    1816:	51 04       	cpc	r5, r1
    1818:	08 f4       	brcc	.+2      	; 0x181c <CheckPins+0x140>
    181a:	6c c1       	rjmp	.+728    	; 0x1af4 <CheckPins+0x418>
    181c:	c2 01       	movw	r24, r4
    181e:	88 0f       	add	r24, r24
    1820:	99 1f       	adc	r25, r25
    1822:	44 96       	adiw	r24, 0x14	; 20
    1824:	68 16       	cp	r6, r24
    1826:	79 06       	cpc	r7, r25
    1828:	08 f0       	brcs	.+2      	; 0x182c <CheckPins+0x150>
    182a:	64 c1       	rjmp	.+712    	; 0x1af4 <CheckPins+0x418>
    182c:	37 b8       	out	0x07, r3	; 7
  // Additional checking of adc.lp1 will prevent to detect a PNP as P-JFET.
//  if((PartMode <= PART_MODE_P_JFET) && (adc.lp_otr > 455)  && (adc.vCEs > 455))
  
//  if((adc.lp_otr > 455)  && (adc.vCEs > 455))
//  if((adc.vCEs > 115)  && ((adc.vCEs+100) > adc.lp_otr))
  if((adc.vCEs > 115)  && ((adc.vCEs+adc.vCEs+20) > adc.lp_otr))
    182e:	38 b8       	out	0x08, r3	; 8
    1830:	e4 b8       	out	0x04, r14	; 4
    1832:	88 2d       	mov	r24, r8
    1834:	bf d8       	rcall	.-3714   	; 0x9b4 <W10msReadADC>
    1836:	6c 01       	movw	r12, r24
    1838:	82 2d       	mov	r24, r2
    183a:	c4 d8       	rcall	.-3704   	; 0x9c4 <ReadADC>
    183c:	8c 01       	movw	r16, r24
    183e:	f5 b8       	out	0x05, r15	; 5
    1840:	88 2d       	mov	r24, r8
    1842:	b8 d8       	rcall	.-3728   	; 0x9b4 <W10msReadADC>
    1844:	96 01       	movw	r18, r12
    1846:	29 5a       	subi	r18, 0xA9	; 169
     {  //there is more than 650uA current without TristatePin current 
     // can be JFET or D-FET
     //Test if N-JFET or if self-conducting N-MOSFET
#ifdef EXACT_OTR
     ADC_DDR = HiADCm;		//High-Pin to output
    1848:	3d 4f       	sbci	r19, 0xFD	; 253
     ADC_PORT = HiADCp;		//High-Pin fix to Vcc
    184a:	18 b8       	out	0x08, r1	; 8
#endif
     R_DDR = LoPinRL | TriPinRH;	//switch R_H for Tristate-Pin (probably Gate) to GND
    184c:	28 17       	cp	r18, r24
     adc.lp1 = W10msReadADC(LowPin);	//measure voltage at the assumed Source 
    184e:	39 07       	cpc	r19, r25
    1850:	08 f0       	brcs	.+2      	; 0x1854 <CheckPins+0x178>
    1852:	9c c0       	rjmp	.+312    	; 0x198c <CheckPins+0x2b0>
    1854:	9b 81       	ldd	r25, Y+3	; 0x03
     adc.tp1 = ReadADC(TristatePin);	// measure Gate voltage
    1856:	97 b9       	out	0x07, r25	; 7
    1858:	a9 85       	ldd	r26, Y+9	; 0x09
    185a:	a4 b9       	out	0x04, r26	; 4
    185c:	a5 b9       	out	0x05, r26	; 5
     R_PORT = TriPinRH;			//switch R_H for Tristate-Pin (probably Gate) to VCC
    185e:	82 2d       	mov	r24, r2
     adc.lp2 = W10msReadADC(LowPin);	//measure voltage at the assumed Source again
    1860:	a9 d8       	rcall	.-3758   	; 0x9b4 <W10msReadADC>
    1862:	88 34       	cpi	r24, 0x48	; 72
    1864:	9f 40       	sbci	r25, 0x0F	; 15
     lcd_line3();
     mVOut(adc.vCEs);
     mVOut(adc.lp_otr);
#endif
     //If it is a self-conducting MOSFET or JFET, then must be: adc.lp2 > adc.lp1 
     if(adc.lp2>(adc.lp1+599)) {
    1866:	28 f0       	brcs	.+10     	; 0x1872 <CheckPins+0x196>
    1868:	85 e0       	ldi	r24, 0x05	; 5
    186a:	80 93 1a 01 	sts	0x011A, r24
    186e:	82 e2       	ldi	r24, 0x22	; 34
    1870:	04 c0       	rjmp	.+8      	; 0x187a <CheckPins+0x19e>
    1872:	85 e0       	ldi	r24, 0x05	; 5
    1874:	80 93 1a 01 	sts	0x011A, r24
        //measure voltage at the  Gate, differ between MOSFET and JFET
        ADC_PORT = TXD_VAL;
        ADC_DDR = LoADCm;	//Low-Pin fix to GND
    1878:	84 e2       	ldi	r24, 0x24	; 36
        R_DDR = TriPinRH | HiPinRL;	//High-Pin to output
    187a:	80 93 19 01 	sts	0x0119, r24
        R_PORT = TriPinRH | HiPinRL;	//switch R_L for High-Pin to VCC
    187e:	d0 92 44 01 	sts	0x0144, r13
        adc.lp2 = W10msReadADC(TristatePin); //read voltage of assumed Gate 
    1882:	c0 92 43 01 	sts	0x0143, r12
#if DebugOut == 5
        lcd_data('N');
#endif
        if(adc.lp2>3911) {  //MOSFET
    1886:	b8 01       	movw	r22, r16
    1888:	c6 01       	movw	r24, r12
    188a:	05 d9       	rcall	.-3574   	; 0xa96 <unsigned_diff>
           PartFound = PART_FET;	//N-Kanal-MOSFET
    188c:	90 93 4a 01 	sts	0x014A, r25
    1890:	80 93 49 01 	sts	0x0149, r24
           PartMode = PART_MODE_MOS|N_CHANNEL|D_MODE; //Depletion-MOSFET
    1894:	96 01       	movw	r18, r12
#if DebugOut == 5
        lcd_data('D');
#endif
        } else {  //JFET (pn-passage between Gate and Source is conducting )
           PartFound = PART_FET;	//N-Kanal-JFET
    1896:	a0 e1       	ldi	r26, 0x10	; 16
    1898:	b7 e2       	ldi	r27, 0x27	; 39
    189a:	0e 94 ab 31 	call	0x6356	; 0x6356 <__umulhisi3>
           PartMode = PART_MODE_JFET|N_CHANNEL|D_MODE;
    189e:	20 91 14 01 	lds	r18, 0x0114
#if DebugOut == 5
        lcd_space();
#endif
//      if ((PartReady == 0) || (adc.lp1 > ntrans.uBE)) 
//      there is no way to find out the right Source / Drain
        ntrans.uBE = adc.lp1;
    18a2:	30 91 15 01 	lds	r19, 0x0115
    18a6:	40 e0       	ldi	r20, 0x00	; 0
    18a8:	50 e0       	ldi	r21, 0x00	; 0
        ntrans.gthvoltage = unsigned_diff(adc.lp1, adc.tp1);	//voltage GS (Source - Gate)
    18aa:	0e 94 6d 31 	call	0x62da	; 0x62da <__udivmodsi4>
    18ae:	30 93 46 01 	sts	0x0146, r19
    18b2:	20 93 45 01 	sts	0x0145, r18
    18b6:	88 8d       	ldd	r24, Y+24	; 0x18
    18b8:	8f 29       	or	r24, r15
        ntrans.current = (unsigned int)(((unsigned long)adc.lp1 * 10000) / RR680MI); // Id 1uA
    18ba:	84 b9       	out	0x04, r24	; 4
    18bc:	15 b8       	out	0x05, r1	; 5
    18be:	37 b8       	out	0x07, r3	; 7
    18c0:	38 b8       	out	0x08, r3	; 8
    18c2:	82 2d       	mov	r24, r2
    18c4:	7f d8       	rcall	.-3842   	; 0x9c4 <ReadADC>
    18c6:	8c 01       	movw	r16, r24
    18c8:	88 2d       	mov	r24, r8
    18ca:	74 d8       	rcall	.-3864   	; 0x9b4 <W10msReadADC>
    18cc:	b8 01       	movw	r22, r16
    18ce:	e3 d8       	rcall	.-3642   	; 0xa96 <unsigned_diff>
    18d0:	90 93 48 01 	sts	0x0148, r25
    18d4:	80 93 47 01 	sts	0x0147, r24
    18d8:	20 91 19 01 	lds	r18, 0x0119
#ifdef SHOW_ICE
 // Test for cutoff Voltage, idea from Pieter-Tjerk
        R_DDR = LoPinRH | TriPinRH;
    18dc:	2f 70       	andi	r18, 0x0F	; 15
    18de:	24 30       	cpi	r18, 0x04	; 4
    18e0:	59 f5       	brne	.+86     	; 0x1938 <CheckPins+0x25c>
	R_PORT = 0;			// Low + Tristate Pin with 470k to 0V
    18e2:	40 91 45 01 	lds	r20, 0x0145
	ADC_DDR = HiADCm;
	ADC_PORT = HiADCp;		// High Pin to VCC
    18e6:	50 91 46 01 	lds	r21, 0x0146
	ntrans.ice0 = unsigned_diff(W10msReadADC(LowPin), ReadADC(TristatePin)); // Gate-Source Voltage
    18ea:	60 91 49 01 	lds	r22, 0x0149
    18ee:	70 91 4a 01 	lds	r23, 0x014A
    18f2:	d2 de       	rcall	.-604    	; 0x1698 <expand_FET_quadratic>
    18f4:	00 97       	sbiw	r24, 0x00	; 0
    18f6:	e1 f0       	breq	.+56     	; 0x1930 <CheckPins+0x254>
    18f8:	f4 b8       	out	0x04, r15	; 4
    18fa:	eb 81       	ldd	r30, Y+3	; 0x03
    18fc:	3e 2a       	or	r3, r30
    18fe:	37 b8       	out	0x07, r3	; 7
    1900:	88 2d       	mov	r24, r8
    1902:	58 d8       	rcall	.-3920   	; 0x9b4 <W10msReadADC>
    lcd_line4();
    lcd_data('N');
    lcd_data('j');
    lcd_space();
  #endif
    if ((PartMode&0x0f) == PART_MODE_JFET)
    1904:	8c 01       	movw	r16, r24
    1906:	17 b8       	out	0x07, r1	; 7
    1908:	9c 01       	movw	r18, r24
    190a:	a0 e1       	ldi	r26, 0x10	; 16
    190c:	b7 e2       	ldi	r27, 0x27	; 39
        {
           uint16_t i16;
           // extrapolate the quadratic relationship between Id and Vgs, to estimate Idss
           i16 = expand_FET_quadratic(ntrans.ice0,ntrans.gthvoltage,ntrans.current);
    190e:	0e 94 ab 31 	call	0x6356	; 0x6356 <__umulhisi3>
    1912:	20 91 38 01 	lds	r18, 0x0138
    1916:	30 91 39 01 	lds	r19, 0x0139
    191a:	40 e0       	ldi	r20, 0x00	; 0
    191c:	50 e0       	ldi	r21, 0x00	; 0
    191e:	0e 94 6d 31 	call	0x62da	; 0x62da <__udivmodsi4>
  #if DebugOut == 5
           DisplayValue(i16,-6,' ',3);
  #endif
           // i16=0 if estimated Idss would exceed 40 mA, so don't measure then
           if (i16 != 0) {
    1922:	a9 01       	movw	r20, r18
    1924:	b8 01       	movw	r22, r16
//               R_PORT = 0; 
               R_DDR = TriPinRH;	// gate to ground via RH
    1926:	80 91 47 01 	lds	r24, 0x0147
//               ADC_PORT = HiADCp;       // drain to Vcc, source to gnd, both without resistors
               ADC_DDR = HiADCm|LoADCp;
    192a:	90 91 48 01 	lds	r25, 0x0148
               adc.lp2 = W10msReadADC(LowPin);	//measure voltage at the Source; this is the voltage drop across the pin's ~20 ohm internal resistance!
    192e:	b4 de       	rcall	.-664    	; 0x1698 <expand_FET_quadratic>
    1930:	90 93 44 01 	sts	0x0144, r25
    1934:	80 93 43 01 	sts	0x0143, r24
               ADC_DDR = TXD_MSK;             // disconnect drain and source immediately after measurement, since quite a lot of current may flow
               // this is almost the Idss, since the gate-source voltage is almost 0 (only the voltage drop across that 20 ohm resistance)
               i16 = (unsigned int)(((unsigned long)adc.lp2 * 10000) / pin_rmi); // Idss 1uA
    1938:	80 91 19 01 	lds	r24, 0x0119
    193c:	8f 70       	andi	r24, 0x0F	; 15
    193e:	84 30       	cpi	r24, 0x04	; 4
    1940:	09 f4       	brne	.+2      	; 0x1944 <CheckPins+0x268>
    1942:	bd c4       	rjmp	.+2426   	; 0x22be <CheckPins+0xbe2>
    1944:	18 b8       	out	0x08, r1	; 8
    1946:	eb 80       	ldd	r14, Y+3	; 0x03
    1948:	eb 28       	or	r14, r11
    194a:	e7 b8       	out	0x07, r14	; 7
    194c:	f9 81       	ldd	r31, Y+1	; 0x01
    194e:	f4 b9       	out	0x04, r31	; 4
    1950:	2d 81       	ldd	r18, Y+5	; 0x05
  #if DebugOut == 5
           DisplayValue(i16,-6,' ',3);
  #endif
               i16 = expand_FET_quadratic(ntrans.ice0,adc.lp2,i16);
    1952:	25 b9       	out	0x05, r18	; 5
    1954:	89 2d       	mov	r24, r9
    1956:	32 d8       	rcall	.-3996   	; 0x9bc <W5msReadADC>
    1958:	6c 01       	movw	r12, r24
    195a:	98 d8       	rcall	.-3792   	; 0xa8c <vcc_diff>
    195c:	8c 01       	movw	r16, r24
    195e:	88 2d       	mov	r24, r8
    1960:	31 d8       	rcall	.-3998   	; 0x9c4 <ReadADC>
  #if DebugOut == 5
           DisplayValue(i16,-6,' ',3);
  #endif
           }
           ntrans.uBE = i16;
    1962:	e0 90 1b 01 	lds	r14, 0x011B
    1966:	f0 90 1c 01 	lds	r15, 0x011C
        }
 #endif
 #ifdef SHOW_R_DS
    if ((PartMode&0x0f) != PART_MODE_JFET)
    196a:	bc 01       	movw	r22, r24
    196c:	c6 01       	movw	r24, r12
    196e:	93 d8       	rcall	.-3802   	; 0xa96 <unsigned_diff>
    1970:	9c 01       	movw	r18, r24
    1972:	d7 01       	movw	r26, r14
    1974:	0e 94 ab 31 	call	0x6356	; 0x6356 <__umulhisi3>
            // For depletion MOSFET we try to put the Gate to the same level as Source.
            // The source level is higher than 0V because of the Port output resistance and current.
            // When the Drain-Source resistance is low, we can get nearly the same voltage increase
            // at the Gate with current from the 680 Ohm Port (RL).
            ADC_PORT = TXD_VAL;
            ADC_DDR = LoADCm | TriADCp;	//Low-Pin and Tristate-Pin fix to GND
    1978:	98 01       	movw	r18, r16
    197a:	40 e0       	ldi	r20, 0x00	; 0
    197c:	50 e0       	ldi	r21, 0x00	; 0
//            R_DDR = TriPinRL | HiPinRL;	// L-Resistor High-Pin and Tristate-Pin to output
            R_DDR =  HiPinRL;	// L-Resistor High-Pin and Tristate-Pin to output
    197e:	0e 94 6d 31 	call	0x62da	; 0x62da <__udivmodsi4>
            R_PORT = TriPinRL | HiPinRL;	//switch R_L for High-Pin and Tristate-Pin to VCC
    1982:	30 93 44 01 	sts	0x0144, r19
            adc.hp2 = W5msReadADC(HighPin);	//measure the voltage at the Drain  
    1986:	20 93 43 01 	sts	0x0143, r18
    198a:	99 c4       	rjmp	.+2354   	; 0x22be <CheckPins+0xbe2>
    198c:	3b 81       	ldd	r19, Y+3	; 0x03
            adc.rhp = vcc_diff(adc.hp2);	// voltage at the Drain resistor
    198e:	37 b9       	out	0x07, r19	; 7
    1990:	49 85       	ldd	r20, Y+9	; 0x09
    1992:	44 b9       	out	0x04, r20	; 4
            adc.lp2 = ReadADC(LowPin);		// voltage at the Source 
    1994:	45 b9       	out	0x05, r20	; 5
    1996:	89 2d       	mov	r24, r9
    1998:	0d d8       	rcall	.-4070   	; 0x9b4 <W10msReadADC>
            ntrans.uBE = RR680PL * (unsigned long)unsigned_diff(adc.hp2, adc.lp2) / adc.rhp; // DS resistance in 0.1 OHm
    199a:	6c 01       	movw	r12, r24
    199c:	82 2d       	mov	r24, r2
    199e:	12 d8       	rcall	.-4060   	; 0x9c4 <ReadADC>
    19a0:	8c 01       	movw	r16, r24
    19a2:	59 81       	ldd	r21, Y+1	; 0x01
    19a4:	55 b9       	out	0x05, r21	; 5
    19a6:	89 2d       	mov	r24, r9
    19a8:	05 d8       	rcall	.-4086   	; 0x9b4 <W10msReadADC>
    19aa:	89 5a       	subi	r24, 0xA9	; 169
    19ac:	9d 4f       	sbci	r25, 0xFD	; 253
    19ae:	8c 15       	cp	r24, r12
    19b0:	9d 05       	cpc	r25, r13
    19b2:	08 f0       	brcs	.+2      	; 0x19b6 <CheckPins+0x2da>
    19b4:	8c c4       	rjmp	.+2328   	; 0x22ce <CheckPins+0xbf2>
    19b6:	38 b8       	out	0x08, r3	; 8
    19b8:	37 b8       	out	0x07, r3	; 7
    19ba:	82 2d       	mov	r24, r2
    19bc:	0e 94 da 04 	call	0x9b4	; 0x9b4 <W10msReadADC>
    19c0:	81 3d       	cpi	r24, 0xD1	; 209
    19c2:	93 40       	sbci	r25, 0x03	; 3
    19c4:	28 f4       	brcc	.+10     	; 0x19d0 <CheckPins+0x2f4>
     }  /* end selfconducting N-channel  mode */

     ADC_PORT = TXD_VAL;		// direct outputs to GND

     //Test, if P-JFET or if self-conducting P-MOSFET
     ADC_DDR = LoADCm;		//switch Low-Pin (assumed Drain) direct to GND,
    19c6:	85 e0       	ldi	r24, 0x05	; 5
    19c8:	80 93 1a 01 	sts	0x011A, r24
				//R_H for Tristate-Pin (assumed Gate) is already switched to VCC
     R_DDR = TriPinRH | HiPinRL;	//High-Pin to output
    19cc:	82 e3       	ldi	r24, 0x32	; 50
     R_PORT = TriPinRH | HiPinRL;	//High-Pin across R_L to Vcc
    19ce:	04 c0       	rjmp	.+8      	; 0x19d8 <CheckPins+0x2fc>
     adc.hp1 = W10msReadADC(HighPin);	//measure voltage at assumed Source 
    19d0:	85 e0       	ldi	r24, 0x05	; 5
    19d2:	80 93 1a 01 	sts	0x011A, r24
    19d6:	84 e3       	ldi	r24, 0x34	; 52
     adc.tp1 = ReadADC(TristatePin);	// measure Gate voltage
    19d8:	80 93 19 01 	sts	0x0119, r24
    19dc:	b6 01       	movw	r22, r12
    19de:	c8 01       	movw	r24, r16
     R_PORT = HiPinRL;			//switch R_H for Tristate-Pin (assumed Gate) to GND
    19e0:	5a d8       	rcall	.-3916   	; 0xa96 <unsigned_diff>
    19e2:	90 93 64 01 	sts	0x0164, r25
     adc.hp2 = W10msReadADC(HighPin);	//read voltage at assumed Source again
    19e6:	80 93 63 01 	sts	0x0163, r24
     //if it is a self-conducting P_MOSFET or P-JFET , then must be:  adc.hp1 > adc.hp2 
     if(adc.hp1>(adc.hp2+599)) {
    19ea:	c6 01       	movw	r24, r12
    19ec:	4f d8       	rcall	.-3938   	; 0xa8c <vcc_diff>
    19ee:	9c 01       	movw	r18, r24
    19f0:	a0 e1       	ldi	r26, 0x10	; 16
    19f2:	b7 e2       	ldi	r27, 0x27	; 39
    19f4:	0e 94 ab 31 	call	0x6356	; 0x6356 <__umulhisi3>
        //read voltage at the Gate , to differ between MOSFET and JFET
        ADC_PORT = HiADCp;	//switch High-Pin directly to VCC
        ADC_DDR = HiADCm;	//switch High-Pin to output
    19f8:	20 91 1b 01 	lds	r18, 0x011B
        adc.tp2 = W10msReadADC(TristatePin); //read voltage at the assumed Gate 
    19fc:	30 91 1c 01 	lds	r19, 0x011C
#if DebugOut == 5
        lcd_data('P');
#endif
        if(adc.tp2<977) { 		//MOSFET
    1a00:	40 e0       	ldi	r20, 0x00	; 0
    1a02:	50 e0       	ldi	r21, 0x00	; 0
    1a04:	0e 94 6d 31 	call	0x62da	; 0x62da <__udivmodsi4>
           PartFound = PART_FET;	//P-Kanal-MOSFET
    1a08:	30 93 60 01 	sts	0x0160, r19
           PartMode = PART_MODE_MOS|P_CHANNEL|D_MODE; //Depletion-MOSFET
    1a0c:	20 93 5f 01 	sts	0x015F, r18
#if DebugOut == 5
           lcd_data('D');
#endif
        } else { 			//JFET (pn-passage between Gate and Source is conducting)
           PartFound = PART_FET;	//P-Kanal-JFET
    1a10:	18 b8       	out	0x08, r1	; 8
    1a12:	7b 81       	ldd	r23, Y+3	; 0x03
    1a14:	77 b9       	out	0x07, r23	; 7
           PartMode = PART_MODE_JFET|P_CHANNEL|D_MODE;
    1a16:	8f 85       	ldd	r24, Y+15	; 0x0f
    1a18:	8f 29       	or	r24, r15
    1a1a:	84 b9       	out	0x04, r24	; 4
#endif
        }
#if DebugOut == 5
        lcd_space();
#endif
        ptrans.gthvoltage = unsigned_diff(adc.tp1, adc.hp1);	//voltage GS (Gate - Source)
    1a1c:	85 b9       	out	0x05, r24	; 5
    1a1e:	89 2d       	mov	r24, r9
    1a20:	0e 94 e2 04 	call	0x9c4	; 0x9c4 <ReadADC>
    1a24:	8c 01       	movw	r16, r24
    1a26:	82 2d       	mov	r24, r2
    1a28:	0e 94 da 04 	call	0x9b4	; 0x9b4 <W10msReadADC>
        ptrans.current = (unsigned int)(((unsigned long)vcc_diff(adc.hp1) * 10000) / RR680PL); // Id 1uA
    1a2c:	b8 01       	movw	r22, r16
    1a2e:	33 d8       	rcall	.-3994   	; 0xa96 <unsigned_diff>
    1a30:	90 93 62 01 	sts	0x0162, r25
    1a34:	80 93 61 01 	sts	0x0161, r24
    1a38:	20 91 19 01 	lds	r18, 0x0119
    1a3c:	2f 70       	andi	r18, 0x0F	; 15
    1a3e:	24 30       	cpi	r18, 0x04	; 4
    1a40:	79 f5       	brne	.+94     	; 0x1aa0 <CheckPins+0x3c4>
    1a42:	40 91 5f 01 	lds	r20, 0x015F
    1a46:	50 91 60 01 	lds	r21, 0x0160
    1a4a:	60 91 63 01 	lds	r22, 0x0163
    1a4e:	70 91 64 01 	lds	r23, 0x0164
    1a52:	22 de       	rcall	.-956    	; 0x1698 <expand_FET_quadratic>
#ifdef SHOW_ICE
//	Test for cutoff Voltage, idea from Pieter-Tjerk
        ADC_PORT = TXD_VAL;		// direct outputs to GND
    1a54:	00 97       	sbiw	r24, 0x00	; 0
        ADC_DDR = LoADCm;		//switch Low-Pin (assumed Drain) direct to GND,
    1a56:	01 f1       	breq	.+64     	; 0x1a98 <CheckPins+0x3bc>
    1a58:	f5 b8       	out	0x05, r15	; 5
        R_DDR = TriPinRH | HiPinRH;	//High-Pin to output
    1a5a:	f4 b8       	out	0x04, r15	; 4
    1a5c:	38 b8       	out	0x08, r3	; 8
    1a5e:	8b 81       	ldd	r24, Y+3	; 0x03
        R_PORT = TriPinRH | HiPinRH;	//High-Pin and Tristate-Pin across R_H to Vcc
    1a60:	83 29       	or	r24, r3
        ptrans.ice0 = unsigned_diff(W10msReadADC(TristatePin), ReadADC(HighPin));	//measure voltage at assumed Source 
    1a62:	87 b9       	out	0x07, r24	; 7
    1a64:	89 2d       	mov	r24, r9
    1a66:	0e 94 da 04 	call	0x9b4	; 0x9b4 <W10msReadADC>
    1a6a:	10 d8       	rcall	.-4064   	; 0xa8c <vcc_diff>
    1a6c:	8c 01       	movw	r16, r24
    1a6e:	17 b8       	out	0x07, r1	; 7
    1a70:	9c 01       	movw	r18, r24
    1a72:	a0 e1       	ldi	r26, 0x10	; 16
    1a74:	b7 e2       	ldi	r27, 0x27	; 39
    1a76:	0e 94 ab 31 	call	0x6356	; 0x6356 <__umulhisi3>
    1a7a:	20 91 31 01 	lds	r18, 0x0131
  #if DebugOut == 5
        lcd_line4();
        lcd_data('P');
        lcd_data('J');
  #endif
        if ((PartMode&0x0f) == PART_MODE_JFET) 
    1a7e:	30 91 32 01 	lds	r19, 0x0132
    1a82:	40 e0       	ldi	r20, 0x00	; 0
    1a84:	50 e0       	ldi	r21, 0x00	; 0
    1a86:	0e 94 6d 31 	call	0x62da	; 0x62da <__udivmodsi4>
        {
           uint16_t i16;
           // extrapolate the quadratic relationship between Id and Vgs, to estimate Idss
           i16 = expand_FET_quadratic(ptrans.ice0,ptrans.gthvoltage,ptrans.current);
    1a8a:	a9 01       	movw	r20, r18
    1a8c:	b8 01       	movw	r22, r16
    1a8e:	80 91 61 01 	lds	r24, 0x0161
    1a92:	90 91 62 01 	lds	r25, 0x0162
    1a96:	00 de       	rcall	.-1024   	; 0x1698 <expand_FET_quadratic>
    1a98:	90 93 5e 01 	sts	0x015E, r25
  #if DebugOut == 5
           DisplayValue(i16,-6,' ',3);
  #endif
           // i16=0 if estimated Idss would exceed 40 mA, so don't measure then
           if (i16 != 0) {
    1a9c:	80 93 5d 01 	sts	0x015D, r24
               R_PORT = TriPinRH; 
    1aa0:	80 91 19 01 	lds	r24, 0x0119
               R_DDR = TriPinRH;	// gate to VCC via RH
               ADC_PORT = HiADCp;       // drain to GND, source to VCC, both without resistors
    1aa4:	8f 70       	andi	r24, 0x0F	; 15
               ADC_DDR = HiADCm|LoADCm;
    1aa6:	84 30       	cpi	r24, 0x04	; 4
    1aa8:	09 f4       	brne	.+2      	; 0x1aac <CheckPins+0x3d0>
    1aaa:	e1 c1       	rjmp	.+962    	; 0x1e6e <CheckPins+0x792>
               adc.hp3 = vcc_diff(W10msReadADC(HighPin));	//measure voltage at the Source; this is the voltage drop across the pin's ~20 ohm internal resistance!
    1aac:	3b 28       	or	r3, r11
    1aae:	38 b8       	out	0x08, r3	; 8
    1ab0:	37 b8       	out	0x07, r3	; 7
    1ab2:	15 b8       	out	0x05, r1	; 5
    1ab4:	8d 81       	ldd	r24, Y+5	; 0x05
    1ab6:	84 b9       	out	0x04, r24	; 4
               ADC_DDR = TXD_MSK;	// disconnect drain and source immediately after measurement, since quite a lot of current may flow
    1ab8:	89 2d       	mov	r24, r9
               // this is almost the Idss, since the gate-source voltage is almost 0 (only the voltage drop across that 20 ohm resistance)
               i16 = (unsigned int)(((unsigned long)adc.hp3 * 10000) / pin_rpl); // Idss 1uA
    1aba:	0e 94 de 04 	call	0x9bc	; 0x9bc <W5msReadADC>
    1abe:	7c 01       	movw	r14, r24
    1ac0:	88 2d       	mov	r24, r8
    1ac2:	0e 94 e2 04 	call	0x9c4	; 0x9c4 <ReadADC>
    1ac6:	6c 01       	movw	r12, r24
    1ac8:	00 91 14 01 	lds	r16, 0x0114
    1acc:	10 91 15 01 	lds	r17, 0x0115
    1ad0:	bc 01       	movw	r22, r24
    1ad2:	c7 01       	movw	r24, r14
  #if DebugOut == 5
           DisplayValue(i16,-6,' ',3);
  #endif
               i16 =expand_FET_quadratic(ptrans.ice0,adc.hp3,i16);
    1ad4:	0e 94 4b 05 	call	0xa96	; 0xa96 <unsigned_diff>
    1ad8:	9c 01       	movw	r18, r24
    1ada:	d8 01       	movw	r26, r16
    1adc:	0e 94 ab 31 	call	0x6356	; 0x6356 <__umulhisi3>
    1ae0:	96 01       	movw	r18, r12
    1ae2:	40 e0       	ldi	r20, 0x00	; 0
  #if DebugOut == 5
           DisplayValue(i16,-6,' ',3);
  #endif
           }
           ptrans.uBE = i16;
    1ae4:	50 e0       	ldi	r21, 0x00	; 0
    1ae6:	0e 94 6d 31 	call	0x62da	; 0x62da <__udivmodsi4>
    1aea:	30 93 5e 01 	sts	0x015E, r19
        }	/* end if ((PartMode&0x0f) == PART_MODE_JFET) */
 #endif
 #ifdef SHOW_R_DS
    if ((PartMode&0x0f) != PART_MODE_JFET)
    1aee:	20 93 5d 01 	sts	0x015D, r18
    1af2:	bd c1       	rjmp	.+890    	; 0x1e6e <CheckPins+0x792>
    1af4:	18 b8       	out	0x08, r1	; 8
    1af6:	9b 81       	ldd	r25, Y+3	; 0x03
         {
            // For depletion MOSFET we try to put the Gate to the same level as Source.
            // The source level is higher than 0V because of the Port output resistance and current.
            // When the Drain-Source resistance is low, we can get nearly the same voltage increase
            // at the Gate with current from the 680 Ohm Port (RL).
            ADC_PORT = HiADCp | TriADCp;	//switch High-Pin and Tristate-Pin to VCC
    1af8:	97 b9       	out	0x07, r25	; 7
    1afa:	a9 81       	ldd	r26, Y+1	; 0x01
            ADC_DDR = HiADCm | TriADCp;		//switch High-Pin and Tristate-Pin to output
    1afc:	a5 b9       	out	0x05, r26	; 5
            R_PORT = 0;			// switch R-Ports to 0
    1afe:	b9 85       	ldd	r27, Y+9	; 0x09
            R_DDR = TriPinRL | HiPinRL;	// L-Resistor High-Pin and Tristate-Pin to output
    1b00:	b4 b9       	out	0x04, r27	; 4
    1b02:	89 2d       	mov	r24, r9
            adc.hp2 = W5msReadADC(HighPin);	//measure the voltage at the Source  
    1b04:	0e 94 de 04 	call	0x9bc	; 0x9bc <W5msReadADC>
    1b08:	99 8b       	std	Y+17, r25	; 0x11
    1b0a:	88 8b       	std	Y+16, r24	; 0x10
            adc.lp1 = ReadADC(LowPin);		// voltage at the Drain 
    1b0c:	0e 94 46 05 	call	0xa8c	; 0xa8c <vcc_diff>
    1b10:	8c 01       	movw	r16, r24
    1b12:	82 2d       	mov	r24, r2
            ptrans.uBE = RR680MI * (unsigned long)unsigned_diff(adc.hp2, adc.lp1) / adc.lp1; // DS resistance in 0.1 OHm
    1b14:	0e 94 e2 04 	call	0x9c4	; 0x9c4 <ReadADC>
    1b18:	98 87       	std	Y+8, r25	; 0x08
    1b1a:	8f 83       	std	Y+7, r24	; 0x07
    1b1c:	63 01       	movw	r12, r6
    1b1e:	e4 e6       	ldi	r30, 0x64	; 100
    1b20:	ce 0e       	add	r12, r30
    1b22:	d1 1c       	adc	r13, r1
    1b24:	b3 01       	movw	r22, r6
    1b26:	c8 01       	movw	r24, r16
    1b28:	c0 16       	cp	r12, r16
    1b2a:	d1 06       	cpc	r13, r17
    1b2c:	b8 f4       	brcc	.+46     	; 0x1b5c <CheckPins+0x480>
    1b2e:	0e 94 4b 05 	call	0xa96	; 0xa96 <unsigned_diff>
    1b32:	5c 01       	movw	r10, r24
    1b34:	80 91 1b 01 	lds	r24, 0x011B
    1b38:	90 91 1c 01 	lds	r25, 0x011C
    1b3c:	9c 01       	movw	r18, r24
    1b3e:	40 e0       	ldi	r20, 0x00	; 0


  //there is less than 650uA current without TristatePin current 
#ifdef COMMON_COLLECTOR
  // Test circuit with common collector (Emitter follower) PNP
  ADC_PORT = TXD_VAL;
    1b40:	50 e0       	ldi	r21, 0x00	; 0
  ADC_DDR = LoADCm;			// Collector direct to GND
    1b42:	60 e8       	ldi	r22, 0x80	; 128
    1b44:	71 ea       	ldi	r23, 0xA1	; 161
 #endif
     // compute c_hfe with RL Base resistor
     c_hfe = (unsigned long)((unsigned long)unsigned_diff(adc.rhp, adc.tp1) * 100) / adc.tp1;
  }
#else
  R_PORT = HiPinRL;			// switch R_L port for HighPin (Emitter) to VCC
    1b46:	83 e0       	ldi	r24, 0x03	; 3
    1b48:	9c e1       	ldi	r25, 0x1C	; 28
  R_DDR =  TriPinRH | HiPinRL;	// Tripin=RH-
    1b4a:	0e 94 6d 31 	call	0x62da	; 0x62da <__udivmodsi4>
  adc.hp1 = W5msReadADC(HighPin);
    1b4e:	d5 01       	movw	r26, r10
    1b50:	0e 94 c0 31 	call	0x6380	; 0x6380 <__muluhisi3>
    1b54:	af 81       	ldd	r26, Y+7	; 0x07
    1b56:	b8 85       	ldd	r27, Y+8	; 0x08
  adc.rhp = vcc_diff(adc.hp1);	// voltage at the Emitter resistor
    1b58:	9d 01       	movw	r18, r26
    1b5a:	1e c0       	rjmp	.+60     	; 0x1b98 <CheckPins+0x4bc>
    1b5c:	0e 94 4b 05 	call	0xa96	; 0xa96 <unsigned_diff>
  adc.tp1 = ReadADC(TristatePin);	// voltage at base resistor 
    1b60:	5c 01       	movw	r10, r24
    1b62:	bd 81       	ldd	r27, Y+5	; 0x05
    1b64:	b4 b9       	out	0x04, r27	; 4
    1b66:	89 2d       	mov	r24, r9
 #if DebugOut == 5
  lcd_line4();
  lcd_data('P');
 #endif
  if (adc.rhp > (100+adc.lp_otr)) {
    1b68:	0e 94 de 04 	call	0x9bc	; 0x9bc <W5msReadADC>
    1b6c:	99 8b       	std	Y+17, r25	; 0x11
    1b6e:	88 8b       	std	Y+16, r24	; 0x10

     tmp16 = unsigned_diff(adc.rhp, adc.lp_otr);	// subtract residual current
    1b70:	0e 94 46 05 	call	0xa8c	; 0xa8c <vcc_diff>
  adc.tp1 = ReadADC(TristatePin);	// voltage at base resistor 
 #if DebugOut == 5
  lcd_line4();
  lcd_data('P');
 #endif
  if (adc.rhp > (100+adc.lp_otr)) {
    1b74:	8c 01       	movw	r16, r24
    1b76:	82 2d       	mov	r24, r2
    1b78:	0e 94 e2 04 	call	0x9c4	; 0x9c4 <ReadADC>

     tmp16 = unsigned_diff(adc.rhp, adc.lp_otr);	// subtract residual current
    1b7c:	98 87       	std	Y+8, r25	; 0x08
    1b7e:	8f 83       	std	Y+7, r24	; 0x07
 #ifdef LONG_HFE
  #if DebugOut == 5
     lcd_data('H');	// PHcc
  #endif
     c_hfe = ((unsigned long)tmp16 * (unsigned long)(((unsigned long)R_H_VAL * 10000) / 
    1b80:	bc 01       	movw	r22, r24
    1b82:	c5 01       	movw	r24, r10
    1b84:	0e 94 4b 05 	call	0xa96	; 0xa96 <unsigned_diff>
    1b88:	9c 01       	movw	r18, r24
    1b8a:	a4 e6       	ldi	r26, 0x64	; 100
    1b8c:	b0 e0       	ldi	r27, 0x00	; 0
    1b8e:	0e 94 ab 31 	call	0x6356	; 0x6356 <__umulhisi3>
    1b92:	ef 81       	ldd	r30, Y+7	; 0x07
    1b94:	f8 85       	ldd	r31, Y+8	; 0x08
    1b96:	9f 01       	movw	r18, r30
    1b98:	40 e0       	ldi	r20, 0x00	; 0
    1b9a:	50 e0       	ldi	r21, 0x00	; 0
    1b9c:	0e 94 6d 31 	call	0x62da	; 0x62da <__udivmodsi4>
              (unsigned int)RR680PL)) / (unsigned int)adc.tp1;	
    1ba0:	2c 8b       	std	Y+20, r18	; 0x14
    1ba2:	3d 8b       	std	Y+21, r19	; 0x15
    1ba4:	4e 8b       	std	Y+22, r20	; 0x16
    1ba6:	5f 8b       	std	Y+23, r21	; 0x17
     lcd_data('h');	// Phcc
  #endif
     c_hfe = ((tmp16 / ((RR680PL+500)/1000)) * (R_H_VAL/500)) / (adc.tp1/5);
 #endif
  } else {
     tmp16 = unsigned_diff(adc.rhp, adc.lp_otr);
    1ba8:	14 b8       	out	0x04, r1	; 4
    1baa:	15 b8       	out	0x05, r1	; 5
    1bac:	38 b8       	out	0x08, r3	; 8
     R_DDR = TriPinRL | HiPinRL;		// Base resistor  R_L to GND
    1bae:	37 b8       	out	0x07, r3	; 7
    1bb0:	81 e0       	ldi	r24, 0x01	; 1
     adc.hp1 = W5msReadADC(HighPin);	// voltage at the Emitter resistor
    1bb2:	0e 94 aa 04 	call	0x954	; 0x954 <sleep_5ms>
    1bb6:	fa 85       	ldd	r31, Y+10	; 0x0a
    1bb8:	f4 b9       	out	0x04, r31	; 4
    1bba:	88 2d       	mov	r24, r8
     adc.rhp = vcc_diff(adc.hp1);	// voltage at the Emitter resistor
    1bbc:	0e 94 de 04 	call	0x9bc	; 0x9bc <W5msReadADC>
    1bc0:	8f 35       	cpi	r24, 0x5F	; 95
     adc.tp1 = ReadADC(TristatePin);	// voltage at the base resistor (RL)
    1bc2:	9d 40       	sbci	r25, 0x0D	; 13
    1bc4:	08 f4       	brcc	.+2      	; 0x1bc8 <CheckPins+0x4ec>
    1bc6:	59 c1       	rjmp	.+690    	; 0x1e7a <CheckPins+0x79e>
    1bc8:	e4 b8       	out	0x04, r14	; 4
    1bca:	88 2d       	mov	r24, r8
 #if DebugOut == 5
     lcd_data('L');	// PLcc
 #endif
     // compute c_he with RL Base resistor
     c_hfe = (unsigned long)((unsigned long)unsigned_diff(tmp16, adc.tp1) * 100) / adc.tp1;
    1bcc:	0e 94 da 04 	call	0x9b4	; 0x9b4 <W10msReadADC>
    1bd0:	5c 01       	movw	r10, r24
    1bd2:	82 2d       	mov	r24, r2
    1bd4:	0e 94 e2 04 	call	0x9c4	; 0x9c4 <ReadADC>
    1bd8:	9c 8f       	std	Y+28, r25	; 0x1c
    1bda:	8b 8f       	std	Y+27, r24	; 0x1b
    1bdc:	89 2d       	mov	r24, r9
    1bde:	0e 94 e2 04 	call	0x9c4	; 0x9c4 <ReadADC>
    1be2:	9b 8b       	std	Y+19, r25	; 0x13
    1be4:	8a 8b       	std	Y+18, r24	; 0x12
    1be6:	4b 8d       	ldd	r20, Y+27	; 0x1b
    1be8:	5c 8d       	ldd	r21, Y+28	; 0x1c
    1bea:	41 3d       	cpi	r20, 0xD1	; 209
    1bec:	57 40       	sbci	r21, 0x07	; 7
    1bee:	08 f4       	brcc	.+2      	; 0x1bf2 <CheckPins+0x516>
    1bf0:	d2 c0       	rjmp	.+420    	; 0x1d96 <CheckPins+0x6ba>
    1bf2:	f5 b8       	out	0x05, r15	; 5
  DisplayValue(c_hfe,-2,' ',3);
 #endif
#endif   /* COMMON_COLLECTOR */

  //set Pins again for circuit with common Emitter PNP
  R_DDR = 0;			//all Resistor Ports to Input
    1bf4:	88 2d       	mov	r24, r8
  R_PORT = 0;			//switch all resistor ports to GND
    1bf6:	0e 94 da 04 	call	0x9b4	; 0x9b4 <W10msReadADC>
  ADC_PORT = HiADCp;		//switch High-Pin to VCC
  ADC_DDR = HiADCm;		//switch High-Pin to output
    1bfa:	81 15       	cp	r24, r1
//  R_DDR = LoPinRL;		//switch R_L port for Low-Pin to output (GND)
  wait_about5ms();
    1bfc:	94 40       	sbci	r25, 0x04	; 4
    1bfe:	98 f0       	brcs	.+38     	; 0x1c26 <CheckPins+0x54a>
    1c00:	80 91 1a 01 	lds	r24, 0x011A
     lcd_data('E');
     lcd_testpin(HighPin);
     lcd_space();
#endif
     //Test to PNP
     R_DDR = LoPinRL | TriPinRL;	//switch R_L port for Tristate-Pin to output (GND), for Test of PNP
    1c04:	84 30       	cpi	r24, 0x04	; 4
     adc.lp1 = W5msReadADC(LowPin);	//measure voltage at LowPin
    1c06:	78 f4       	brcc	.+30     	; 0x1c26 <CheckPins+0x54a>
    1c08:	8a e0       	ldi	r24, 0x0A	; 10
    1c0a:	80 93 1a 01 	sts	0x011A, r24
     if(adc.lp1 > 3422) {
    1c0e:	6b 8d       	ldd	r22, Y+27	; 0x1b
    1c10:	7c 8d       	ldd	r23, Y+28	; 0x1c
    1c12:	8a 89       	ldd	r24, Y+18	; 0x12
//        R_DDR = LoPinRL | TriPinRL;	//switch R_L port for Tristate-Pin (Base) to output (GND)
//        wait_about5ms();		// load gate capacitor
//        R_DDR = LoPinRL | TriPinRH;	//switch R_H port for Tristate-Pin (Base) to output (GND)
//        adc.lp1 = W5msReadADC(LowPin);	//measure voltage at LowPin (assumed Collector)
//#else
        R_DDR = LoPinRL | TriPinRH;	//switch R_H port for Tristate-Pin (Base) to output (GND)
    1c14:	9b 89       	ldd	r25, Y+19	; 0x13
        adc.lp1 = W10msReadADC(LowPin);	//measure voltage at LowPin (assumed Collector)
    1c16:	0e 94 4b 05 	call	0xa96	; 0xa96 <unsigned_diff>
    1c1a:	90 93 5e 01 	sts	0x015E, r25
//#endif
        adc.tp2 = ReadADC(TristatePin);	//measure voltage at TristatePin (Base) 
    1c1e:	80 93 5d 01 	sts	0x015D, r24
    1c22:	21 e0       	ldi	r18, 0x01	; 1
    1c24:	2a c4       	rjmp	.+2132   	; 0x247a <CheckPins+0xd9e>
    1c26:	84 e0       	ldi	r24, 0x04	; 4
        adc.hp2 = ReadADC(HighPin);	//measure voltage at HighPin (assumed Emitter)
    1c28:	80 93 1a 01 	sts	0x011A, r24
    1c2c:	8d e0       	ldi	r24, 0x0D	; 13
    1c2e:	80 93 19 01 	sts	0x0119, r24

        if(adc.tp2 > 2000) {
    1c32:	6a 14       	cp	r6, r10
    1c34:	7b 04       	cpc	r7, r11
    1c36:	30 f4       	brcc	.+12     	; 0x1c44 <CheckPins+0x568>
    1c38:	c5 01       	movw	r24, r10
    1c3a:	86 19       	sub	r24, r6
    1c3c:	97 09       	sbc	r25, r7
#ifdef WITH_PUT
           // most likely it's a PNP transistor, but it might be a PUT (Programmable Unijunction Transistor)
           // to check this, make Tri-Pin (assumed base) high again; PNP will stop conducting, PUT won't
           R_PORT = TriPinRH;
    1c3e:	9a 83       	std	Y+2, r25	; 0x02
           tmp16 = W10msReadADC(LowPin);	//measure voltage at LowPin (assumed Collector)
    1c40:	89 83       	std	Y+1, r24	; 0x01
    1c42:	02 c0       	rjmp	.+4      	; 0x1c48 <CheckPins+0x56c>
    1c44:	ba 82       	std	Y+2, r11	; 0x02
           if ((tmp16 >= 1024) && (PartFound < PART_TRANSISTOR)) { 
    1c46:	a9 82       	std	Y+1, r10	; 0x01
    1c48:	c0 90 14 01 	lds	r12, 0x0114
    1c4c:	d0 90 15 01 	lds	r13, 0x0115
    1c50:	e1 2c       	mov	r14, r1
    1c52:	f1 2c       	mov	r15, r1
              lcd_data('T');
              lcd_space();
	      mVOut(tmp16);
 #endif
              // still conducts, can't be a PNP
              PartFound = PART_PUT;
    1c54:	60 e8       	ldi	r22, 0x80	; 128
    1c56:	71 ea       	ldi	r23, 0xA1	; 161
    1c58:	83 e0       	ldi	r24, 0x03	; 3
              ptrans.uBE = unsigned_diff(adc.hp2, adc.tp2);	// "Offset Voltage"
    1c5a:	9c e1       	ldi	r25, 0x1C	; 28
    1c5c:	a7 01       	movw	r20, r14
    1c5e:	96 01       	movw	r18, r12
    1c60:	0e 94 6d 31 	call	0x62da	; 0x62da <__udivmodsi4>
    1c64:	a9 81       	ldd	r26, Y+1	; 0x01
    1c66:	ba 81       	ldd	r27, Y+2	; 0x02
    1c68:	0e 94 c0 31 	call	0x6380	; 0x6380 <__muluhisi3>
    1c6c:	ab 8d       	ldd	r26, Y+27	; 0x1b
//  }

#if DebugOut == 5
  lcd_clear_line2();
#endif
  update_pins = 1;			// if a part is found, always update the pins
    1c6e:	bc 8d       	ldd	r27, Y+28	; 0x1c
	      mVOut(tmp16);
 #endif
              // still conducts, can't be a PNP
              PartFound = PART_PUT;
              ptrans.uBE = unsigned_diff(adc.hp2, adc.tp2);	// "Offset Voltage"
              goto savePresult;
    1c70:	9d 01       	movw	r18, r26
           }
#endif
           //PNP-Transistor is found (Base voltage moves with Emitter to VCC)
           PartFound = PART_TRANSISTOR;
    1c72:	40 e0       	ldi	r20, 0x00	; 0
    1c74:	50 e0       	ldi	r21, 0x00	; 0
    1c76:	0e 94 6d 31 	call	0x62da	; 0x62da <__udivmodsi4>
           PartMode = PART_MODE_PNP;
    1c7a:	80 91 68 01 	lds	r24, 0x0168
 #if DebugOut == 5
           lcd_line4();
           lcd_data('P');
 #endif
           tmp16 = adc.lp1;
           if (tmp16 > adc.lp_otr) {
    1c7e:	88 23       	and	r24, r24
    1c80:	69 f0       	breq	.+26     	; 0x1c9c <CheckPins+0x5c0>
    1c82:	80 91 59 01 	lds	r24, 0x0159
              tmp16 -= adc.lp_otr;
    1c86:	90 91 5a 01 	lds	r25, 0x015A
    1c8a:	a0 91 5b 01 	lds	r26, 0x015B
    1c8e:	b0 91 5c 01 	lds	r27, 0x015C
    1c92:	82 17       	cp	r24, r18
           // e_hfe with 1% resolution for optocoupler
 #ifdef LONG_HFE
  #if DebugOut == 5
           lcd_data('H');	// PHce
  #endif
           e_hfe = ((unsigned int)tmp16 * (unsigned long)(((unsigned long)R_H_VAL * 10000) / 
    1c94:	93 07       	cpc	r25, r19
    1c96:	a4 07       	cpc	r26, r20
    1c98:	b5 07       	cpc	r27, r21
    1c9a:	08 f5       	brcc	.+66     	; 0x1cde <CheckPins+0x602>
    1c9c:	20 93 59 01 	sts	0x0159, r18
    1ca0:	30 93 5a 01 	sts	0x015A, r19
    1ca4:	40 93 5b 01 	sts	0x015B, r20
    1ca8:	50 93 5c 01 	sts	0x015C, r21
    1cac:	95 01       	movw	r18, r10
    1cae:	a0 e1       	ldi	r26, 0x10	; 16
    1cb0:	b7 e2       	ldi	r27, 0x27	; 39
    1cb2:	0e 94 ab 31 	call	0x6356	; 0x6356 <__umulhisi3>
    1cb6:	a7 01       	movw	r20, r14
              (unsigned int)RR680MI)) / (unsigned int)adc.tp2;	
    1cb8:	96 01       	movw	r18, r12
    1cba:	0e 94 6d 31 	call	0x62da	; 0x62da <__udivmodsi4>
    1cbe:	30 93 60 01 	sts	0x0160, r19
           // e_hfe with 1% resolution for optocoupler
 #ifdef LONG_HFE
  #if DebugOut == 5
           lcd_data('H');	// PHce
  #endif
           e_hfe = ((unsigned int)tmp16 * (unsigned long)(((unsigned long)R_H_VAL * 10000) / 
    1cc2:	20 93 5f 01 	sts	0x015F, r18
           lcd_data('B');
           lcd_data('=');
           DisplayValue(e_hfe,-2,' ',3);
 #endif
           // first hFE or e_hfe is greater than last hfe ?
           if ((ptrans.count == 0) || (e_hfe > ptrans.hfe)){
    1cc6:	6b 8d       	ldd	r22, Y+27	; 0x1b
    1cc8:	7c 8d       	ldd	r23, Y+28	; 0x1c
    1cca:	8a 89       	ldd	r24, Y+18	; 0x12
    1ccc:	9b 89       	ldd	r25, Y+19	; 0x13
    1cce:	0e 94 4b 05 	call	0xa96	; 0xa96 <unsigned_diff>
    1cd2:	90 93 5e 01 	sts	0x015E, r25
    1cd6:	80 93 5d 01 	sts	0x015D, r24
    1cda:	21 e0       	ldi	r18, 0x01	; 1
    1cdc:	01 c0       	rjmp	.+2      	; 0x1ce0 <CheckPins+0x604>
    1cde:	20 e0       	ldi	r18, 0x00	; 0
    1ce0:	80 91 59 01 	lds	r24, 0x0159
    1ce4:	90 91 5a 01 	lds	r25, 0x015A
              ptrans.hfe = e_hfe;				// hFE with common emitter
    1ce8:	a0 91 5b 01 	lds	r26, 0x015B
    1cec:	b0 91 5c 01 	lds	r27, 0x015C
    1cf0:	4c 89       	ldd	r20, Y+20	; 0x14
    1cf2:	5d 89       	ldd	r21, Y+21	; 0x15
    1cf4:	6e 89       	ldd	r22, Y+22	; 0x16
    1cf6:	7f 89       	ldd	r23, Y+23	; 0x17
 #if FLASHEND > 0x1fff  /* at least ATmega16 */
              ptrans.current = (unsigned int)(((unsigned long)adc.lp1 * 10000) / RR680MI); // Ic 1uA
    1cf8:	84 17       	cp	r24, r20
    1cfa:	95 07       	cpc	r25, r21
    1cfc:	a6 07       	cpc	r26, r22
    1cfe:	b7 07       	cpc	r27, r23
    1d00:	30 f5       	brcc	.+76     	; 0x1d4e <CheckPins+0x672>
    1d02:	40 93 59 01 	sts	0x0159, r20
    1d06:	50 93 5a 01 	sts	0x015A, r21
    1d0a:	60 93 5b 01 	sts	0x015B, r22
    1d0e:	70 93 5c 01 	sts	0x015C, r23
 #endif
              ptrans.uBE = unsigned_diff(adc.hp2, adc.tp2);	// Base Emitter Voltage
    1d12:	6f 81       	ldd	r22, Y+7	; 0x07
    1d14:	78 85       	ldd	r23, Y+8	; 0x08
    1d16:	88 89       	ldd	r24, Y+16	; 0x10
    1d18:	99 89       	ldd	r25, Y+17	; 0x11
    1d1a:	0e 94 4b 05 	call	0xa96	; 0xa96 <unsigned_diff>
    1d1e:	90 93 5e 01 	sts	0x015E, r25
    1d22:	80 93 5d 01 	sts	0x015D, r24
              update_pins = 1;		// trans.ebc must be updated
    1d26:	98 01       	movw	r18, r16
    1d28:	a0 e1       	ldi	r26, 0x10	; 16
           }
#endif
           //PNP-Transistor is found (Base voltage moves with Emitter to VCC)
           PartFound = PART_TRANSISTOR;
           PartMode = PART_MODE_PNP;
           update_pins = 0;		// only update pins, if hFE is higher or Thyristor 
    1d2a:	b7 e2       	ldi	r27, 0x27	; 39
#ifdef COMMON_COLLECTOR
           //current amplification factor for common  Collector (Emitter follower)
           // c_hFE = (Emitter current - Base current) / Base current
 #ifdef COMMON_EMITTER
           // also with COMMON_EMITTER, is c_hfe greater than the last hFE?
           if (c_hfe > ptrans.hfe)  // trans.hfe is allready e_hfe or last c_hFE
    1d2c:	0e 94 ab 31 	call	0x6356	; 0x6356 <__umulhisi3>
    1d30:	20 91 1b 01 	lds	r18, 0x011B
    1d34:	30 91 1c 01 	lds	r19, 0x011C
    1d38:	40 e0       	ldi	r20, 0x00	; 0
    1d3a:	50 e0       	ldi	r21, 0x00	; 0
    1d3c:	0e 94 6d 31 	call	0x62da	; 0x62da <__udivmodsi4>
    1d40:	20 5f       	subi	r18, 0xF0	; 240
    1d42:	38 4d       	sbci	r19, 0xD8	; 216
    1d44:	30 93 60 01 	sts	0x0160, r19
    1d48:	20 93 5f 01 	sts	0x015F, r18
    1d4c:	03 c0       	rjmp	.+6      	; 0x1d54 <CheckPins+0x678>
 #else
           // without COMMON_EMITTER , c_hFE is first or greater than the old one?
           if ((ptrans.count == 0) || (c_hfe > ptrans.hfe)) 
 #endif
           {
              ptrans.hfe = c_hfe;		// c_hfe is the best
    1d4e:	22 23       	and	r18, r18
    1d50:	09 f4       	brne	.+2      	; 0x1d54 <CheckPins+0x678>
    1d52:	93 c3       	rjmp	.+1830   	; 0x247a <CheckPins+0xd9e>
    1d54:	c0 90 14 01 	lds	r12, 0x0114
    1d58:	d0 90 15 01 	lds	r13, 0x0115
    1d5c:	e1 2c       	mov	r14, r1
              ptrans.uBE = unsigned_diff(adc.hp1, adc.tp1);	// Base Emitter Voltage common collector
    1d5e:	f1 2c       	mov	r15, r1
    1d60:	93 01       	movw	r18, r6
    1d62:	a0 e1       	ldi	r26, 0x10	; 16
    1d64:	b7 e2       	ldi	r27, 0x27	; 39
    1d66:	0e 94 ab 31 	call	0x6356	; 0x6356 <__umulhisi3>
    1d6a:	a7 01       	movw	r20, r14
    1d6c:	96 01       	movw	r18, r12
    1d6e:	0e 94 6d 31 	call	0x62da	; 0x62da <__udivmodsi4>
 #if FLASHEND > 0x1fff  /* at least ATmega16 */
              ptrans.current = (unsigned int)(((unsigned long)adc.rhp * 10000) / RR680PL); // Ie 1uA
    1d72:	30 93 62 01 	sts	0x0162, r19
    1d76:	20 93 61 01 	sts	0x0161, r18
    1d7a:	92 01       	movw	r18, r4
    1d7c:	a0 e1       	ldi	r26, 0x10	; 16
    1d7e:	b7 e2       	ldi	r27, 0x27	; 39
    1d80:	0e 94 ab 31 	call	0x6356	; 0x6356 <__umulhisi3>
    1d84:	a7 01       	movw	r20, r14
    1d86:	96 01       	movw	r18, r12
    1d88:	0e 94 6d 31 	call	0x62da	; 0x62da <__udivmodsi4>
              ptrans.current += 10000;		// current at emitter!
    1d8c:	30 93 64 01 	sts	0x0164, r19
    1d90:	20 93 63 01 	sts	0x0163, r18
    1d94:	46 cf       	rjmp	.-372    	; 0x1c22 <CheckPins+0x546>
    1d96:	51 e6       	ldi	r21, 0x61	; 97
    1d98:	65 16       	cp	r6, r21
#endif   /* end COMMON_COLLECTOR */
#if DebugOut == 5
           lcd_data('B');
#endif
#ifdef SHOW_ICE
           if (update_pins != 0) {
    1d9a:	71 04       	cpc	r7, r1
    1d9c:	08 f0       	brcs	.+2      	; 0x1da0 <CheckPins+0x6c4>
    1d9e:	6d c0       	rjmp	.+218    	; 0x1e7a <CheckPins+0x79e>
	      // update residual collector current without base current
              ptrans.ice0 = (unsigned int)(((unsigned long)adc.lp_otr * 10000) / RR680MI); // ICE0 1uA
    1da0:	61 ed       	ldi	r22, 0xD1	; 209
    1da2:	a6 16       	cp	r10, r22
    1da4:	67 e0       	ldi	r22, 0x07	; 7
    1da6:	b6 06       	cpc	r11, r22
    1da8:	08 f4       	brcc	.+2      	; 0x1dac <CheckPins+0x6d0>
    1daa:	67 c0       	rjmp	.+206    	; 0x1e7a <CheckPins+0x79e>
    1dac:	85 e0       	ldi	r24, 0x05	; 5
    1dae:	80 93 1a 01 	sts	0x011A, r24
    1db2:	82 e1       	ldi	r24, 0x12	; 18
    1db4:	80 93 19 01 	sts	0x0119, r24
    1db8:	c5 01       	movw	r24, r10
    1dba:	86 50       	subi	r24, 0x06	; 6
    1dbc:	9f 4f       	sbci	r25, 0xFF	; 255
    1dbe:	aa 89       	ldd	r26, Y+18	; 0x12
    1dc0:	bb 89       	ldd	r27, Y+19	; 0x13
    1dc2:	8a 17       	cp	r24, r26
    1dc4:	9b 07       	cpc	r25, r27
              ptrans.ices = (unsigned int)(((unsigned long)adc.vCEs * 10000) / RR680MI); // ICEs 1uA
    1dc6:	20 f4       	brcc	.+8      	; 0x1dd0 <CheckPins+0x6f4>
    1dc8:	83 e1       	ldi	r24, 0x13	; 19
    1dca:	80 93 19 01 	sts	0x0119, r24
    1dce:	16 c0       	rjmp	.+44     	; 0x1dfc <CheckPins+0x720>
    1dd0:	00 91 14 01 	lds	r16, 0x0114
    1dd4:	10 91 15 01 	lds	r17, 0x0115
    1dd8:	b5 01       	movw	r22, r10
    1dda:	8a 89       	ldd	r24, Y+18	; 0x12
    1ddc:	9b 89       	ldd	r25, Y+19	; 0x13
    1dde:	0e 94 4b 05 	call	0xa96	; 0xa96 <unsigned_diff>
           }
#endif
           goto savePresult;		// marke P type, save Pins and exit
        }  /* end  if(adc.tp2 > 2000) */
        // is probably a P-E-MOS, check voltage
        if((adc.lp_otr < 97) && (adc.lp1 > 2000)) {
    1de2:	9c 01       	movw	r18, r24
    1de4:	d8 01       	movw	r26, r16
    1de6:	0e 94 ab 31 	call	0x6356	; 0x6356 <__umulhisi3>
    1dea:	95 01       	movw	r18, r10
    1dec:	40 e0       	ldi	r20, 0x00	; 0
    1dee:	50 e0       	ldi	r21, 0x00	; 0
    1df0:	0e 94 6d 31 	call	0x62da	; 0x62da <__udivmodsi4>
    1df4:	30 93 5e 01 	sts	0x015E, r19
           //is flow voltage low enough in the closed  state?
           //(since D-Mode-FET would be by mistake detected as E-Mode )
           PartFound = PART_FET;		//P-Kanal-MOSFET is found (Basis/Gate moves not to VCC)
    1df8:	20 93 5d 01 	sts	0x015D, r18
    1dfc:	bb 81       	ldd	r27, Y+3	; 0x03
           PartMode = PART_MODE_MOS|P_CHANNEL|E_MODE;
    1dfe:	b7 70       	andi	r27, 0x07	; 7
    1e00:	db 2e       	mov	r13, r27
    1e02:	82 2d       	mov	r24, r2
           if (adc.hp2 > (adc.lp1+250)) {
    1e04:	80 64       	ori	r24, 0x40	; 64
    1e06:	80 93 7c 00 	sts	0x007C, r24
    1e0a:	5b e0       	ldi	r21, 0x0B	; 11
    1e0c:	f5 2e       	mov	r15, r21
    1e0e:	aa 24       	eor	r10, r10
    1e10:	a3 94       	inc	r10
    1e12:	b1 2c       	mov	r11, r1
           lcd_space();
           mVOut(adc.hp2);
           mVOut(adc.lp1);
 #endif
              //Drain-Source Voltage to high, must be a IGBT
              PartMode = PART_MODE_IGBT|P_CHANNEL|E_MODE;
    1e14:	0f ef       	ldi	r16, 0xFF	; 255
    1e16:	13 e0       	ldi	r17, 0x03	; 3
    1e18:	a8 95       	wdr
    1e1a:	61 e0       	ldi	r22, 0x01	; 1
#ifdef SHOW_R_DS
           } else {
              ptrans.uBE = RR680MI * (unsigned long)unsigned_diff(adc.hp2, adc.lp1) / adc.lp1; // DS resistance in 0.1 OHm
    1e1c:	8c 81       	ldd	r24, Y+4	; 0x04
    1e1e:	4e d5       	rcall	.+2716   	; 0x28bc <ChargePin10ms>
    1e20:	e4 b8       	out	0x04, r14	; 4
    1e22:	86 b1       	in	r24, 0x06	; 6
    1e24:	8d 21       	and	r24, r13
    1e26:	e9 f3       	breq	.-6      	; 0x1e22 <CheckPins+0x746>
    1e28:	ee 85       	ldd	r30, Y+14	; 0x0e
    1e2a:	e4 b9       	out	0x04, r30	; 4
    1e2c:	80 91 7a 00 	lds	r24, 0x007A
    1e30:	80 64       	ori	r24, 0x40	; 64
    1e32:	80 93 7a 00 	sts	0x007A, r24
    1e36:	80 91 7a 00 	lds	r24, 0x007A
    1e3a:	86 fd       	sbrc	r24, 6
    1e3c:	fc cf       	rjmp	.-8      	; 0x1e36 <CheckPins+0x75a>
    1e3e:	80 91 78 00 	lds	r24, 0x0078
    1e42:	90 91 79 00 	lds	r25, 0x0079
    1e46:	98 01       	movw	r18, r16
           }  /* end if (adc.hp2 > (adc.lp1+250)) */
       	   //measure the Gate threshold voltage
           //Switching of Drain is monitored with digital input
           // Low level is specified up to 0.3 * VCC
           // High level is specified above 0.6 * VCC
           PinMSK = LoADCm & 7;
    1e48:	28 1b       	sub	r18, r24
    1e4a:	39 0b       	sbc	r19, r25
    1e4c:	a2 0e       	add	r10, r18
       	   ADMUX = TristatePin | (1<<REFS0);	// switch to TristatePin, Ref. VCC
    1e4e:	b3 1e       	adc	r11, r19
    1e50:	fa 94       	dec	r15
    1e52:	11 f7       	brne	.-60     	; 0x1e18 <CheckPins+0x73c>
    1e54:	c5 01       	movw	r24, r10
    1e56:	88 0f       	add	r24, r24
    1e58:	99 1f       	adc	r25, r25
       	   tmp16 = 1;			// round up ((1*4)/9)
    1e5a:	88 0f       	add	r24, r24
    1e5c:	99 1f       	adc	r25, r25
    1e5e:	69 e0       	ldi	r22, 0x09	; 9
       	      while (!(ADC_PIN&PinMSK));		// Wait, until the MOSFET switches and Drain moves to VCC
                  			// 1 is detected with more than 2.5V (up to 2.57V) with tests of mega168 and mega328
       	      R_DDR = LoPinRL;
       	      ADCSRA |= (1<<ADSC);		// Start Conversion
       	      while (ADCSRA&(1<<ADSC));		// wait
      	      tmp16 += (1023 - ADCW);	// Add Tristatepin-Voltage
    1e60:	70 e0       	ldi	r23, 0x00	; 0
    1e62:	0e 94 46 31 	call	0x628c	; 0x628c <__udivmodhi4>
           PinMSK = LoADCm & 7;
       	   ADMUX = TristatePin | (1<<REFS0);	// switch to TristatePin, Ref. VCC
       	   tmp16 = 1;			// round up ((1*4)/9)
       	   for(ii=0;ii<11;ii++) {
       	      wdt_reset();
       	      ChargePin10ms(TriPinRL,1);
    1e66:	70 93 64 01 	sts	0x0164, r23
    1e6a:	60 93 63 01 	sts	0x0163, r22
                R_DDR = LoPinRL | TriPinRH;		//switch R_H for Tristate-Pin (Basis) to GND
    1e6e:	80 91 68 01 	lds	r24, 0x0168
       	      while (!(ADC_PIN&PinMSK));		// Wait, until the MOSFET switches and Drain moves to VCC
    1e72:	8f 5f       	subi	r24, 0xFF	; 255
    1e74:	80 93 68 01 	sts	0x0168, r24
                  			// 1 is detected with more than 2.5V (up to 2.57V) with tests of mega168 and mega328
       	      R_DDR = LoPinRL;
    1e78:	d4 ce       	rjmp	.-600    	; 0x1c22 <CheckPins+0x546>
       	      ADCSRA |= (1<<ADSC);		// Start Conversion
    1e7a:	e4 b8       	out	0x04, r14	; 4
    1e7c:	f5 b8       	out	0x05, r15	; 5
    1e7e:	88 2d       	mov	r24, r8
    1e80:	0e 94 de 04 	call	0x9bc	; 0x9bc <W5msReadADC>
       	      while (ADCSRA&(1<<ADSC));		// wait
    1e84:	7c 01       	movw	r14, r24
    1e86:	82 2d       	mov	r24, r2
    1e88:	0e 94 e2 04 	call	0x9c4	; 0x9c4 <ReadADC>
      	      tmp16 += (1023 - ADCW);	// Add Tristatepin-Voltage
    1e8c:	98 87       	std	Y+8, r25	; 0x08
    1e8e:	8f 83       	std	Y+7, r24	; 0x07
    1e90:	0e 94 46 05 	call	0xa8c	; 0xa8c <vcc_diff>
    1e94:	5c 01       	movw	r10, r24
    1e96:	ce 14       	cp	r12, r14
    1e98:	df 04       	cpc	r13, r15
    1e9a:	b8 f4       	brcc	.+46     	; 0x1eca <CheckPins+0x7ee>
    1e9c:	b3 01       	movw	r22, r6
    1e9e:	c7 01       	movw	r24, r14
           // Low level is specified up to 0.3 * VCC
           // High level is specified above 0.6 * VCC
           PinMSK = LoADCm & 7;
       	   ADMUX = TristatePin | (1<<REFS0);	// switch to TristatePin, Ref. VCC
       	   tmp16 = 1;			// round up ((1*4)/9)
       	   for(ii=0;ii<11;ii++) {
    1ea0:	0e 94 4b 05 	call	0xa96	; 0xa96 <unsigned_diff>
       	      R_DDR = LoPinRL;
       	      ADCSRA |= (1<<ADSC);		// Start Conversion
       	      while (ADCSRA&(1<<ADSC));		// wait
      	      tmp16 += (1023 - ADCW);	// Add Tristatepin-Voltage
           }
           tmp16 *= 4;		// is equal to 44*ADCW
    1ea4:	8c 01       	movw	r16, r24
    1ea6:	80 91 14 01 	lds	r24, 0x0114
    1eaa:	90 91 15 01 	lds	r25, 0x0115
           ptrans.gthvoltage = tmp16 / 9;		// gives resolution in mV
    1eae:	9c 01       	movw	r18, r24
    1eb0:	40 e0       	ldi	r20, 0x00	; 0
    1eb2:	50 e0       	ldi	r21, 0x00	; 0
    1eb4:	60 e8       	ldi	r22, 0x80	; 128
    1eb6:	71 ea       	ldi	r23, 0xA1	; 161
    1eb8:	83 e0       	ldi	r24, 0x03	; 3
    1eba:	9c e1       	ldi	r25, 0x1C	; 28
           ptrans.count++;		// count FET as two for accelerate searching
    1ebc:	0e 94 6d 31 	call	0x62da	; 0x62da <__udivmodsi4>
    1ec0:	d8 01       	movw	r26, r16
    1ec2:	0e 94 c0 31 	call	0x6380	; 0x6380 <__muluhisi3>
    1ec6:	95 01       	movw	r18, r10
 #if DebugOut == 5
     lcd_line4();
     lcd_data('N');
 #endif
    // first try to get hFE with RH
    R_DDR = LoPinRL | TriPinRH;
    1ec8:	1f c0       	rjmp	.+62     	; 0x1f08 <CheckPins+0x82c>
    R_PORT = TriPinRH;		// Tripin=RH+
    1eca:	3a 85       	ldd	r19, Y+10	; 0x0a
    adc.lp1 = W5msReadADC(LowPin);
    1ecc:	34 b9       	out	0x04, r19	; 4
    1ece:	4c 81       	ldd	r20, Y+4	; 0x04
    1ed0:	45 b9       	out	0x05, r20	; 5
    1ed2:	88 2d       	mov	r24, r8
    adc.tp1 = ReadADC(TristatePin);	// voltage at the Base 
    1ed4:	0e 94 de 04 	call	0x9bc	; 0x9bc <W5msReadADC>
    1ed8:	7c 01       	movw	r14, r24
    1eda:	82 2d       	mov	r24, r2
    1edc:	0e 94 e2 04 	call	0x9c4	; 0x9c4 <ReadADC>
    adc.rtp = vcc_diff(adc.tp1);	// voltage at Base resistor
    1ee0:	98 87       	std	Y+8, r25	; 0x08
    1ee2:	8f 83       	std	Y+7, r24	; 0x07
    if (adc.lp1 > (100+adc.lp_otr)) {
    1ee4:	0e 94 46 05 	call	0xa8c	; 0xa8c <vcc_diff>
    1ee8:	8c 01       	movw	r16, r24
       // c_hfe with 1% resolution for optocoupler
       // compute c_hfe with RH Base resistor
       tmp16 = unsigned_diff(adc.lp1, adc.lp_otr);
    1eea:	c7 01       	movw	r24, r14
    1eec:	6e 14       	cp	r6, r14
    1eee:	7f 04       	cpc	r7, r15
    1ef0:	10 f4       	brcc	.+4      	; 0x1ef6 <CheckPins+0x81a>
    1ef2:	86 19       	sub	r24, r6
 #ifdef LONG_HFE
  #if DebugOut == 5
       lcd_data('H');	// NHcc
  #endif

       c_hfe = ((unsigned long)tmp16 * (unsigned long)(((unsigned long)R_H_VAL * 10000) / 
    1ef4:	97 09       	sbc	r25, r7
    1ef6:	b8 01       	movw	r22, r16
    1ef8:	0e 94 4b 05 	call	0xa96	; 0xa96 <unsigned_diff>
    1efc:	9c 01       	movw	r18, r24
    1efe:	a4 e6       	ldi	r26, 0x64	; 100
    1f00:	b0 e0       	ldi	r27, 0x00	; 0
    1f02:	0e 94 ab 31 	call	0x6356	; 0x6356 <__umulhisi3>
    1f06:	98 01       	movw	r18, r16
    1f08:	40 e0       	ldi	r20, 0x00	; 0
    1f0a:	50 e0       	ldi	r21, 0x00	; 0
    1f0c:	0e 94 6d 31 	call	0x62da	; 0x62da <__udivmodsi4>
    1f10:	2a 87       	std	Y+10, r18	; 0x0a
    1f12:	3b 87       	std	Y+11, r19	; 0x0b
              (unsigned int)RR680MI)) / (unsigned int)adc.rtp;	
    1f14:	4c 87       	std	Y+12, r20	; 0x0c
    1f16:	5d 87       	std	Y+13, r21	; 0x0d
  #endif
       c_hfe = ((tmp16 / ((RR680MI+500)/1000)) * (R_H_VAL/500)) / (adc.tp2/5);
 #endif
    } else {
    // Low-Pin=RL- HighPin=VCC
      R_DDR = LoPinRL | TriPinRL;
    1f18:	5b 81       	ldd	r21, Y+3	; 0x03
    1f1a:	57 b9       	out	0x07, r21	; 7
      R_PORT = TriPinRL;			// TriPin=RL+  NPN with common Collector
    1f1c:	18 b8       	out	0x08, r1	; 8
    1f1e:	6d 81       	ldd	r22, Y+5	; 0x05
      adc.lp1 = W5msReadADC(LowPin);	// voltage at Emitter resistor
    1f20:	64 b9       	out	0x04, r22	; 4
    1f22:	65 b9       	out	0x05, r22	; 5
    1f24:	89 2d       	mov	r24, r9
    1f26:	0e 94 de 04 	call	0x9bc	; 0x9bc <W5msReadADC>
      adc.tp1 = ReadADC(TristatePin);	// voltage at the Base 
    1f2a:	8c 01       	movw	r16, r24
    1f2c:	82 2d       	mov	r24, r2
    1f2e:	0e 94 e2 04 	call	0x9c4	; 0x9c4 <ReadADC>
      adc.rtp = vcc_diff(adc.tp1);	// voltage at Base resistor
    1f32:	6c 01       	movw	r12, r24
    1f34:	88 2d       	mov	r24, r8
    1f36:	0e 94 e2 04 	call	0x9c4	; 0x9c4 <ReadADC>
 #if DebugOut == 5
       lcd_data('L');	// NLcc
 #endif
       tmp16 = adc.lp1;
       if (tmp16 > adc.lp_otr) {
    1f3a:	99 8b       	std	Y+17, r25	; 0x11
    1f3c:	88 8b       	std	Y+16, r24	; 0x10
    1f3e:	00 33       	cpi	r16, 0x30	; 48
          tmp16 -= adc.lp_otr;
    1f40:	71 e1       	ldi	r23, 0x11	; 17
    1f42:	17 07       	cpc	r17, r23
       }
       // compute c_hfe with RL Base resistor
       c_hfe = (unsigned long)((unsigned long)unsigned_diff(tmp16, adc.rtp) * 100) / adc.rtp;
    1f44:	08 f0       	brcs	.+2      	; 0x1f48 <CheckPins+0x86c>
    1f46:	c1 c1       	rjmp	.+898    	; 0x22ca <CheckPins+0xbee>
    1f48:	89 81       	ldd	r24, Y+1	; 0x01
    1f4a:	85 b9       	out	0x05, r24	; 5
    1f4c:	89 2d       	mov	r24, r9
    1f4e:	0e 94 de 04 	call	0x9bc	; 0x9bc <W5msReadADC>
    1f52:	5c 01       	movw	r10, r24
    1f54:	99 81       	ldd	r25, Y+1	; 0x01
    1f56:	94 b9       	out	0x04, r25	; 4
    1f58:	89 2d       	mov	r24, r9
    1f5a:	0e 94 de 04 	call	0x9bc	; 0x9bc <W5msReadADC>
    1f5e:	9c 01       	movw	r18, r24
    1f60:	15 b8       	out	0x05, r1	; 5
    1f62:	81 e0       	ldi	r24, 0x01	; 1
    1f64:	2a 8f       	std	Y+26, r18	; 0x1a
     lcd_data('=');
     DisplayValue(c_hfe,-2,' ',3);
 #endif
#endif
    //Tristate (can be Base) to VCC, Test if NPN
    ADC_DDR = LoADCm;		//Low-Pin to output 0V
    1f66:	39 8f       	std	Y+25, r19	; 0x19
    1f68:	0e 94 aa 04 	call	0x954	; 0x954 <sleep_5ms>
    ADC_PORT = TXD_VAL;			//switch Low-Pin to GND
    R_DDR = TriPinRL | HiPinRL;		//RL port for High-Pin and Tristate-Pin to output
    1f6c:	a9 81       	ldd	r26, Y+1	; 0x01
    1f6e:	a5 b9       	out	0x05, r26	; 5
    // vCEs is already measured correctly with common emitter circuit
    R_PORT = TriPinRL | HiPinRL;	//RL port for High-Pin and Tristate-Pin to Vcc
    1f70:	89 2d       	mov	r24, r9
    adc.hp1 = W5msReadADC(HighPin);	//measure voltage at High-Pin  (Collector)
    1f72:	0e 94 de 04 	call	0x9bc	; 0x9bc <W5msReadADC>
    1f76:	2a 8d       	ldd	r18, Y+26	; 0x1a
    1f78:	39 8d       	ldd	r19, Y+25	; 0x19
#ifdef WITH_THYRISTOR_GATE_V
    adc.tp2 = ReadADC(TristatePin);	//voltage of gate
    1f7a:	20 34       	cpi	r18, 0x40	; 64
    1f7c:	36 40       	sbci	r19, 0x06	; 6
    1f7e:	08 f0       	brcs	.+2      	; 0x1f82 <CheckPins+0x8a6>
    1f80:	5f c0       	rjmp	.+190    	; 0x2040 <CheckPins+0x964>
    adc.lp2 = ReadADC(LowPin);		//voltage of Cathode
    1f82:	81 33       	cpi	r24, 0x31	; 49
    1f84:	91 41       	sbci	r25, 0x11	; 17
    1f86:	08 f4       	brcc	.+2      	; 0x1f8a <CheckPins+0x8ae>
    1f88:	5b c0       	rjmp	.+182    	; 0x2040 <CheckPins+0x964>
    1f8a:	c8 01       	movw	r24, r16
#endif
//    if(adc.hp1 < 1600) 
//    if(adc.hp1 < 4500)    /* limit for opto-coupler with low hFE */
    if(adc.hp1 < 4400)    /* limit for opto-coupler with low hFE */
    1f8c:	8a 56       	subi	r24, 0x6A	; 106
    1f8e:	9f 4f       	sbci	r25, 0xFF	; 255
    1f90:	a8 16       	cp	r10, r24
    1f92:	b9 06       	cpc	r11, r25
    1f94:	08 f0       	brcs	.+2      	; 0x1f98 <CheckPins+0x8bc>
       //Gate discharge
//      ChargePin10ms(TriPinRL,0);	//Tristate-Pin (Gate) across R_L 10ms to GND
       // TRIAC's can be triggered with gate and A1 (C) swapped. The current remains after triggering 
       // from gate to A2 (A) instead of A1 to A2. I have found that in this state the current will be lower,
       // if the Tristatepin (A1) is switched to GND.
       R_PORT = HiPinRL;
    1f96:	54 c0       	rjmp	.+168    	; 0x2040 <CheckPins+0x964>
    1f98:	86 e0       	ldi	r24, 0x06	; 6
       adc.hp4 = W5msReadADC(HighPin);  //read voltage with switched back base
    1f9a:	80 93 1a 01 	sts	0x011A, r24
    1f9e:	80 91 4e 01 	lds	r24, 0x014E
       R_DDR = HiPinRL;			// base to input
    1fa2:	8f 5f       	subi	r24, 0xFF	; 255
    1fa4:	80 93 4e 01 	sts	0x014E, r24
       adc.hp3 = W5msReadADC(HighPin);	//read voltage at High-Pin (probably Anode) again
    1fa8:	68 89       	ldd	r22, Y+16	; 0x10
    1faa:	79 89       	ldd	r23, Y+17	; 0x11
    1fac:	c6 01       	movw	r24, r12
					//current should still flow, if not,
					// no Thyristor or holding current to low 
		 	
       R_PORT = 0;			//switch R_L for High-Pin (probably Anode) to GND (turn off)
    1fae:	0e 94 4b 05 	call	0xa96	; 0xa96 <unsigned_diff>
       wait_about5ms();
    1fb2:	90 93 44 01 	sts	0x0144, r25
    1fb6:	80 93 43 01 	sts	0x0143, r24
       R_PORT = HiPinRL;		//switch R_L for High-Pin (probably Anode) again to VCC
    1fba:	68 89       	ldd	r22, Y+16	; 0x10
    1fbc:	79 89       	ldd	r23, Y+17	; 0x11
       adc.hp2 = W5msReadADC(HighPin);	//measure voltage at the High-Pin (probably Anode) again
    1fbe:	c8 01       	movw	r24, r16
    1fc0:	0e 94 4b 05 	call	0xa96	; 0xa96 <unsigned_diff>
       lcd_space();
       mVOut(adc.hp3);
       mVOut(adc.hp2);
       mVOut(adc.hp1);
#endif
       if((adc.hp3 < 1600) && (adc.hp2 > 4400)
    1fc4:	90 93 4a 01 	sts	0x014A, r25
    1fc8:	80 93 49 01 	sts	0x0149, r24
    1fcc:	14 b8       	out	0x04, r1	; 4
    1fce:	15 b8       	out	0x05, r1	; 5
    1fd0:	fb 81       	ldd	r31, Y+3	; 0x03
    1fd2:	f8 b9       	out	0x08, r31	; 8
    1fd4:	81 e0       	ldi	r24, 0x01	; 1
    1fd6:	0e 94 aa 04 	call	0x954	; 0x954 <sleep_5ms>
           // additional check the voltage hp4 at A with gate hold at GND level
           && ((adc.hp1+150) > adc.hp4)
    1fda:	29 81       	ldd	r18, Y+1	; 0x01
    1fdc:	24 b9       	out	0x04, r18	; 4
    1fde:	89 2d       	mov	r24, r9
    1fe0:	0e 94 de 04 	call	0x9bc	; 0x9bc <W5msReadADC>
    1fe4:	85 3f       	cpi	r24, 0xF5	; 245
                                              ) {
          //if the holding current was switched off the thyristor must be switched off too. 
          //if Thyristor was still swiched on, if gate was switched off => Thyristor
          PartFound = PART_THYRISTOR;
    1fe6:	91 05       	cpc	r25, r1
    1fe8:	08 f0       	brcs	.+2      	; 0x1fec <CheckPins+0x910>
    1fea:	55 c2       	rjmp	.+1194   	; 0x2496 <CheckPins+0xdba>
          lcd_data('Y');
          lcd_testpin(HighPin);
          lcd_space();
#endif
 
          ntrans.count++;		// mark as two N-type transistors
    1fec:	3d 81       	ldd	r19, Y+5	; 0x05
    1fee:	34 b9       	out	0x04, r19	; 4
    1ff0:	82 2d       	mov	r24, r2
    1ff2:	0e 94 de 04 	call	0x9bc	; 0x9bc <W5msReadADC>
#ifdef WITH_THYRISTOR_GATE_V
          ntrans.uBE = unsigned_diff(adc.tp2, adc.lp2);	// Gate - Cathode Voltage 
    1ff6:	81 3d       	cpi	r24, 0xD1	; 209
    1ff8:	93 40       	sbci	r25, 0x03	; 3
    1ffa:	08 f4       	brcc	.+2      	; 0x1ffe <CheckPins+0x922>
    1ffc:	4c c2       	rjmp	.+1176   	; 0x2496 <CheckPins+0xdba>
    1ffe:	89 2d       	mov	r24, r9
    2000:	0e 94 e2 04 	call	0x9c4	; 0x9c4 <ReadADC>
    2004:	8d 3d       	cpi	r24, 0xDD	; 221
    2006:	92 40       	sbci	r25, 0x02	; 2
          ntrans.gthvoltage = unsigned_diff(adc.hp1, adc.lp2);	// Anode-Cathode Voltage
    2008:	08 f4       	brcc	.+2      	; 0x200c <CheckPins+0x930>
    200a:	45 c2       	rjmp	.+1162   	; 0x2496 <CheckPins+0xdba>
    200c:	69 81       	ldd	r22, Y+1	; 0x01
    200e:	64 b9       	out	0x04, r22	; 4
    2010:	89 2d       	mov	r24, r9
    2012:	0e 94 de 04 	call	0x9bc	; 0x9bc <W5msReadADC>
    2016:	8d 3d       	cpi	r24, 0xDD	; 221
    2018:	92 40       	sbci	r25, 0x02	; 2
#endif
          //Test if Triac
          R_DDR = 0;
    201a:	08 f4       	brcc	.+2      	; 0x201e <CheckPins+0x942>
          R_PORT = 0;
    201c:	3c c2       	rjmp	.+1144   	; 0x2496 <CheckPins+0xdba>
          ADC_PORT = LoADCp;	//Low-Pin fix to VCC
    201e:	89 81       	ldd	r24, Y+1	; 0x01
    2020:	85 b9       	out	0x05, r24	; 5
          wait_about5ms();
    2022:	81 e0       	ldi	r24, 0x01	; 1
    2024:	0e 94 aa 04 	call	0x954	; 0x954 <sleep_5ms>
          R_DDR = HiPinRL;		//switch R_L port HighPin to output (GND)
    2028:	15 b8       	out	0x05, r1	; 5
    202a:	89 2d       	mov	r24, r9
          if(W5msReadADC(HighPin) > 244) {
    202c:	0e 94 de 04 	call	0x9bc	; 0x9bc <W5msReadADC>
    2030:	85 3f       	cpi	r24, 0xF5	; 245
    2032:	91 05       	cpc	r25, r1
    2034:	08 f0       	brcs	.+2      	; 0x2038 <CheckPins+0x95c>
    2036:	2f c2       	rjmp	.+1118   	; 0x2496 <CheckPins+0xdba>
    2038:	87 e0       	ldi	r24, 0x07	; 7
             lcd_space();
#endif
             goto saveNresult;		//measure voltage at the  High-Pin (probably A2); if too high:
                                	//component has current => kein Triac
          }
          R_DDR = HiPinRL | TriPinRL;	//switch R_L port for TristatePin (Gate) to output (GND) => Triac should be triggered 
    203a:	80 93 1a 01 	sts	0x011A, r24
          if(W5msReadADC(TristatePin) < 977) {
    203e:	2b c2       	rjmp	.+1110   	; 0x2496 <CheckPins+0xdba>
    2040:	9b 81       	ldd	r25, Y+3	; 0x03
    2042:	97 b9       	out	0x07, r25	; 7
    2044:	ac 81       	ldd	r26, Y+4	; 0x04
    2046:	a4 b9       	out	0x04, r26	; 4
    2048:	a5 b9       	out	0x05, r26	; 5
    204a:	81 e0       	ldi	r24, 0x01	; 1
             lcd_space();
#endif
             goto saveNresult; 		//measure voltage at the Tristate-Pin (probably Gate) ;
                              		// if to low, abort 
          }
          if(ReadADC(HighPin) < 733) {
    204c:	0e 94 aa 04 	call	0x954	; 0x954 <sleep_5ms>
    2050:	b9 85       	ldd	r27, Y+9	; 0x09
    2052:	b4 b9       	out	0x04, r27	; 4
    2054:	b5 b9       	out	0x05, r27	; 5
    2056:	89 2d       	mov	r24, r9
    2058:	0e 94 de 04 	call	0x9bc	; 0x9bc <W5msReadADC>
             lcd_data('7');
             lcd_space();
#endif
             goto saveNresult; 		//component has no current => no Triac => abort
          }
          R_DDR = HiPinRL;		//TristatePin (Gate) to input 
    205c:	5c 01       	movw	r10, r24
          if(W5msReadADC(HighPin) < 733) {
    205e:	0e 94 46 05 	call	0xa8c	; 0xa8c <vcc_diff>
    2062:	99 8b       	std	Y+17, r25	; 0x11
    2064:	88 8b       	std	Y+16, r24	; 0x10
    2066:	82 2d       	mov	r24, r2
    2068:	0e 94 e2 04 	call	0x9c4	; 0x9c4 <ReadADC>
             lcd_data('3');
             lcd_space();
#endif
             goto saveNresult; 		//component has no current without base current => no Triac => abort
          }
          R_PORT = HiPinRL;		//switch R_L port for HighPin to VCC => switch off holding current 
    206c:	9e 83       	std	Y+6, r25	; 0x06
    206e:	8d 83       	std	Y+5, r24	; 0x05
          wait_about5ms();
    2070:	0e 94 46 05 	call	0xa8c	; 0xa8c <vcc_diff>
    2074:	6c 01       	movw	r12, r24
          R_PORT = 0;			//switch R_L port for HighPin again to GND; Triac should now switched off
    2076:	88 2d       	mov	r24, r8
          if(W5msReadADC(HighPin) > 244) {
    2078:	0e 94 e2 04 	call	0x9c4	; 0x9c4 <ReadADC>
    207c:	8c 01       	movw	r16, r24
    207e:	ee ef       	ldi	r30, 0xFE	; 254
    2080:	ce 16       	cp	r12, r30
    2082:	e9 e0       	ldi	r30, 0x09	; 9
    2084:	de 06       	cpc	r13, r30
             lcd_space();
#endif
             goto saveNresult;		//measure voltage at the High-Pin (probably A2) ;
                                	//if to high, component is not switched off => no Triac, abort
          }
          PartFound = PART_TRIAC;
    2086:	08 f4       	brcc	.+2      	; 0x208a <CheckPins+0x9ae>
    2088:	b4 c0       	rjmp	.+360    	; 0x21f2 <CheckPins+0xb16>
    208a:	84 e0       	ldi	r24, 0x04	; 4
    208c:	80 93 1a 01 	sts	0x011A, r24
          goto saveNresult;
        }
      //Test if NPN Transistor or MOSFET
      ADC_DDR = LoADCm;	//Low-Pin to output 0V
    2090:	8c e0       	ldi	r24, 0x0C	; 12
 #if FLASHEND > 0x1fff
//      R_DDR = HiPinRL | TriPinRL;	//R_L port of Tristate-Pin (Basis) to output
//      R_PORT = HiPinRL | TriPinRL;	//R_L port of Tristate-Pin (Basis) to VCC
      R_DDR =  TriPinRL;	//R_L port of Tristate-Pin (Basis) to output
    2092:	80 93 19 01 	sts	0x0119, r24
      R_PORT = TriPinRL;	//R_L port of Tristate-Pin (Basis) to VCC
    2096:	b3 01       	movw	r22, r6
      wait_about5ms();			// load gate capacitor
    2098:	88 89       	ldd	r24, Y+16	; 0x10
    209a:	99 89       	ldd	r25, Y+17	; 0x11
    209c:	0e 94 4b 05 	call	0xa96	; 0xa96 <unsigned_diff>
      R_DDR = HiPinRL | TriPinRH;	//R_H port of Tristate-Pin (Basis) to output
    20a0:	5c 01       	movw	r10, r24
      R_PORT = HiPinRL | TriPinRH;	//R_H port of Tristate-Pin (Basis) to VCC
    20a2:	80 91 1b 01 	lds	r24, 0x011B
      adc.hp2 = W5msReadADC(HighPin);	//measure the voltage at the collector  
    20a6:	90 91 1c 01 	lds	r25, 0x011C
    20aa:	9c 01       	movw	r18, r24
 #else
      R_PORT = HiPinRL | TriPinRH;	//R_H port of Tristate-Pin (Basis) to VCC
      adc.hp2 = W20msReadADC(HighPin);	//measure the voltage at the collector  
 #endif
      adc.rhp = vcc_diff(adc.hp2);	// voltage at the collector resistor
    20ac:	40 e0       	ldi	r20, 0x00	; 0
    20ae:	50 e0       	ldi	r21, 0x00	; 0
    20b0:	60 e8       	ldi	r22, 0x80	; 128
    20b2:	71 ea       	ldi	r23, 0xA1	; 161
      adc.tp2 = ReadADC(TristatePin);	//measure the voltage at the base 
    20b4:	83 e0       	ldi	r24, 0x03	; 3
    20b6:	9c e1       	ldi	r25, 0x1C	; 28
    20b8:	0e 94 6d 31 	call	0x62da	; 0x62da <__udivmodsi4>
    20bc:	d5 01       	movw	r26, r10
      adc.rtp = vcc_diff(adc.tp2);	// voltage at the base resistor
    20be:	0e 94 c0 31 	call	0x6380	; 0x6380 <__muluhisi3>
    20c2:	96 01       	movw	r18, r12
      adc.lp2 = ReadADC(LowPin);
    20c4:	40 e0       	ldi	r20, 0x00	; 0
    20c6:	50 e0       	ldi	r21, 0x00	; 0
    20c8:	0e 94 6d 31 	call	0x62da	; 0x62da <__udivmodsi4>
      lcd_data('p');
      lcd_space();
      mVOut(adc.rtp);
 #endif

      if(adc.rtp > 2557) {		// Basis-voltage R_H is low enough
    20cc:	80 91 4e 01 	lds	r24, 0x014E
    20d0:	88 23       	and	r24, r24
    20d2:	69 f0       	breq	.+26     	; 0x20ee <CheckPins+0xa12>
    20d4:	80 91 3f 01 	lds	r24, 0x013F
         PartFound = PART_TRANSISTOR;	//NPN-Transistor is found (Base is near GND)
    20d8:	90 91 40 01 	lds	r25, 0x0140
    20dc:	a0 91 41 01 	lds	r26, 0x0141
         PartMode = PART_MODE_NPN;
    20e0:	b0 91 42 01 	lds	r27, 0x0142
         lcd_line4();
         lcd_data('N');
  #endif
         //compute current amplification factor for common Emitter
         //hFE = B = Collector current / Base current
         tmp16 = unsigned_diff(adc.rhp, adc.lp_otr);	// subtract residual current
    20e4:	82 17       	cp	r24, r18
    20e6:	93 07       	cpc	r25, r19
    20e8:	a4 07       	cpc	r26, r20
    20ea:	b5 07       	cpc	r27, r21
    20ec:	28 f5       	brcc	.+74     	; 0x2138 <CheckPins+0xa5c>
    20ee:	20 93 3f 01 	sts	0x013F, r18
         // e_hfe with 1% resolution for optocoupler
  #ifdef LONG_HFE
   #if DebugOut == 5
         lcd_data('H');		// NHce
   #endif
         e_hfe = ((unsigned int)tmp16 * (unsigned long)(((unsigned long)R_H_VAL * 10000) / 
    20f2:	30 93 40 01 	sts	0x0140, r19
    20f6:	40 93 41 01 	sts	0x0141, r20
    20fa:	50 93 42 01 	sts	0x0142, r21
    20fe:	b8 01       	movw	r22, r16
    2100:	8d 81       	ldd	r24, Y+5	; 0x05
    2102:	9e 81       	ldd	r25, Y+6	; 0x06
    2104:	0e 94 4b 05 	call	0xa96	; 0xa96 <unsigned_diff>
    2108:	90 93 44 01 	sts	0x0144, r25
    210c:	80 93 43 01 	sts	0x0143, r24
              (unsigned int)RR680PL)) / (unsigned int)adc.rtp;	
    2110:	28 89       	ldd	r18, Y+16	; 0x10
    2112:	39 89       	ldd	r19, Y+17	; 0x11
    2114:	a0 e1       	ldi	r26, 0x10	; 16
         // e_hfe with 1% resolution for optocoupler
  #ifdef LONG_HFE
   #if DebugOut == 5
         lcd_data('H');		// NHce
   #endif
         e_hfe = ((unsigned int)tmp16 * (unsigned long)(((unsigned long)R_H_VAL * 10000) / 
    2116:	b7 e2       	ldi	r27, 0x27	; 39
    2118:	0e 94 ab 31 	call	0x6356	; 0x6356 <__umulhisi3>
         mVOut(adc.rtp);
         lcd_data('B');
         lcd_data('=');
         DisplayValue(e_hfe,-2,' ',3);
 #endif
         if ((ntrans.count == 0) || (e_hfe > ntrans.hfe)){
    211c:	20 91 1b 01 	lds	r18, 0x011B
    2120:	30 91 1c 01 	lds	r19, 0x011C
    2124:	40 e0       	ldi	r20, 0x00	; 0
    2126:	50 e0       	ldi	r21, 0x00	; 0
    2128:	0e 94 6d 31 	call	0x62da	; 0x62da <__udivmodsi4>
    212c:	30 93 46 01 	sts	0x0146, r19
    2130:	20 93 45 01 	sts	0x0145, r18
    2134:	21 e0       	ldi	r18, 0x01	; 1
    2136:	01 c0       	rjmp	.+2      	; 0x213a <CheckPins+0xa5e>
    2138:	20 e0       	ldi	r18, 0x00	; 0
    213a:	80 91 3f 01 	lds	r24, 0x013F
            ntrans.hfe = e_hfe;
    213e:	90 91 40 01 	lds	r25, 0x0140
    2142:	a0 91 41 01 	lds	r26, 0x0141
    2146:	b0 91 42 01 	lds	r27, 0x0142
    214a:	4a 85       	ldd	r20, Y+10	; 0x0a
            ntrans.uBE = unsigned_diff(adc.tp2, adc.lp2);
    214c:	5b 85       	ldd	r21, Y+11	; 0x0b
    214e:	6c 85       	ldd	r22, Y+12	; 0x0c
    2150:	7d 85       	ldd	r23, Y+13	; 0x0d
    2152:	84 17       	cp	r24, r20
    2154:	95 07       	cpc	r25, r21
    2156:	a6 07       	cpc	r26, r22
    2158:	b7 07       	cpc	r27, r23
    215a:	28 f5       	brcc	.+74     	; 0x21a6 <CheckPins+0xaca>
    215c:	40 93 3f 01 	sts	0x013F, r20
  #if FLASHEND > 0x1fff  /* at least ATmega16 */
            ntrans.current = (unsigned int)(((unsigned long)adc.rhp * 10000) / RR680PL); // Ic 1uA
    2160:	50 93 40 01 	sts	0x0140, r21
    2164:	60 93 41 01 	sts	0x0141, r22
    2168:	70 93 42 01 	sts	0x0142, r23
    216c:	b7 01       	movw	r22, r14
    216e:	8f 81       	ldd	r24, Y+7	; 0x07
    2170:	98 85       	ldd	r25, Y+8	; 0x08
    2172:	0e 94 4b 05 	call	0xa96	; 0xa96 <unsigned_diff>
    2176:	90 93 44 01 	sts	0x0144, r25
    217a:	80 93 43 01 	sts	0x0143, r24
    217e:	97 01       	movw	r18, r14
    2180:	a0 e1       	ldi	r26, 0x10	; 16
  #endif
            update_pins = 1;
    2182:	b7 e2       	ldi	r27, 0x27	; 39
    2184:	0e 94 ab 31 	call	0x6356	; 0x6356 <__umulhisi3>
 #endif
#ifdef COMMON_COLLECTOR
          //compare current amplification factor for common Collector (Emitter follower)
          // hFE = (Emitterstrom - Basisstrom) / Basisstrom
 #ifdef COMMON_EMITTER
          if (c_hfe >  ntrans.hfe)
    2188:	20 91 14 01 	lds	r18, 0x0114
    218c:	30 91 15 01 	lds	r19, 0x0115
    2190:	40 e0       	ldi	r20, 0x00	; 0
    2192:	50 e0       	ldi	r21, 0x00	; 0
    2194:	0e 94 6d 31 	call	0x62da	; 0x62da <__udivmodsi4>
    2198:	20 5f       	subi	r18, 0xF0	; 240
    219a:	38 4d       	sbci	r19, 0xD8	; 216
    219c:	30 93 46 01 	sts	0x0146, r19
    21a0:	20 93 45 01 	sts	0x0145, r18
    21a4:	03 c0       	rjmp	.+6      	; 0x21ac <CheckPins+0xad0>
    21a6:	22 23       	and	r18, r18
    21a8:	09 f4       	brne	.+2      	; 0x21ac <CheckPins+0xad0>
 #else
          if ((ntrans.count == 0) || (c_hfe >  ntrans.hfe))
 #endif
          {
            ntrans.hfe = c_hfe;
    21aa:	76 c1       	rjmp	.+748    	; 0x2498 <CheckPins+0xdbc>
    21ac:	93 01       	movw	r18, r6
    21ae:	a0 e1       	ldi	r26, 0x10	; 16
    21b0:	b7 e2       	ldi	r27, 0x27	; 39
    21b2:	0e 94 ab 31 	call	0x6356	; 0x6356 <__umulhisi3>
    21b6:	20 91 14 01 	lds	r18, 0x0114
            ntrans.uBE = unsigned_diff(adc.tp1, adc.lp1);
    21ba:	30 91 15 01 	lds	r19, 0x0115
    21be:	40 e0       	ldi	r20, 0x00	; 0
    21c0:	50 e0       	ldi	r21, 0x00	; 0
    21c2:	0e 94 6d 31 	call	0x62da	; 0x62da <__udivmodsi4>
    21c6:	30 93 48 01 	sts	0x0148, r19
    21ca:	20 93 47 01 	sts	0x0147, r18
 #if FLASHEND > 0x1fff  /* at least ATmega16 */
            ntrans.current = (unsigned int)(((unsigned long)adc.lp1 * 10000) / RR680MI); // Ie 1uA
    21ce:	92 01       	movw	r18, r4
    21d0:	a0 e1       	ldi	r26, 0x10	; 16
    21d2:	b7 e2       	ldi	r27, 0x27	; 39
    21d4:	0e 94 ab 31 	call	0x6356	; 0x6356 <__umulhisi3>
    21d8:	20 91 1b 01 	lds	r18, 0x011B
    21dc:	30 91 1c 01 	lds	r19, 0x011C
    21e0:	40 e0       	ldi	r20, 0x00	; 0
    21e2:	50 e0       	ldi	r21, 0x00	; 0
    21e4:	0e 94 6d 31 	call	0x62da	; 0x62da <__udivmodsi4>
            ntrans.current += 10000;	// mark current at emitter!
    21e8:	30 93 4a 01 	sts	0x014A, r19
    21ec:	20 93 49 01 	sts	0x0149, r18
    21f0:	52 c1       	rjmp	.+676    	; 0x2496 <CheckPins+0xdba>
    21f2:	51 e6       	ldi	r21, 0x61	; 97
#endif
#if DebugOut == 5
         lcd_data('B');
#endif
#ifdef SHOW_ICE
         if (update_pins != 0) {
    21f4:	65 16       	cp	r6, r21
    21f6:	71 04       	cpc	r7, r1
    21f8:	08 f0       	brcs	.+2      	; 0x21fc <CheckPins+0xb20>
	    // update residual collector (emitter) current without base current
            ntrans.ice0 = (unsigned int)(((unsigned long)adc.lp_otr * 10000) / RR680MI); // ICE0 0.01mA
    21fa:	67 c0       	rjmp	.+206    	; 0x22ca <CheckPins+0xbee>
    21fc:	68 89       	ldd	r22, Y+16	; 0x10
    21fe:	79 89       	ldd	r23, Y+17	; 0x11
    2200:	69 34       	cpi	r22, 0x49	; 73
    2202:	7d 40       	sbci	r23, 0x0D	; 13
    2204:	08 f4       	brcc	.+2      	; 0x2208 <CheckPins+0xb2c>
    2206:	61 c0       	rjmp	.+194    	; 0x22ca <CheckPins+0xbee>
    2208:	85 e0       	ldi	r24, 0x05	; 5
    220a:	80 93 1a 01 	sts	0x011A, r24
    220e:	82 e0       	ldi	r24, 0x02	; 2
    2210:	80 93 19 01 	sts	0x0119, r24
    2214:	c8 01       	movw	r24, r16
    2216:	86 50       	subi	r24, 0x06	; 6
    2218:	9f 4f       	sbci	r25, 0xFF	; 255
    221a:	8a 15       	cp	r24, r10
            ntrans.ices = (unsigned int)(((unsigned long)adc.vCEs * 10000) / RR680PL); // ICEs 0.01mA
    221c:	9b 05       	cpc	r25, r11
    221e:	20 f4       	brcc	.+8      	; 0x2228 <CheckPins+0xb4c>
    2220:	83 e0       	ldi	r24, 0x03	; 3
    2222:	80 93 19 01 	sts	0x0119, r24
    2226:	17 c0       	rjmp	.+46     	; 0x2256 <CheckPins+0xb7a>
    2228:	e0 90 1b 01 	lds	r14, 0x011B
    222c:	f0 90 1c 01 	lds	r15, 0x011C
    2230:	b8 01       	movw	r22, r16
    2232:	c5 01       	movw	r24, r10
    2234:	0e 94 4b 05 	call	0xa96	; 0xa96 <unsigned_diff>
    2238:	9c 01       	movw	r18, r24
    223a:	d7 01       	movw	r26, r14
    223c:	0e 94 ab 31 	call	0x6356	; 0x6356 <__umulhisi3>
         }
#endif
         goto saveNresult;		// count the found N-Type and exit
      } 
      // Base has low current
      if((adc.lp_otr < 97) && (adc.rhp > 3400)) {
    2240:	a8 89       	ldd	r26, Y+16	; 0x10
    2242:	b9 89       	ldd	r27, Y+17	; 0x11
    2244:	9d 01       	movw	r18, r26
    2246:	40 e0       	ldi	r20, 0x00	; 0
    2248:	50 e0       	ldi	r21, 0x00	; 0
    224a:	0e 94 6d 31 	call	0x62da	; 0x62da <__udivmodsi4>
    224e:	30 93 44 01 	sts	0x0144, r19
    2252:	20 93 43 01 	sts	0x0143, r18
         //if flow voltage in switched off mode low enough?
         //(since D-Mode-FET will be detected in error as E-Mode )
         PartFound = PART_FET;	//N-Kanal-MOSFET is found (Basis/Gate will Not be pulled down)
    2256:	03 2d       	mov	r16, r3
    2258:	07 70       	andi	r16, 0x07	; 7
    225a:	82 2d       	mov	r24, r2
         PartMode = PART_MODE_MOS|N_CHANNEL|E_MODE;
    225c:	80 64       	ori	r24, 0x40	; 64
    225e:	80 93 7c 00 	sts	0x007C, r24
         if (adc.hp2 > (250+adc.lp2)) {
    2262:	1b e0       	ldi	r17, 0x0B	; 11
    2264:	ee 24       	eor	r14, r14
    2266:	e3 94       	inc	r14
    2268:	f1 2c       	mov	r15, r1
    226a:	a8 95       	wdr
    226c:	60 e0       	ldi	r22, 0x00	; 0
            // Drain-Source Voltage is too high for N_E_MOS
            PartMode = PART_MODE_IGBT|N_CHANNEL|E_MODE;
    226e:	8c 81       	ldd	r24, Y+4	; 0x04
    2270:	25 d3       	rcall	.+1610   	; 0x28bc <ChargePin10ms>
    2272:	b9 85       	ldd	r27, Y+9	; 0x09
    2274:	b4 b9       	out	0x04, r27	; 4
#ifdef SHOW_R_DS
         } else {
            ntrans.uBE = RR680PL * (unsigned long)unsigned_diff(adc.hp2, adc.lp2) / adc.rhp; // DS resistance in 0.1 OHm
    2276:	b5 b9       	out	0x05, r27	; 5
    2278:	86 b1       	in	r24, 0x06	; 6
    227a:	80 23       	and	r24, r16
    227c:	e9 f7       	brne	.-6      	; 0x2278 <CheckPins+0xb9c>
    227e:	e9 81       	ldd	r30, Y+1	; 0x01
    2280:	e4 b9       	out	0x04, r30	; 4
    2282:	80 91 7a 00 	lds	r24, 0x007A
    2286:	80 64       	ori	r24, 0x40	; 64
    2288:	80 93 7a 00 	sts	0x007A, r24
    228c:	80 91 7a 00 	lds	r24, 0x007A
    2290:	86 fd       	sbrc	r24, 6
    2292:	fc cf       	rjmp	.-8      	; 0x228c <CheckPins+0xbb0>
    2294:	80 91 78 00 	lds	r24, 0x0078
    2298:	90 91 79 00 	lds	r25, 0x0079
    229c:	e8 0e       	add	r14, r24
    229e:	f9 1e       	adc	r15, r25
    22a0:	11 50       	subi	r17, 0x01	; 1
    22a2:	19 f7       	brne	.-58     	; 0x226a <CheckPins+0xb8e>
         lcd_data('F');
#endif
         //Switching of Drain is monitored with digital input
         // Low level is specified up to 0.3 * VCC
         // High level is specified above 0.6 * VCC
         PinMSK = HiADCm & 7;
    22a4:	c7 01       	movw	r24, r14
    22a6:	88 0f       	add	r24, r24
         // measure Threshold voltage of Gate
         ADMUX = TristatePin | (1<<REFS0);	// measure TristatePin, Ref. VCC
    22a8:	99 1f       	adc	r25, r25
    22aa:	88 0f       	add	r24, r24
    22ac:	99 1f       	adc	r25, r25
    22ae:	69 e0       	ldi	r22, 0x09	; 9
    22b0:	70 e0       	ldi	r23, 0x00	; 0
         tmp16 = 1;			// round up ((1*4)/9)
    22b2:	0e 94 46 31 	call	0x628c	; 0x628c <__udivmodhi4>
    22b6:	70 93 4a 01 	sts	0x014A, r23
         for(ii=0;ii<11;ii++) {
            wdt_reset();
            ChargePin10ms(TriPinRL,0);	// discharge Gate 10ms with RL 
    22ba:	60 93 49 01 	sts	0x0149, r22
    22be:	80 91 4e 01 	lds	r24, 0x014E
            R_DDR = HiPinRL | TriPinRH;	// slowly charge Gate 
    22c2:	8f 5f       	subi	r24, 0xFF	; 255
    22c4:	80 93 4e 01 	sts	0x014E, r24
            R_PORT = HiPinRL | TriPinRH;
            while ((ADC_PIN&PinMSK));	// Wait, until the MOSFET switch and Drain moved to low 
    22c8:	e6 c0       	rjmp	.+460    	; 0x2496 <CheckPins+0xdba>
    22ca:	17 b8       	out	0x07, r1	; 7
    22cc:	18 b8       	out	0x08, r1	; 8
             		// 0 is detected with input voltage of 2.12V to 2.24V (tested with mega168 & mega328)
            R_DDR = HiPinRL;		// switch off current
    22ce:	14 b8       	out	0x04, r1	; 4
    22d0:	15 b8       	out	0x05, r1	; 5
            ADCSRA |= (1<<ADSC);		// start ADC conversion
    22d2:	17 b8       	out	0x07, r1	; 7
    22d4:	f7 ec       	ldi	r31, 0xC7	; 199
    22d6:	6f 16       	cp	r6, r31
    22d8:	f1 e0       	ldi	r31, 0x01	; 1
    22da:	7f 06       	cpc	r7, r31
            while (ADCSRA&(1<<ADSC));	// wait until ADC finished
    22dc:	08 f4       	brcc	.+2      	; 0x22e0 <CheckPins+0xc04>
    22de:	bf c0       	rjmp	.+382    	; 0x245e <CheckPins+0xd82>
    22e0:	18 b8       	out	0x08, r1	; 8
    22e2:	2f 85       	ldd	r18, Y+15	; 0x0f
            tmp16 += ADCW;		// add result of ADC
    22e4:	24 b9       	out	0x04, r18	; 4
    22e6:	18 ec       	ldi	r17, 0xC8	; 200
    22e8:	0b 81       	ldd	r16, Y+3	; 0x03
    22ea:	03 29       	or	r16, r3
    22ec:	07 b9       	out	0x07, r16	; 7
    22ee:	81 e0       	ldi	r24, 0x01	; 1
    22f0:	0e 94 aa 04 	call	0x954	; 0x954 <sleep_5ms>
         }
         tmp16 *= 4;	//is equal to 44 * ADCW
    22f4:	3b 81       	ldd	r19, Y+3	; 0x03
    22f6:	37 b9       	out	0x07, r19	; 7
    22f8:	89 2d       	mov	r24, r9
    22fa:	0e 94 e2 04 	call	0x9c4	; 0x9c4 <ReadADC>
         ntrans.gthvoltage = tmp16/ 9;	//scale to mV
    22fe:	42 97       	sbiw	r24, 0x12	; 18
    2300:	10 f0       	brcs	.+4      	; 0x2306 <CheckPins+0xc2a>
    2302:	11 50       	subi	r17, 0x01	; 1
    2304:	99 f7       	brne	.-26     	; 0x22ec <CheckPins+0xc10>
    2306:	4f 85       	ldd	r20, Y+15	; 0x0f
    2308:	44 b9       	out	0x04, r20	; 4
    230a:	45 b9       	out	0x05, r20	; 5
    230c:	61 e0       	ldi	r22, 0x01	; 1
         ntrans.count++;		// count FET as two to accelerate  searching
    230e:	8c 81       	ldd	r24, Y+4	; 0x04
    2310:	d5 d2       	rcall	.+1450   	; 0x28bc <ChargePin10ms>
    2312:	89 2d       	mov	r24, r9
    2314:	0e 94 de 04 	call	0x9bc	; 0x9bc <W5msReadADC>
    2318:	6c 01       	movw	r12, r24
         goto saveNresult;
      }
   } // end component conduct => npn
   ADC_DDR = TXD_MSK;		// switch all ADC-Ports to input
    231a:	58 8d       	ldd	r21, Y+24	; 0x18
   ADC_PORT = TXD_VAL;		// switch all ADC-Ports to 0 (no Pull up)
    231c:	54 b9       	out	0x04, r21	; 4

//##########################################################################################
// Search for diodes
//##########################################################################################
checkDiode:
  R_DDR = 0;			//switch off resistor current
    231e:	15 b8       	out	0x05, r1	; 5
  R_PORT = 0;
    2320:	37 b8       	out	0x07, r3	; 7
  ADC_DDR = TXD_MSK;		// switch ADC ports to input
    2322:	38 b8       	out	0x08, r3	; 8
//  if (adc.lp_otr < 977) 
  if (adc.lp_otr < 455) {
    2324:	60 e0       	ldi	r22, 0x00	; 0
    2326:	8c 81       	ldd	r24, Y+4	; 0x04
    2328:	c9 d2       	rcall	.+1426   	; 0x28bc <ChargePin10ms>
    232a:	88 2d       	mov	r24, r8
    232c:	0e 94 de 04 	call	0x9bc	; 0x9bc <W5msReadADC>
#endif
     goto widmes;
  }
  // component has current
  //Test if Diode
  ADC_PORT = TXD_VAL;
    2330:	0e 94 46 05 	call	0xa8c	; 0xa8c <vcc_diff>
  R_DDR = HiPinRH;              // enable resistor from HiPin to ground during the upcoming discharge, so if there's some leakage in the circuit (e.g., via protection diodes) this can't upset the discharge test
    2334:	5c 01       	movw	r10, r24
    2336:	6e 85       	ldd	r22, Y+14	; 0x0e
  for (ii=0;ii<200;ii++) {
     ADC_DDR = LoADCm | HiADCm; // discharge by short of Low and High side
    2338:	64 b9       	out	0x04, r22	; 4
    233a:	88 2d       	mov	r24, r8
    233c:	0e 94 e2 04 	call	0x9c4	; 0x9c4 <ReadADC>
     wait_about5ms();		// Low and Highpin to GND for discharge
    2340:	8c 01       	movw	r16, r24
    2342:	89 2d       	mov	r24, r9
     ADC_DDR = LoADCm;		// switch only Low-Pin fix to GND
    2344:	0e 94 de 04 	call	0x9bc	; 0x9bc <W5msReadADC>
     adc.hp1 = ReadADC(HighPin); // read voltage at High-Pin
    2348:	b8 01       	movw	r22, r16
    234a:	0e 94 4b 05 	call	0xa96	; 0xa96 <unsigned_diff>
     if (adc.hp1 < (150/8)) break;
    234e:	8c 01       	movw	r16, r24
    2350:	88 2d       	mov	r24, r8
    2352:	0e 94 e2 04 	call	0x9c4	; 0x9c4 <ReadADC>
 #if FLASHEND > 0x1fff
  /* It is difficult to detect the protection diode of D-mode MOSFET . */
  /* We have to generate a negative gate voltage to isolate the diode. */
  /* For P-mode the resistors must reside on the VCC side. */
  /* For N-mode the resistors must be moved to the GND side. */
  R_DDR = HiPinRH;		//switch R_H port for High-Pin output (VCC)
    2356:	7c 01       	movw	r14, r24
    2358:	89 2d       	mov	r24, r9
  R_PORT = HiPinRH;
    235a:	0e 94 de 04 	call	0x9bc	; 0x9bc <W5msReadADC>
  ChargePin10ms(TriPinRL,1);	//discharge of P-Kanal-MOSFET gate
    235e:	b7 01       	movw	r22, r14
    2360:	0e 94 4b 05 	call	0xa96	; 0xa96 <unsigned_diff>
  adc.hp2 = W5msReadADC(HighPin); 		// GND--|<--HP--R_H--VCC
    2364:	98 01       	movw	r18, r16
    2366:	2c 5e       	subi	r18, 0xEC	; 236
    2368:	3f 4f       	sbci	r19, 0xFF	; 255
    236a:	28 17       	cp	r18, r24
  // now the resistor is moved to the Low side
  R_DDR = LoPinRH;
    236c:	39 07       	cpc	r19, r25
    236e:	08 f4       	brcc	.+2      	; 0x2372 <CheckPins+0xc96>
  R_PORT = 0;
    2370:	79 c0       	rjmp	.+242    	; 0x2464 <CheckPins+0xd88>
  ADC_DDR = HiADCm;		// switch High-Pin fix to VCC
    2372:	18 b8       	out	0x08, r1	; 8
  ADC_PORT = HiADCp;
    2374:	7b 81       	ldd	r23, Y+3	; 0x03
  ChargePin10ms(TriPinRL,0);	//discharge for N-Kanal-MOSFET gate
    2376:	77 b9       	out	0x07, r23	; 7
    2378:	89 81       	ldd	r24, Y+1	; 0x01
    237a:	84 b9       	out	0x04, r24	; 4
    237c:	85 b9       	out	0x05, r24	; 5
  adc.hp3 = vcc_diff(W5msReadADC(LowPin)); // GND--R_H--LP--|<--VCC
    237e:	61 e0       	ldi	r22, 0x01	; 1
    2380:	8c 81       	ldd	r24, Y+4	; 0x04
    2382:	9c d2       	rcall	.+1336   	; 0x28bc <ChargePin10ms>
    2384:	88 2d       	mov	r24, r8
    2386:	0e 94 e2 04 	call	0x9c4	; 0x9c4 <ReadADC>
  /* check with higher current (R_L=680) */
  R_DDR = LoPinRL;
    238a:	7c 01       	movw	r14, r24
    238c:	89 2d       	mov	r24, r9
  adc.hp1 = unsigned_diff(W5msReadADC(HighPin), ReadADC(LowPin)); // GND--R_L--LP--|<--VCC
    238e:	0e 94 de 04 	call	0x9bc	; 0x9bc <W5msReadADC>
    2392:	b7 01       	movw	r22, r14
    2394:	0e 94 4b 05 	call	0xa96	; 0xa96 <unsigned_diff>
    2398:	7c 01       	movw	r14, r24
    239a:	08 17       	cp	r16, r24
    239c:	19 07       	cpc	r17, r25
    239e:	50 f4       	brcc	.+20     	; 0x23b4 <CheckPins+0xcd8>
    23a0:	9f 85       	ldd	r25, Y+15	; 0x0f
    23a2:	94 b9       	out	0x04, r25	; 4
  // test for capacitor behaviour
  adc.lp_otr = unsigned_diff(W5msReadADC(HighPin), ReadADC(LowPin)); // GND--R_L--LP--|<--VCC
    23a4:	95 b9       	out	0x05, r25	; 5
    23a6:	89 2d       	mov	r24, r9
    23a8:	0e 94 de 04 	call	0x9bc	; 0x9bc <W5msReadADC>
    23ac:	9c 01       	movw	r18, r24
    23ae:	56 01       	movw	r10, r12
    23b0:	87 01       	movw	r16, r14
    23b2:	0e c0       	rjmp	.+28     	; 0x23d0 <CheckPins+0xcf4>
    23b4:	a8 8d       	ldd	r26, Y+24	; 0x18
    23b6:	a4 b9       	out	0x04, r26	; 4
     lcd_data('c');	// debug
     mVOut(adc.hp1);
     mVOut(adc.lp_otr);
#endif
 // if (adc.lp_otr > (adc.hp1+adc.hp1/8))
  if (adc.lp_otr > (adc.hp1+20))
    23b8:	15 b8       	out	0x05, r1	; 5
    23ba:	37 b8       	out	0x07, r3	; 7
    23bc:	38 b8       	out	0x08, r3	; 8
    23be:	60 e0       	ldi	r22, 0x00	; 0
    23c0:	8c 81       	ldd	r24, Y+4	; 0x04
    23c2:	7c d2       	rcall	.+1272   	; 0x28bc <ChargePin10ms>
    23c4:	88 2d       	mov	r24, r8
     lcd_data('D');	// debug
#endif
     goto clean_ports;
  }
  //  the resistor is moved back to the High side
  ADC_PORT = TXD_VAL;
    23c6:	0e 94 de 04 	call	0x9bc	; 0x9bc <W5msReadADC>
  ADC_DDR = LoADCm;		// switch only Low-Pin fix to GND
    23ca:	0e 94 46 05 	call	0xa8c	; 0xa8c <vcc_diff>
  R_DDR = HiPinRL;		//switch R_L port for High-Pin output (VCC)
    23ce:	9c 01       	movw	r18, r24
  R_PORT = HiPinRL;
    23d0:	08 3e       	cpi	r16, 0xE8	; 232
  ChargePin10ms(TriPinRL,1);	//discharge for P-Kanal-MOSFET gate
    23d2:	b3 e0       	ldi	r27, 0x03	; 3
    23d4:	1b 07       	cpc	r17, r27
    23d6:	30 f4       	brcc	.+12     	; 0x23e4 <CheckPins+0xd08>
    23d8:	c8 01       	movw	r24, r16
  adc.lp_otr = unsigned_diff(W5msReadADC(HighPin), ReadADC(LowPin)); // GND--|<--HP--R_L--VCC
    23da:	64 e6       	ldi	r22, 0x64	; 100
    23dc:	70 e0       	ldi	r23, 0x00	; 0
    23de:	0e 94 46 31 	call	0x628c	; 0x628c <__udivmodhi4>
    23e2:	06 c0       	rjmp	.+12     	; 0x23f0 <CheckPins+0xd14>
    23e4:	b8 01       	movw	r22, r16
    23e6:	84 e0       	ldi	r24, 0x04	; 4
    23e8:	76 95       	lsr	r23
    23ea:	67 95       	ror	r22
    23ec:	8a 95       	dec	r24
    23ee:	e1 f7       	brne	.-8      	; 0x23e8 <CheckPins+0xd0c>
  if(adc.lp_otr > adc.hp1) {
    23f0:	c8 01       	movw	r24, r16
    23f2:	87 59       	subi	r24, 0x97	; 151
    23f4:	91 09       	sbc	r25, r1
      adc.hp1 = adc.lp_otr;	//the higher value wins
      adc.hp3 = adc.hp2;
      R_DDR = HiPinRH;		//switch R_H port for High-Pin output (VCC)
    23f6:	89 38       	cpi	r24, 0x89	; 137
    23f8:	91 41       	sbci	r25, 0x11	; 17
      R_PORT = HiPinRH;
    23fa:	88 f5       	brcc	.+98     	; 0x245e <CheckPins+0xd82>
      adc.hp2 = W5msReadADC(HighPin); 		// GND--|<--HP--R_H--VCC
    23fc:	20 17       	cp	r18, r16
    23fe:	31 07       	cpc	r19, r17
    2400:	70 f5       	brcc	.+92     	; 0x245e <CheckPins+0xd82>
    2402:	c5 01       	movw	r24, r10
  R_PORT = HiPinRL;
  ChargePin10ms(TriPinRL,1);	//discharge for P-Kanal-MOSFET gate
  adc.lp_otr = unsigned_diff(W5msReadADC(HighPin), ReadADC(LowPin)); // GND--|<--HP--R_L--VCC
  if(adc.lp_otr > adc.hp1) {
      adc.hp1 = adc.lp_otr;	//the higher value wins
      adc.hp3 = adc.hp2;
    2404:	b3 e0       	ldi	r27, 0x03	; 3
    2406:	96 95       	lsr	r25
    2408:	87 95       	ror	r24
      R_DDR = HiPinRH;		//switch R_H port for High-Pin output (VCC)
      R_PORT = HiPinRH;
      adc.hp2 = W5msReadADC(HighPin); 		// GND--|<--HP--R_H--VCC
  } else {
      R_DDR = LoPinRH;
    240a:	ba 95       	dec	r27
    240c:	e1 f7       	brne	.-8      	; 0x2406 <CheckPins+0xd2a>
      R_PORT = 0;
    240e:	89 3c       	cpi	r24, 0xC9	; 201
      ADC_DDR = HiADCm;		// switch High-Pin fix to VCC
    2410:	91 05       	cpc	r25, r1
      ADC_PORT = HiADCp;
    2412:	10 f0       	brcs	.+4      	; 0x2418 <CheckPins+0xd3c>
      ChargePin10ms(TriPinRL,0);	//discharge for N-Kanal-MOSFET gate
    2414:	88 ec       	ldi	r24, 0xC8	; 200
    2416:	90 e0       	ldi	r25, 0x00	; 0
    2418:	8a 0d       	add	r24, r10
    241a:	9b 1d       	adc	r25, r11
      adc.hp2 = vcc_diff(W5msReadADC(LowPin)); // GND--R_H--LP--|<--VCC
    241c:	80 17       	cp	r24, r16
    241e:	91 07       	cpc	r25, r17
    2420:	f0 f4       	brcc	.+60     	; 0x245e <CheckPins+0xd82>
    2422:	6a 15       	cp	r22, r10
    2424:	7b 05       	cpc	r23, r11
    2426:	d8 f4       	brcc	.+54     	; 0x245e <CheckPins+0xd82>
  lcd_data('H');	// debug
  mVOut(adc.hp2);
#endif
  volt_dif = adc.hp3/8;
  if (volt_dif > 200) volt_dif = 200;
  if (adc.hp1 < 1000) tmp16 = adc.hp1/100;
    2428:	80 91 1a 01 	lds	r24, 0x011A
    242c:	83 30       	cpi	r24, 0x03	; 3
    242e:	18 f4       	brcc	.+6      	; 0x2436 <CheckPins+0xd5a>
    2430:	83 e0       	ldi	r24, 0x03	; 3
    2432:	80 93 1a 01 	sts	0x011A, r24
    2436:	80 91 18 01 	lds	r24, 0x0118
    243a:	e8 2f       	mov	r30, r24
  else                tmp16 = adc.hp1/16;
    243c:	f0 e0       	ldi	r31, 0x00	; 0
    243e:	df 01       	movw	r26, r30
    2440:	a7 57       	subi	r26, 0x77	; 119
    2442:	be 4f       	sbci	r27, 0xFE	; 254
    2444:	9c 92       	st	X, r9
    2446:	16 96       	adiw	r26, 0x06	; 6

  if((adc.hp1 > 150) && (adc.hp1 < 4640) && (adc.hp2 < adc.hp1) && (adc.hp1 > (adc.hp3+volt_dif)) && (adc.hp3 > tmp16))
    2448:	8c 92       	st	X, r8
    244a:	ee 0f       	add	r30, r30
    244c:	ff 1f       	adc	r31, r31
    244e:	eb 56       	subi	r30, 0x6B	; 107
    2450:	fe 4f       	sbci	r31, 0xFE	; 254
    2452:	11 83       	std	Z+1, r17	; 0x01
    2454:	00 83       	st	Z, r16
    2456:	8f 5f       	subi	r24, 0xFF	; 255
    2458:	80 93 18 01 	sts	0x0118, r24
  lcd_data('L');	// debug
  mVOut(adc.hp1);
  lcd_data('H');	// debug
  mVOut(adc.hp2);
#endif
  volt_dif = adc.hp3/8;
    245c:	03 c0       	rjmp	.+6      	; 0x2464 <CheckPins+0xd88>
    245e:	68 2d       	mov	r22, r8
    2460:	89 2d       	mov	r24, r9
    2462:	28 d0       	rcall	.+80     	; 0x24b4 <GetResistance>
    2464:	17 b8       	out	0x07, r1	; 7
    2466:	18 b8       	out	0x08, r1	; 8
    2468:	14 b8       	out	0x04, r1	; 4
    246a:	15 b8       	out	0x05, r1	; 5
    246c:	8e e2       	ldi	r24, 0x2E	; 46
    246e:	0e 94 59 01 	call	0x2b2	; 0x2b2 <lcd_data>
  if (volt_dif > 200) volt_dif = 200;
  if (adc.hp1 < 1000) tmp16 = adc.hp1/100;
  else                tmp16 = adc.hp1/16;

  if((adc.hp1 > 150) && (adc.hp1 < 4640) && (adc.hp2 < adc.hp1) && (adc.hp1 > (adc.hp3+volt_dif)) && (adc.hp3 > tmp16))
    2472:	6d 96       	adiw	r28, 0x1d	; 29
    2474:	e2 e1       	ldi	r30, 0x12	; 18
    2476:	0c 94 ec 31 	jmp	0x63d8	; 0x63d8 <__epilogue_restores__>
    247a:	80 91 68 01 	lds	r24, 0x0168
    247e:	8f 5f       	subi	r24, 0xFF	; 255
     {
     //voltage is above 0,15V and below 4,64V => Ok
     // hp2 >= hp1 is only possible with capacitor, not with a diode, hp2 is measured with 470k
     // (adc.hp3 > adc.hp1/16) was OK for most cases, but not for gate of a TRIAC (where adc.hp1/100 detect the diode)
     // for resistors the expected value is about adc.hp1/670, so adc.hp1/100 should also be OK to differ with resistor
     if(PartFound < PART_DIODE) {
    2480:	80 93 68 01 	sts	0x0168, r24
    2484:	22 23       	and	r18, r18
    2486:	71 f3       	breq	.-36     	; 0x2464 <CheckPins+0xd88>
        PartFound = PART_DIODE;	//mark for diode only, if no other component is found
    2488:	20 92 65 01 	sts	0x0165, r2
    248c:	80 92 66 01 	sts	0x0166, r8
        lcd_data('D');	// debug  for Diode found
     } else {
        lcd_data('d');  // debug  for Diode, but other part
#endif
     }
     diodes.Anode[NumOfDiodes] = HighPin;
    2490:	90 92 67 01 	sts	0x0167, r9
    2494:	e7 cf       	rjmp	.-50     	; 0x2464 <CheckPins+0xd88>
    2496:	21 e0       	ldi	r18, 0x01	; 1
    2498:	80 91 4e 01 	lds	r24, 0x014E
    249c:	8f 5f       	subi	r24, 0xFF	; 255
     diodes.Cathode[NumOfDiodes] = LowPin;
    249e:	80 93 4e 01 	sts	0x014E, r24
     diodes.Voltage[NumOfDiodes] = adc.hp1;	// voltage in Millivolt 
    24a2:	22 23       	and	r18, r18
    24a4:	f9 f2       	breq	.-66     	; 0x2464 <CheckPins+0xd88>
    24a6:	20 92 4b 01 	sts	0x014B, r2
    24aa:	90 92 4c 01 	sts	0x014C, r9
     NumOfDiodes++;
    24ae:	80 92 4d 01 	sts	0x014D, r8
    24b2:	d8 cf       	rjmp	.-80     	; 0x2464 <CheckPins+0xd88>

000024b4 <GetResistance>:
#include <stdlib.h>
#include "Transistortester.h"

//******************************************************************
void GetResistance(uint8_t HighPin, uint8_t LowPin)
  {
    24b4:	a0 e0       	ldi	r26, 0x00	; 0
    24b6:	b0 e0       	ldi	r27, 0x00	; 0
    24b8:	e0 e6       	ldi	r30, 0x60	; 96
    24ba:	f2 e1       	ldi	r31, 0x12	; 18
    24bc:	0c 94 d2 31 	jmp	0x63a4	; 0x63a4 <__prologue_saves__+0x4>
    24c0:	78 2e       	mov	r7, r24
    24c2:	66 2e       	mov	r6, r22
  /*
    switch HighPin directls to VCC 
    switch R_L port for LowPin to GND 
    TristatePin remains switched to input , no action required 
  */
  wdt_reset();
    24c4:	a8 95       	wdr
  addr = &PinRLRHADCtab[LowPin-TP_MIN];		// address of the combined RL / RH / ADC pin table
    24c6:	26 2f       	mov	r18, r22
    24c8:	30 e0       	ldi	r19, 0x00	; 0
    24ca:	f9 01       	movw	r30, r18
    24cc:	e0 57       	subi	r30, 0x70	; 112
    24ce:	fe 4f       	sbci	r31, 0xFE	; 254
  LoPinRL = pgm_read_byte(addr);		// instruction for LowPin R_L
    24d0:	54 90       	lpm	r5, Z
  addr += 3;			// address of PinRHtab[LowPin]
  LoPinRH = pgm_read_byte(addr);		// instruction for LowPin R_H
#else
  LoPinRH = (LoPinRL + LoPinRL);
#endif
  addr += 3;			// address of PinADCtab[LowPin]
    24d2:	33 96       	adiw	r30, 0x03	; 3
  LoADCp = pgm_read_byte(addr);		// instruction for ADC Low-Pin, including | TXD_VAL
    24d4:	14 91       	lpm	r17, Z

  addr = &PinRLRHADCtab[HighPin-TP_MIN];
    24d6:	48 2f       	mov	r20, r24
    24d8:	50 e0       	ldi	r21, 0x00	; 0
    24da:	fa 01       	movw	r30, r20
    24dc:	e0 57       	subi	r30, 0x70	; 112
    24de:	fe 4f       	sbci	r31, 0xFE	; 254
  HiPinRL = pgm_read_byte(addr);		// instruction for HighPin R_L
    24e0:	d4 91       	lpm	r29, Z
  addr += 3;			// address of PinRLtab[HighPin]
  HiPinRH = pgm_read_byte(addr);		// instruction for HighPin R_H
#else
  HiPinRH = (HiPinRL + HiPinRL);
#endif
  addr += 3;			// address of PinADCtab[HighPin]
    24e2:	33 96       	adiw	r30, 0x03	; 3
  HiADCp = pgm_read_byte(addr);		// instruction for ADC High-Pin, including | TXD_VAL
    24e4:	c4 91       	lpm	r28, Z

//##########################################################################################
// Search for resistors
//##########################################################################################
  if ((ptrans.count  + ntrans.count) > 0) {
    24e6:	60 91 68 01 	lds	r22, 0x0168
    24ea:	80 91 4e 01 	lds	r24, 0x014E
    24ee:	90 e0       	ldi	r25, 0x00	; 0
    24f0:	86 0f       	add	r24, r22
    24f2:	91 1d       	adc	r25, r1
    24f4:	89 2b       	or	r24, r25
    24f6:	09 f0       	breq	.+2      	; 0x24fa <GetResistance+0x46>
    24f8:	dc c1       	rjmp	.+952    	; 0x28b2 <GetResistance+0x3fe>
     return;	// no resistors are searched, if transistors are detected
  }
  resnum = (LowPin - TP_MIN + HighPin - TP_MIN - 1);	// resistor-Number 0:1 = 0, 0:2 = 1, 1:2 = 2
  // resistor measurement
  wdt_reset();
    24fa:	a8 95       	wdr
// U_SCALE can be set to 4 for better resolution of ReadADC result
#if U_SCALE != 1
  ADCconfig.U_AVCC = (adc_vcc_reference * U_SCALE);	// scale to higher resolution, mV scale is not required
    24fc:	80 91 1e 01 	lds	r24, 0x011E
    2500:	90 91 1f 01 	lds	r25, 0x011F
    2504:	88 0f       	add	r24, r24
    2506:	99 1f       	adc	r25, r25
    2508:	88 0f       	add	r24, r24
    250a:	99 1f       	adc	r25, r25
    250c:	90 93 30 01 	sts	0x0130, r25
    2510:	80 93 2f 01 	sts	0x012F, r24
  ADCconfig.U_Bandgap = (adc_internal_reference * U_SCALE);
    2514:	80 91 6d 01 	lds	r24, 0x016D
    2518:	90 91 6e 01 	lds	r25, 0x016E
    251c:	88 0f       	add	r24, r24
    251e:	99 1f       	adc	r25, r25
    2520:	88 0f       	add	r24, r24
    2522:	99 1f       	adc	r25, r25
    2524:	90 93 2e 01 	sts	0x012E, r25
    2528:	80 93 2d 01 	sts	0x012D, r24
#endif
#if R_ANZ_MESS != ANZ_MESS
  ADCconfig.Samples = R_ANZ_MESS;	// switch to special number of repetitions
    252c:	8e eb       	ldi	r24, 0xBE	; 190
    252e:	80 93 2b 01 	sts	0x012B, r24
#endif
  #define MAX_REPEAT (700 / (5 + R_ANZ_MESS/8))
#if FLASHEND > 0x1fff
  for (ii=0; ii<NumOfDiodes; ii++) {
    2532:	00 91 18 01 	lds	r16, 0x0118
    2536:	e9 e8       	ldi	r30, 0x89	; 137
    2538:	f1 e0       	ldi	r31, 0x01	; 1
    253a:	6f e8       	ldi	r22, 0x8F	; 143
    253c:	71 e0       	ldi	r23, 0x01	; 1
    253e:	db 01       	movw	r26, r22
     // never search a resistor at the same place, where a diode is detected
     if ((diodes.Anode[ii] + diodes.Cathode[ii]) ==  (HighPin + LowPin)) goto testend;
    2540:	24 0f       	add	r18, r20
    2542:	35 1f       	adc	r19, r21
    2544:	8a 2f       	mov	r24, r26
    2546:	86 1b       	sub	r24, r22
#if R_ANZ_MESS != ANZ_MESS
  ADCconfig.Samples = R_ANZ_MESS;	// switch to special number of repetitions
#endif
  #define MAX_REPEAT (700 / (5 + R_ANZ_MESS/8))
#if FLASHEND > 0x1fff
  for (ii=0; ii<NumOfDiodes; ii++) {
    2548:	80 17       	cp	r24, r16
    254a:	48 f4       	brcc	.+18     	; 0x255e <GetResistance+0xaa>
     // never search a resistor at the same place, where a diode is detected
     if ((diodes.Anode[ii] + diodes.Cathode[ii]) ==  (HighPin + LowPin)) goto testend;
    254c:	41 91       	ld	r20, Z+
    254e:	8d 91       	ld	r24, X+
    2550:	90 e0       	ldi	r25, 0x00	; 0
    2552:	84 0f       	add	r24, r20
    2554:	91 1d       	adc	r25, r1
    2556:	82 17       	cp	r24, r18
    2558:	93 07       	cpc	r25, r19
    255a:	a1 f7       	brne	.-24     	; 0x2544 <GetResistance+0x90>
    255c:	58 c0       	rjmp	.+176    	; 0x260e <GetResistance+0x15a>
  }
#endif
  ADC_PORT = TXD_VAL;
    255e:	18 b8       	out	0x08, r1	; 8
  ADC_DDR = LoADCp | TXD_MSK;		//switch Low-Pin to output (GND)
    2560:	17 b9       	out	0x07, r17	; 7
  R_DDR = HiPinRL;		//switch R_L port for High-Pin to output (VCC)
    2562:	d4 b9       	out	0x04, r29	; 4
  R_PORT = HiPinRL;	
    2564:	d5 b9       	out	0x05, r29	; 5
    2566:	18 e1       	ldi	r17, 0x18	; 24
    2568:	d1 2e       	mov	r13, r17
#if FLASHEND > 0x1fff
  adc.hp2 = 0;
    256a:	00 e0       	ldi	r16, 0x00	; 0
    256c:	10 e0       	ldi	r17, 0x00	; 0
  for (ii=1;ii<MAX_REPEAT;ii++) {
     // wait until voltage is stable
     adc.tp1 = W5msReadADC(LowPin);	// low-voltage at Rx with load
    256e:	86 2d       	mov	r24, r6
    2570:	0e 94 de 04 	call	0x9bc	; 0x9bc <W5msReadADC>
    2574:	98 2e       	mov	r9, r24
    2576:	89 2e       	mov	r8, r25
     adc.hp1 = ReadADC(HighPin);		// voltage at resistor Rx with R_L
    2578:	87 2d       	mov	r24, r7
    257a:	0e 94 e2 04 	call	0x9c4	; 0x9c4 <ReadADC>
    257e:	7c 01       	movw	r14, r24
    2580:	80 1b       	sub	r24, r16
    2582:	91 0b       	sbc	r25, r17
    2584:	97 ff       	sbrs	r25, 7
    2586:	03 c0       	rjmp	.+6      	; 0x258e <GetResistance+0xda>
    2588:	91 95       	neg	r25
    258a:	81 95       	neg	r24
    258c:	91 09       	sbc	r25, r1
     udiff = adc.hp1 - adc.hp2;
     if (udiff < 0) udiff = -udiff;
     if (udiff < 3) break;
    258e:	03 97       	sbiw	r24, 0x03	; 3
    2590:	2c f0       	brlt	.+10     	; 0x259c <GetResistance+0xe8>
     adc.hp2 = adc.hp1;
     wdt_reset();
    2592:	a8 95       	wdr
    2594:	da 94       	dec	r13
  ADC_DDR = LoADCp | TXD_MSK;		//switch Low-Pin to output (GND)
  R_DDR = HiPinRL;		//switch R_L port for High-Pin to output (VCC)
  R_PORT = HiPinRL;	
#if FLASHEND > 0x1fff
  adc.hp2 = 0;
  for (ii=1;ii<MAX_REPEAT;ii++) {
    2596:	d9 f1       	breq	.+118    	; 0x260e <GetResistance+0x15a>
     // wait until voltage is stable
     adc.tp1 = W5msReadADC(LowPin);	// low-voltage at Rx with load
     adc.hp1 = ReadADC(HighPin);		// voltage at resistor Rx with R_L
    2598:	87 01       	movw	r16, r14
    259a:	e9 cf       	rjmp	.-46     	; 0x256e <GetResistance+0xba>
  HiPinRL = pgm_read_byte(addr);		// instruction for HighPin R_L
#if (((PIN_RL1 + 1) != PIN_RH1) || ((PIN_RL2 + 1) != PIN_RH2) || ((PIN_RL3 + 1) != PIN_RH3))
  addr += 3;			// address of PinRLtab[HighPin]
  HiPinRH = pgm_read_byte(addr);		// instruction for HighPin R_H
#else
  HiPinRH = (HiPinRL + HiPinRL);
    259c:	dd 0f       	add	r29, r29
  adc.hp1 = ReadADC(HighPin);		// voltage at resistor Rx with R_L
#endif
  if (adc.tp1 > adc.hp1) {
     adc.tp1 = adc.hp1;
  }
  R_PORT = 0;
    259e:	15 b8       	out	0x05, r1	; 5
  R_DDR = HiPinRH;		//switch R_H port for High-Pin to output (GND)
    25a0:	d4 b9       	out	0x04, r29	; 4
  adc.hp2 = W5msReadADC(HighPin);	// read voltage, should be down
    25a2:	87 2d       	mov	r24, r7
    25a4:	0e 94 de 04 	call	0x9bc	; 0x9bc <W5msReadADC>
  if (adc.hp2 > (20*U_SCALE)) {
    25a8:	81 35       	cpi	r24, 0x51	; 81
    25aa:	91 05       	cpc	r25, r1
    25ac:	80 f5       	brcc	.+96     	; 0x260e <GetResistance+0x15a>
 #if (DEBUG_OUT == 1)
     lcd_data('b');
 #endif
     goto testend;
  }
  R_PORT = HiPinRH;		//switch R_H for High-Pin to VCC
    25ae:	d5 b9       	out	0x05, r29	; 5
  adc.hp2 = W5msReadADC(HighPin);	// voltage at resistor Rx with R_H
    25b0:	87 2d       	mov	r24, r7
    25b2:	0e 94 de 04 	call	0x9bc	; 0x9bc <W5msReadADC>
    25b6:	8c 01       	movw	r16, r24

  ADC_DDR = HiADCp | TXD_MSK;		//switch High-Pin to output
    25b8:	c7 b9       	out	0x07, r28	; 7
  ADC_PORT = HiADCp;		//switch High-Pin to VCC
    25ba:	c8 b9       	out	0x08, r28	; 8
  R_PORT = 0;
    25bc:	15 b8       	out	0x05, r1	; 5
  R_DDR = LoPinRL;			//switch R_L for Low-Pin to GND
    25be:	54 b8       	out	0x04, r5	; 4
    25c0:	c8 e1       	ldi	r28, 0x18	; 24
    25c2:	4c 2e       	mov	r4, r28
#if FLASHEND > 0x1fff
  adc.lp2 = 0;
    25c4:	c1 2c       	mov	r12, r1
    25c6:	d1 2c       	mov	r13, r1
  for (ii=1;ii<MAX_REPEAT;ii++) {
     // wait until voltage is stable
					// L--RL--RyyX--H
     adc.tp2 = W5msReadADC(HighPin);	//high voltage with load
    25c8:	87 2d       	mov	r24, r7
    25ca:	0e 94 de 04 	call	0x9bc	; 0x9bc <W5msReadADC>
    25ce:	b8 2e       	mov	r11, r24
    25d0:	a9 2e       	mov	r10, r25
     adc.lp1 = ReadADC(LowPin);		//voltage at the other end of Rx
    25d2:	86 2d       	mov	r24, r6
    25d4:	0e 94 e2 04 	call	0x9c4	; 0x9c4 <ReadADC>
    25d8:	ec 01       	movw	r28, r24
    25da:	9c 01       	movw	r18, r24
    25dc:	2c 19       	sub	r18, r12
    25de:	3d 09       	sbc	r19, r13
    25e0:	37 ff       	sbrs	r19, 7
    25e2:	03 c0       	rjmp	.+6      	; 0x25ea <GetResistance+0x136>
    25e4:	31 95       	neg	r19
    25e6:	21 95       	neg	r18
    25e8:	31 09       	sbc	r19, r1
     udiff = adc.lp1 - adc.lp2;
     if (udiff < 0) udiff = -udiff;
     if (udiff < 3) break;
    25ea:	23 30       	cpi	r18, 0x03	; 3
    25ec:	31 05       	cpc	r19, r1
    25ee:	1c f5       	brge	.+70     	; 0x2636 <GetResistance+0x182>
  LoPinRL = pgm_read_byte(addr);		// instruction for LowPin R_L
#if (((PIN_RL1 + 1) != PIN_RH1) || ((PIN_RL2 + 1) != PIN_RH2) || ((PIN_RL3 + 1) != PIN_RH3))
  addr += 3;			// address of PinRHtab[LowPin]
  LoPinRH = pgm_read_byte(addr);		// instruction for LowPin R_H
#else
  LoPinRH = (LoPinRL + LoPinRL);
    25f0:	55 0c       	add	r5, r5
#endif
  if (adc.tp2 < adc.lp1) {
     adc.tp2 = adc.lp1;
  }
					// L--RH--RX--H
  R_DDR = LoPinRH;			//switch R_H for Low-Pin to GND
    25f2:	54 b8       	out	0x04, r5	; 4
  adc.lp2 = W5msReadADC(LowPin);
    25f4:	86 2d       	mov	r24, r6
    25f6:	0e 94 de 04 	call	0x9bc	; 0x9bc <W5msReadADC>
    25fa:	6c 01       	movw	r12, r24
		
  if((adc.hp1 < (4400*U_SCALE)) && (adc.hp2 > (97*U_SCALE))) {
    25fc:	80 ec       	ldi	r24, 0xC0	; 192
    25fe:	e8 16       	cp	r14, r24
    2600:	84 e4       	ldi	r24, 0x44	; 68
    2602:	f8 06       	cpc	r15, r24
    2604:	e8 f4       	brcc	.+58     	; 0x2640 <GetResistance+0x18c>
    2606:	05 38       	cpi	r16, 0x85	; 133
    2608:	81 e0       	ldi	r24, 0x01	; 1
    260a:	18 07       	cpc	r17, r24
    260c:	e8 f0       	brcs	.+58     	; 0x2648 <GetResistance+0x194>
        } // end  ResistorChecked[] != 0
     }	/* end if (PartFound < PART_TRANSISTOR) */
  }
  testend:			// end of resistor measurement
#if U_SCALE != 1
  ADCconfig.U_AVCC = adc_vcc_reference;	// scale to higher resolution, mV scale is not required
    260e:	80 91 1e 01 	lds	r24, 0x011E
    2612:	90 91 1f 01 	lds	r25, 0x011F
    2616:	90 93 30 01 	sts	0x0130, r25
    261a:	80 93 2f 01 	sts	0x012F, r24
  ADCconfig.U_Bandgap = adc_internal_reference;	// set back to normal resolution
    261e:	80 91 6d 01 	lds	r24, 0x016D
    2622:	90 91 6e 01 	lds	r25, 0x016E
    2626:	90 93 2e 01 	sts	0x012E, r25
    262a:	80 93 2d 01 	sts	0x012D, r24
#endif
#if R_ANZ_MESS != ANZ_MESS
  ADCconfig.Samples = ANZ_MESS;		// switch back to standard number of repetition
    262e:	8e e1       	ldi	r24, 0x1E	; 30
    2630:	80 93 2b 01 	sts	0x012B, r24
#endif

  return;
    2634:	3e c1       	rjmp	.+636    	; 0x28b2 <GetResistance+0x3fe>
     adc.lp1 = ReadADC(LowPin);		//voltage at the other end of Rx
     udiff = adc.lp1 - adc.lp2;
     if (udiff < 0) udiff = -udiff;
     if (udiff < 3) break;
     adc.lp2 = adc.lp1;
     wdt_reset();
    2636:	a8 95       	wdr
    2638:	4a 94       	dec	r4
  ADC_PORT = HiADCp;		//switch High-Pin to VCC
  R_PORT = 0;
  R_DDR = LoPinRL;			//switch R_L for Low-Pin to GND
#if FLASHEND > 0x1fff
  adc.lp2 = 0;
  for (ii=1;ii<MAX_REPEAT;ii++) {
    263a:	49 f3       	breq	.-46     	; 0x260e <GetResistance+0x15a>
     // wait until voltage is stable
					// L--RL--RyyX--H
     adc.tp2 = W5msReadADC(HighPin);	//high voltage with load
     adc.lp1 = ReadADC(LowPin);		//voltage at the other end of Rx
    263c:	6e 01       	movw	r12, r28
    263e:	c4 cf       	rjmp	.-120    	; 0x25c8 <GetResistance+0x114>
     lcd_data('d');
 #endif
     goto testend; 
  }
//    if((adc.hp2 + (adc.hp2 / 61)) < adc.hp1)
  if (adc.hp2 < (4972*U_SCALE)) { 
    2640:	00 3b       	cpi	r16, 0xB0	; 176
    2642:	8d e4       	ldi	r24, 0x4D	; 77
    2644:	18 07       	cpc	r17, r24
    2646:	18 f7       	brcc	.-58     	; 0x260e <GetResistance+0x15a>
     // voltage breaks down with low test current and it is not nearly shorted  => resistor
//     if (adc.lp1 < 120)  // take measurement with R_H 
     if (adc.lp1 < (169*U_SCALE)) { // take measurement with R_H 
    2648:	c4 3a       	cpi	r28, 0xA4	; 164
    264a:	82 e0       	ldi	r24, 0x02	; 2
    264c:	d8 07       	cpc	r29, r24
    264e:	08 f0       	brcs	.+2      	; 0x2652 <GetResistance+0x19e>
    2650:	61 c0       	rjmp	.+194    	; 0x2714 <GetResistance+0x260>
        if (adc.lp2 < (38*U_SCALE)) {
    2652:	88 e9       	ldi	r24, 0x98	; 152
    2654:	c8 16       	cp	r12, r24
    2656:	d1 04       	cpc	r13, r1
    2658:	d0 f2       	brcs	.-76     	; 0x260e <GetResistance+0x15a>
 #endif
           goto testend;
        }
        // two measurements with R_H resistors (470k) are made:
        // lirx1 (measurement at HighPin)
        lirx1 = (unsigned long)((unsigned int)R_H_VAL) * (unsigned long)adc.hp2 / vcc_diff(adc.hp2);
    265a:	c8 01       	movw	r24, r16
    265c:	0e 94 46 05 	call	0xa8c	; 0xa8c <vcc_diff>
    2660:	ac 01       	movw	r20, r24
    2662:	98 01       	movw	r18, r16
    2664:	a8 e9       	ldi	r26, 0x98	; 152
    2666:	b7 eb       	ldi	r27, 0xB7	; 183
    2668:	0e 94 ab 31 	call	0x6356	; 0x6356 <__umulhisi3>
    266c:	9a 01       	movw	r18, r20
    266e:	40 e0       	ldi	r20, 0x00	; 0
    2670:	50 e0       	ldi	r21, 0x00	; 0
    2672:	0e 94 6d 31 	call	0x62da	; 0x62da <__udivmodsi4>
    2676:	49 01       	movw	r8, r18
    2678:	5a 01       	movw	r10, r20
        // lirx2 (measurement at LowPin)
        lirx2 = (unsigned long)((unsigned int)R_H_VAL) * (unsigned long)vcc_diff(adc.lp2) / adc.lp2;
    267a:	c6 01       	movw	r24, r12
    267c:	0e 94 46 05 	call	0xa8c	; 0xa8c <vcc_diff>
    2680:	9c 01       	movw	r18, r24
    2682:	a8 e9       	ldi	r26, 0x98	; 152
    2684:	b7 eb       	ldi	r27, 0xB7	; 183
    2686:	0e 94 ab 31 	call	0x6356	; 0x6356 <__umulhisi3>
    268a:	96 01       	movw	r18, r12
    268c:	40 e0       	ldi	r20, 0x00	; 0
    268e:	50 e0       	ldi	r21, 0x00	; 0
    2690:	0e 94 6d 31 	call	0x62da	; 0x62da <__udivmodsi4>
#define FAKT_LOW 2		//resolution is about twice as good
#else
#define FAKT_LOW 4		//resolution is about four times better
#endif
#ifdef AUTOSCALE_ADC
        if (adc.hp2 < U_INT_LIMIT) {
    2694:	08 37       	cpi	r16, 0x78	; 120
    2696:	8f e0       	ldi	r24, 0x0F	; 15
    2698:	18 07       	cpc	r17, r24
    269a:	70 f4       	brcc	.+28     	; 0x26b8 <GetResistance+0x204>
           lrx1 = (lirx1*FAKT_LOW + lirx2) / (FAKT_LOW+1);	//weighted average of both R_H measurements
    269c:	c5 01       	movw	r24, r10
    269e:	b4 01       	movw	r22, r8
    26a0:	b2 e0       	ldi	r27, 0x02	; 2
    26a2:	66 0f       	add	r22, r22
    26a4:	77 1f       	adc	r23, r23
    26a6:	88 1f       	adc	r24, r24
    26a8:	99 1f       	adc	r25, r25
    26aa:	ba 95       	dec	r27
    26ac:	d1 f7       	brne	.-12     	; 0x26a2 <GetResistance+0x1ee>
    26ae:	62 0f       	add	r22, r18
    26b0:	73 1f       	adc	r23, r19
    26b2:	84 1f       	adc	r24, r20
    26b4:	95 1f       	adc	r25, r21
    26b6:	12 c0       	rjmp	.+36     	; 0x26dc <GetResistance+0x228>
        } else if (adc.lp2 < U_INT_LIMIT){
    26b8:	88 e7       	ldi	r24, 0x78	; 120
    26ba:	c8 16       	cp	r12, r24
    26bc:	8f e0       	ldi	r24, 0x0F	; 15
    26be:	d8 06       	cpc	r13, r24
    26c0:	a0 f4       	brcc	.+40     	; 0x26ea <GetResistance+0x236>
           lrx1 = (lirx2*FAKT_LOW + lirx1) / (FAKT_LOW+1);	//weighted average of both R_H measurements
    26c2:	ca 01       	movw	r24, r20
    26c4:	b9 01       	movw	r22, r18
    26c6:	a2 e0       	ldi	r26, 0x02	; 2
    26c8:	66 0f       	add	r22, r22
    26ca:	77 1f       	adc	r23, r23
    26cc:	88 1f       	adc	r24, r24
    26ce:	99 1f       	adc	r25, r25
    26d0:	aa 95       	dec	r26
    26d2:	d1 f7       	brne	.-12     	; 0x26c8 <GetResistance+0x214>
    26d4:	68 0d       	add	r22, r8
    26d6:	79 1d       	adc	r23, r9
    26d8:	8a 1d       	adc	r24, r10
    26da:	9b 1d       	adc	r25, r11
    26dc:	25 e0       	ldi	r18, 0x05	; 5
    26de:	30 e0       	ldi	r19, 0x00	; 0
    26e0:	40 e0       	ldi	r20, 0x00	; 0
    26e2:	50 e0       	ldi	r21, 0x00	; 0
    26e4:	0e 94 6d 31 	call	0x62da	; 0x62da <__udivmodsi4>
    26e8:	08 c0       	rjmp	.+16     	; 0x26fa <GetResistance+0x246>
        } else 
#endif
        {
           lrx1 = (lirx1 + lirx2) / 2;		//average of both R_H measurements
    26ea:	28 0d       	add	r18, r8
    26ec:	39 1d       	adc	r19, r9
    26ee:	4a 1d       	adc	r20, r10
    26f0:	5b 1d       	adc	r21, r11
    26f2:	56 95       	lsr	r21
    26f4:	47 95       	ror	r20
    26f6:	37 95       	ror	r19
    26f8:	27 95       	ror	r18
        }
        lrx1 *= 100;
    26fa:	a4 e6       	ldi	r26, 0x64	; 100
    26fc:	b0 e0       	ldi	r27, 0x00	; 0
    26fe:	0e 94 c0 31 	call	0x6380	; 0x6380 <__muluhisi3>
    2702:	4b 01       	movw	r8, r22
    2704:	5c 01       	movw	r10, r24
        lrx1 += RH_OFFSET;			// add constant for correction of systematic error
    2706:	8c ea       	ldi	r24, 0xAC	; 172
    2708:	88 0e       	add	r8, r24
    270a:	8d e0       	ldi	r24, 0x0D	; 13
    270c:	98 1e       	adc	r9, r24
    270e:	a1 1c       	adc	r10, r1
    2710:	b1 1c       	adc	r11, r1
    2712:	78 c0       	rjmp	.+240    	; 0x2804 <GetResistance+0x350>
    2714:	69 2d       	mov	r22, r9
    2716:	78 2d       	mov	r23, r8
    2718:	e6 16       	cp	r14, r22
    271a:	f7 06       	cpc	r15, r23
    271c:	08 f4       	brcc	.+2      	; 0x2720 <GetResistance+0x26c>
    271e:	b7 01       	movw	r22, r14
    2720:	0b 2d       	mov	r16, r11
    2722:	1a 2d       	mov	r17, r10
    2724:	0c 17       	cp	r16, r28
    2726:	1d 07       	cpc	r17, r29
    2728:	08 f4       	brcc	.+2      	; 0x272c <GetResistance+0x278>
    272a:	8e 01       	movw	r16, r28
    272c:	6b 01       	movw	r12, r22
    272e:	6e 15       	cp	r22, r14
    2730:	7f 05       	cpc	r23, r15
    2732:	08 f4       	brcc	.+2      	; 0x2736 <GetResistance+0x282>
    2734:	67 01       	movw	r12, r14
        // two measurements with R_L resistors (680) are made:
        // lirx1 (measurement at HighPin)
        if (adc.tp1 > adc.hp1) {
           adc.hp1 = adc.tp1;		//diff negativ is illegal
        }
        lirx1 =(unsigned long)RR680PL * (unsigned long)unsigned_diff(adc.hp1, adc.tp1) / vcc_diff(adc.hp1);
    2736:	e0 90 1b 01 	lds	r14, 0x011B
    273a:	f0 90 1c 01 	lds	r15, 0x011C
    273e:	c6 01       	movw	r24, r12
    2740:	0e 94 4b 05 	call	0xa96	; 0xa96 <unsigned_diff>
    2744:	9c 01       	movw	r18, r24
    2746:	d7 01       	movw	r26, r14
    2748:	0e 94 ab 31 	call	0x6356	; 0x6356 <__umulhisi3>
    274c:	4b 01       	movw	r8, r22
    274e:	5c 01       	movw	r10, r24
    2750:	c6 01       	movw	r24, r12
    2752:	0e 94 46 05 	call	0xa8c	; 0xa8c <vcc_diff>
    2756:	9c 01       	movw	r18, r24
    2758:	40 e0       	ldi	r20, 0x00	; 0
    275a:	50 e0       	ldi	r21, 0x00	; 0
    275c:	c5 01       	movw	r24, r10
    275e:	b4 01       	movw	r22, r8
    2760:	0e 94 6d 31 	call	0x62da	; 0x62da <__udivmodsi4>
    2764:	49 01       	movw	r8, r18
    2766:	5a 01       	movw	r10, r20
    2768:	78 01       	movw	r14, r16
    276a:	c0 17       	cp	r28, r16
    276c:	d1 07       	cpc	r29, r17
    276e:	08 f4       	brcc	.+2      	; 0x2772 <GetResistance+0x2be>
    2770:	7e 01       	movw	r14, r28
        if (adc.tp2 < adc.lp1) {
           adc.lp1 = adc.tp2;		//diff negativ is illegal
        }
        // lirx2 (Measurement at LowPin)
        lirx2 =(unsigned long)RR680MI * (unsigned long)unsigned_diff(adc.tp2, adc.lp1) / adc.lp1;
    2772:	c0 91 14 01 	lds	r28, 0x0114
    2776:	d0 91 15 01 	lds	r29, 0x0115
    277a:	b7 01       	movw	r22, r14
    277c:	c8 01       	movw	r24, r16
    277e:	0e 94 4b 05 	call	0xa96	; 0xa96 <unsigned_diff>
    2782:	9c 01       	movw	r18, r24
    2784:	de 01       	movw	r26, r28
    2786:	0e 94 ab 31 	call	0x6356	; 0x6356 <__umulhisi3>
    278a:	87 01       	movw	r16, r14
    278c:	20 e0       	ldi	r18, 0x00	; 0
    278e:	30 e0       	ldi	r19, 0x00	; 0
    2790:	a9 01       	movw	r20, r18
    2792:	98 01       	movw	r18, r16
    2794:	0e 94 6d 31 	call	0x62da	; 0x62da <__udivmodsi4>

#ifdef AUTOSCALE_ADC
        if (adc.hp1 < U_INT_LIMIT) {
    2798:	88 e7       	ldi	r24, 0x78	; 120
    279a:	c8 16       	cp	r12, r24
    279c:	8f e0       	ldi	r24, 0x0F	; 15
    279e:	d8 06       	cpc	r13, r24
    27a0:	70 f4       	brcc	.+28     	; 0x27be <GetResistance+0x30a>
           lrx1 = (lirx1*FAKT_LOW + lirx2) / (FAKT_LOW+1);	//weighted average of both R_L measurements
    27a2:	c5 01       	movw	r24, r10
    27a4:	b4 01       	movw	r22, r8
    27a6:	e2 e0       	ldi	r30, 0x02	; 2
    27a8:	66 0f       	add	r22, r22
    27aa:	77 1f       	adc	r23, r23
    27ac:	88 1f       	adc	r24, r24
    27ae:	99 1f       	adc	r25, r25
    27b0:	ea 95       	dec	r30
    27b2:	d1 f7       	brne	.-12     	; 0x27a8 <GetResistance+0x2f4>
    27b4:	62 0f       	add	r22, r18
    27b6:	73 1f       	adc	r23, r19
    27b8:	84 1f       	adc	r24, r20
    27ba:	95 1f       	adc	r25, r21
    27bc:	12 c0       	rjmp	.+36     	; 0x27e2 <GetResistance+0x32e>
        } else if (adc.lp1 < U_INT_LIMIT) {
    27be:	88 e7       	ldi	r24, 0x78	; 120
    27c0:	e8 16       	cp	r14, r24
    27c2:	8f e0       	ldi	r24, 0x0F	; 15
    27c4:	f8 06       	cpc	r15, r24
    27c6:	b0 f4       	brcc	.+44     	; 0x27f4 <GetResistance+0x340>
           lrx1 = (lirx2*FAKT_LOW + lirx1) / (FAKT_LOW+1);	//weighted average of both R_L measurements
    27c8:	ca 01       	movw	r24, r20
    27ca:	b9 01       	movw	r22, r18
    27cc:	52 e0       	ldi	r21, 0x02	; 2
    27ce:	66 0f       	add	r22, r22
    27d0:	77 1f       	adc	r23, r23
    27d2:	88 1f       	adc	r24, r24
    27d4:	99 1f       	adc	r25, r25
    27d6:	5a 95       	dec	r21
    27d8:	d1 f7       	brne	.-12     	; 0x27ce <GetResistance+0x31a>
    27da:	68 0d       	add	r22, r8
    27dc:	79 1d       	adc	r23, r9
    27de:	8a 1d       	adc	r24, r10
    27e0:	9b 1d       	adc	r25, r11
    27e2:	25 e0       	ldi	r18, 0x05	; 5
    27e4:	30 e0       	ldi	r19, 0x00	; 0
    27e6:	40 e0       	ldi	r20, 0x00	; 0
    27e8:	50 e0       	ldi	r21, 0x00	; 0
    27ea:	0e 94 6d 31 	call	0x62da	; 0x62da <__udivmodsi4>
    27ee:	49 01       	movw	r8, r18
    27f0:	5a 01       	movw	r10, r20
    27f2:	08 c0       	rjmp	.+16     	; 0x2804 <GetResistance+0x350>
        } else
#endif
        {
           lrx1 = (lirx1 + lirx2) / 2;		//average of both R_L measurements
    27f4:	82 0e       	add	r8, r18
    27f6:	93 1e       	adc	r9, r19
    27f8:	a4 1e       	adc	r10, r20
    27fa:	b5 1e       	adc	r11, r21
    27fc:	b6 94       	lsr	r11
    27fe:	a7 94       	ror	r10
    2800:	97 94       	ror	r9
    2802:	87 94       	ror	r8
        }
     }
     // measurement is finished, lrx1 is the resistance value of one direction
     if(PartFound < PART_TRANSISTOR) {
    2804:	10 91 1a 01 	lds	r17, 0x011A
    2808:	14 30       	cpi	r17, 0x04	; 4
    280a:	08 f0       	brcs	.+2      	; 0x280e <GetResistance+0x35a>
    280c:	00 cf       	rjmp	.-512    	; 0x260e <GetResistance+0x15a>
// Search for resistors
//##########################################################################################
  if ((ptrans.count  + ntrans.count) > 0) {
     return;	// no resistors are searched, if transistors are detected
  }
  resnum = (LowPin - TP_MIN + HighPin - TP_MIN - 1);	// resistor-Number 0:1 = 0, 0:2 = 1, 1:2 = 2
    280e:	7a 94       	dec	r7
    2810:	76 0c       	add	r7, r6
           lrx1 = (lirx1 + lirx2) / 2;		//average of both R_L measurements
        }
     }
     // measurement is finished, lrx1 is the resistance value of one direction
     if(PartFound < PART_TRANSISTOR) {
        if (ResistorChecked[resnum] != 0) {
    2812:	87 2d       	mov	r24, r7
    2814:	90 e0       	ldi	r25, 0x00	; 0
    2816:	ec 01       	movw	r28, r24
    2818:	cd 5a       	subi	r28, 0xAD	; 173
    281a:	de 4f       	sbci	r29, 0xFE	; 254
    281c:	28 81       	ld	r18, Y
    281e:	88 0f       	add	r24, r24
    2820:	99 1f       	adc	r25, r25
    2822:	88 0f       	add	r24, r24
    2824:	99 1f       	adc	r25, r25
           // must be measurement with inverse polarity 
           // resolution is 0.1 Ohm, 1 Ohm = 10 !
           lirx1 = (labs((long)lrx1 - (long)ResistorVal[resnum]) * 10) / (lrx1 + ResistorVal[resnum] + 100);
    2826:	fc 01       	movw	r30, r24
    2828:	ee 55       	subi	r30, 0x5E	; 94
    282a:	fe 4f       	sbci	r31, 0xFE	; 254
           lrx1 = (lirx1 + lirx2) / 2;		//average of both R_L measurements
        }
     }
     // measurement is finished, lrx1 is the resistance value of one direction
     if(PartFound < PART_TRANSISTOR) {
        if (ResistorChecked[resnum] != 0) {
    282c:	22 23       	and	r18, r18
    282e:	d1 f1       	breq	.+116    	; 0x28a4 <GetResistance+0x3f0>
           // must be measurement with inverse polarity 
           // resolution is 0.1 Ohm, 1 Ohm = 10 !
           lirx1 = (labs((long)lrx1 - (long)ResistorVal[resnum]) * 10) / (lrx1 + ResistorVal[resnum] + 100);
    2830:	c0 80       	ld	r12, Z
    2832:	d1 80       	ldd	r13, Z+1	; 0x01
    2834:	e2 80       	ldd	r14, Z+2	; 0x02
    2836:	f3 80       	ldd	r15, Z+3	; 0x03
    2838:	a5 01       	movw	r20, r10
    283a:	94 01       	movw	r18, r8
    283c:	2c 19       	sub	r18, r12
    283e:	3d 09       	sbc	r19, r13
    2840:	4e 09       	sbc	r20, r14
    2842:	5f 09       	sbc	r21, r15
    2844:	57 ff       	sbrs	r21, 7
    2846:	07 c0       	rjmp	.+14     	; 0x2856 <GetResistance+0x3a2>
    2848:	50 95       	com	r21
    284a:	40 95       	com	r20
    284c:	30 95       	com	r19
    284e:	21 95       	neg	r18
    2850:	3f 4f       	sbci	r19, 0xFF	; 255
    2852:	4f 4f       	sbci	r20, 0xFF	; 255
    2854:	5f 4f       	sbci	r21, 0xFF	; 255
    2856:	aa e0       	ldi	r26, 0x0A	; 10
    2858:	b0 e0       	ldi	r27, 0x00	; 0
    285a:	0e 94 c0 31 	call	0x6380	; 0x6380 <__muluhisi3>
    285e:	a7 01       	movw	r20, r14
    2860:	96 01       	movw	r18, r12
    2862:	2c 59       	subi	r18, 0x9C	; 156
    2864:	3f 4f       	sbci	r19, 0xFF	; 255
    2866:	4f 4f       	sbci	r20, 0xFF	; 255
    2868:	5f 4f       	sbci	r21, 0xFF	; 255
    286a:	28 0d       	add	r18, r8
    286c:	39 1d       	adc	r19, r9
    286e:	4a 1d       	adc	r20, r10
    2870:	5b 1d       	adc	r21, r11
    2872:	0e 94 6d 31 	call	0x62da	; 0x62da <__udivmodsi4>
           if (lirx1  > 0) {
    2876:	23 2b       	or	r18, r19
    2878:	24 2b       	or	r18, r20
    287a:	25 2b       	or	r18, r21
    287c:	09 f0       	breq	.+2      	; 0x2880 <GetResistance+0x3cc>
    287e:	c7 ce       	rjmp	.-626    	; 0x260e <GetResistance+0x15a>
     DisplayValue(lrx1,-1,' ',4);
     DisplayValue(ResistorVal[resnum],-1,' ',4);
 #endif
           } else {
              // resistor has the same value in both directions
              if (PartFound < PART_DIODE) {
    2880:	13 30       	cpi	r17, 0x03	; 3
    2882:	19 f0       	breq	.+6      	; 0x288a <GetResistance+0x3d6>
                 PartFound = PART_RESISTOR;	// only mark as resistor, if no other part found
    2884:	81 e0       	ldi	r24, 0x01	; 1
    2886:	80 93 1a 01 	sts	0x011A, r24
              }
              ResistorChecked[resnum] = 2;		// mark as checked in both direction
    288a:	82 e0       	ldi	r24, 0x02	; 2
    288c:	88 83       	st	Y, r24
              ResistorList[ResistorsFound] = resnum;	// save number of this resistor
    288e:	80 91 6f 01 	lds	r24, 0x016F
    2892:	e8 2f       	mov	r30, r24
    2894:	f0 e0       	ldi	r31, 0x00	; 0
    2896:	ea 5a       	subi	r30, 0xAA	; 170
    2898:	fe 4f       	sbci	r31, 0xFE	; 254
    289a:	70 82       	st	Z, r7
              ResistorsFound++;			// 1 more resistor found
    289c:	8f 5f       	subi	r24, 0xFF	; 255
    289e:	80 93 6f 01 	sts	0x016F, r24
    28a2:	b5 ce       	rjmp	.-662    	; 0x260e <GetResistance+0x15a>
           }
           goto testend;
        } else {		// resistor is never checked before
           // must be a new one with other pins
           ResistorVal[resnum] = lrx1;	// save register value
    28a4:	80 82       	st	Z, r8
    28a6:	91 82       	std	Z+1, r9	; 0x01
    28a8:	a2 82       	std	Z+2, r10	; 0x02
    28aa:	b3 82       	std	Z+3, r11	; 0x03
           ResistorChecked[resnum] = 1;		// is checked in one direction
    28ac:	81 e0       	ldi	r24, 0x01	; 1
    28ae:	88 83       	st	Y, r24
    28b0:	ae ce       	rjmp	.-676    	; 0x260e <GetResistance+0x15a>
#if R_ANZ_MESS != ANZ_MESS
  ADCconfig.Samples = ANZ_MESS;		// switch back to standard number of repetition
#endif

  return;
} // end GetResistance()
    28b2:	cd b7       	in	r28, 0x3d	; 61
    28b4:	de b7       	in	r29, 0x3e	; 62
    28b6:	e0 e1       	ldi	r30, 0x10	; 16
    28b8:	0c 94 ee 31 	jmp	0x63dc	; 0x63dc <__epilogue_restores__+0x4>

000028bc <ChargePin10ms>:
#include "Transistortester.h"


//******************************************************************

void ChargePin10ms(uint8_t PinToCharge, uint8_t ChargeDirection) {
    28bc:	cf 93       	push	r28
    28be:	c8 2f       	mov	r28, r24
    28c0:	c0 95       	com	r28
   //Parameters:
   //PinToCharge: specifies the pin as mask for R-Port
   //ChargeDirection: 0 = switch to GND (N-Kanal-FET), 1= switch to VCC(P-Kanal-FET)

   if(ChargeDirection&1) {
      R_PORT |= PinToCharge;	//R_PORT to 1 (VCC) 
    28c2:	95 b1       	in	r25, 0x05	; 5
   //Will be used by discharge of MOSFET Gates or to load big capacities.
   //Parameters:
   //PinToCharge: specifies the pin as mask for R-Port
   //ChargeDirection: 0 = switch to GND (N-Kanal-FET), 1= switch to VCC(P-Kanal-FET)

   if(ChargeDirection&1) {
    28c4:	60 ff       	sbrs	r22, 0
    28c6:	02 c0       	rjmp	.+4      	; 0x28cc <ChargePin10ms+0x10>
      R_PORT |= PinToCharge;	//R_PORT to 1 (VCC) 
    28c8:	98 2b       	or	r25, r24
    28ca:	01 c0       	rjmp	.+2      	; 0x28ce <ChargePin10ms+0x12>
   } else {
      R_PORT &= ~PinToCharge; // or 0 (GND)
    28cc:	9c 23       	and	r25, r28
    28ce:	95 b9       	out	0x05, r25	; 5
   }
   R_DDR |= PinToCharge;		//switch Pin to output, across R to GND or VCC
    28d0:	94 b1       	in	r25, 0x04	; 4
    28d2:	98 2b       	or	r25, r24
    28d4:	94 b9       	out	0x04, r25	; 4
   wait_about10ms();			// wait about 10ms
    28d6:	82 e0       	ldi	r24, 0x02	; 2
    28d8:	0e 94 aa 04 	call	0x954	; 0x954 <sleep_5ms>
   // switch back Input, no current
   R_DDR &= ~PinToCharge;	// switch back to input
    28dc:	84 b1       	in	r24, 0x04	; 4
    28de:	8c 23       	and	r24, r28
    28e0:	84 b9       	out	0x04, r24	; 4
   R_PORT &= ~PinToCharge;	// no Pull up
    28e2:	85 b1       	in	r24, 0x05	; 5
    28e4:	8c 23       	and	r24, r28
    28e6:	85 b9       	out	0x05, r24	; 5
}
    28e8:	cf 91       	pop	r28
    28ea:	08 95       	ret

000028ec <EntladePins>:
#include <avr/pgmspace.h>
#include "Transistortester.h"


// first discharge any charge of capacitors
void EntladePins() {
    28ec:	a0 e0       	ldi	r26, 0x00	; 0
    28ee:	b0 e0       	ldi	r27, 0x00	; 0
    28f0:	ec e7       	ldi	r30, 0x7C	; 124
    28f2:	f4 e1       	ldi	r31, 0x14	; 20
    28f4:	0c 94 d9 31 	jmp	0x63b2	; 0x63b2 <__prologue_saves__+0x12>
    28f8:	8a e0       	ldi	r24, 0x0A	; 10
    28fa:	d8 2e       	mov	r13, r24
     adc_gnd = TXD_MSK;		// put all ADC to Input
     ADC_DDR = adc_gnd;
     ADC_PORT = TXD_VAL;		// ADC-outputs auf 0
     R_PORT = 0;			// R-outputs auf 0
//     R_DDR = (1<<PIN_RH3) | (1<<PIN_RH2) | (1<<PIN_RH1); // R_H for all Pins to GND
     R_DDR = (1<<PIN_RH3) | (1<<PIN_RL3) | (1<<PIN_RH2) | (1<<PIN_RL2) | (1<<PIN_RH1) | (1<<PIN_RL1); // R_H and R_L for all Pins to GND
    28fc:	9f e3       	ldi	r25, 0x3F	; 63
    28fe:	b9 2e       	mov	r11, r25
        if ((adcmv[0] < (CAP_EMPTY_LEVEL+2)) && (adcmv[1] < (CAP_EMPTY_LEVEL+2)) && (adcmv[2] < (CAP_EMPTY_LEVEL+2))) {
           break;
        }
     }
     if (clr_cnt == MAX_ENTLADE_ZEIT) {
        PartFound = PART_CELL;	// mark as Battery
    2900:	29 e0       	ldi	r18, 0x09	; 9
    2902:	c2 2e       	mov	r12, r18
#if DebugOut == 99
  uart_putc('L');		//Debug
#endif
  for(lop_cnt=0;lop_cnt<10;lop_cnt++) {
     adc_gnd = TXD_MSK;		// put all ADC to Input
     ADC_DDR = adc_gnd;
    2904:	17 b8       	out	0x07, r1	; 7
     ADC_PORT = TXD_VAL;		// ADC-outputs auf 0
    2906:	18 b8       	out	0x08, r1	; 8
     R_PORT = 0;			// R-outputs auf 0
    2908:	15 b8       	out	0x05, r1	; 5
//     R_DDR = (1<<PIN_RH3) | (1<<PIN_RH2) | (1<<PIN_RH1); // R_H for all Pins to GND
     R_DDR = (1<<PIN_RH3) | (1<<PIN_RL3) | (1<<PIN_RH2) | (1<<PIN_RL2) | (1<<PIN_RH1) | (1<<PIN_RL1); // R_H and R_L for all Pins to GND
    290a:	b4 b8       	out	0x04, r11	; 4
     adcmv[0] = W5msReadADC(TP1);	// which voltage has Pin 1?
    290c:	80 e0       	ldi	r24, 0x00	; 0
    290e:	0e 94 de 04 	call	0x9bc	; 0x9bc <W5msReadADC>
    2912:	8c 01       	movw	r16, r24
     adcmv[1] = ReadADC(TP2);	// which voltage has Pin 2?
    2914:	81 e0       	ldi	r24, 0x01	; 1
    2916:	0e 94 e2 04 	call	0x9c4	; 0x9c4 <ReadADC>
    291a:	ec 01       	movw	r28, r24
     adcmv[2] = ReadADC(TP3);	// which voltage has Pin 3?
    291c:	82 e0       	ldi	r24, 0x02	; 2
    291e:	0e 94 e2 04 	call	0x9c4	; 0x9c4 <ReadADC>
        u2lcd_space(adcmv[0]);	// lcd_string(utoa(adcmv[0], outval, 10)); lcd_space();
        u2lcd_space(adcmv[1]);	// lcd_string(utoa(adcmv[1], outval, 10)); lcd_space();
        u2lcd(adcmv[2]);		// lcd_string(utoa(adcmv[2], outval, 10));
        wait2s();
#endif
     if ((PartFound == PART_CELL) || ((adcmv[0] < CAP_EMPTY_LEVEL) && (adcmv[1] < CAP_EMPTY_LEVEL) && (adcmv[2] < CAP_EMPTY_LEVEL))) {
    2922:	20 91 1a 01 	lds	r18, 0x011A
    2926:	29 30       	cpi	r18, 0x09	; 9
    2928:	79 f4       	brne	.+30     	; 0x2948 <EntladePins+0x5c>
        ADC_DDR = TXD_MSK;		// switch all ADC-Pins to input
    292a:	17 b8       	out	0x07, r1	; 7
        R_DDR = 0;			// switch all R_L Ports (and R_H) to input
    292c:	14 b8       	out	0x04, r1	; 4
#if FLASHEND > 0x3fff
        cell_mv[0] = adcmv[0];		// save the voltage of pin 1
    292e:	10 93 04 01 	sts	0x0104, r17
    2932:	00 93 03 01 	sts	0x0103, r16
        cell_mv[1] = adcmv[1];		// save the voltage of pin 2
    2936:	d0 93 06 01 	sts	0x0106, r29
    293a:	c0 93 05 01 	sts	0x0105, r28
        cell_mv[2] = adcmv[2];		// save the voltage of pin 3
    293e:	90 93 08 01 	sts	0x0108, r25
    2942:	80 93 07 01 	sts	0x0107, r24
    2946:	56 c0       	rjmp	.+172    	; 0x29f4 <EntladePins+0x108>
        u2lcd_space(adcmv[0]);	// lcd_string(utoa(adcmv[0], outval, 10)); lcd_space();
        u2lcd_space(adcmv[1]);	// lcd_string(utoa(adcmv[1], outval, 10)); lcd_space();
        u2lcd(adcmv[2]);		// lcd_string(utoa(adcmv[2], outval, 10));
        wait2s();
#endif
     if ((PartFound == PART_CELL) || ((adcmv[0] < CAP_EMPTY_LEVEL) && (adcmv[1] < CAP_EMPTY_LEVEL) && (adcmv[2] < CAP_EMPTY_LEVEL))) {
    2948:	04 30       	cpi	r16, 0x04	; 4
    294a:	11 05       	cpc	r17, r1
    294c:	40 f4       	brcc	.+16     	; 0x295e <EntladePins+0x72>
    294e:	c4 30       	cpi	r28, 0x04	; 4
    2950:	d1 05       	cpc	r29, r1
    2952:	58 f4       	brcc	.+22     	; 0x296a <EntladePins+0x7e>
    2954:	84 30       	cpi	r24, 0x04	; 4
    2956:	91 05       	cpc	r25, r1
    2958:	40 f3       	brcs	.-48     	; 0x292a <EntladePins+0x3e>
#endif
        return;			// all is discharged
     }
     // all Pins with voltage lower than 1V can be connected directly to GND (ADC-Port)
     if (adcmv[0] < 1000) {
        adc_gnd |= (1<<TP1);	//Pin 1 directly to GND
    295a:	21 e0       	ldi	r18, 0x01	; 1
    295c:	0a c0       	rjmp	.+20     	; 0x2972 <EntladePins+0x86>
        uart_putc('l');		//Debug
#endif
        return;			// all is discharged
     }
     // all Pins with voltage lower than 1V can be connected directly to GND (ADC-Port)
     if (adcmv[0] < 1000) {
    295e:	21 e0       	ldi	r18, 0x01	; 1
    2960:	08 3e       	cpi	r16, 0xE8	; 232
    2962:	13 40       	sbci	r17, 0x03	; 3
    2964:	18 f0       	brcs	.+6      	; 0x296c <EntladePins+0x80>
    2966:	20 e0       	ldi	r18, 0x00	; 0
    2968:	01 c0       	rjmp	.+2      	; 0x296c <EntladePins+0x80>
        adc_gnd |= (1<<TP1);	//Pin 1 directly to GND
    296a:	21 e0       	ldi	r18, 0x01	; 1
     }
     if (adcmv[1] < 1000) {
    296c:	c8 3e       	cpi	r28, 0xE8	; 232
    296e:	d3 40       	sbci	r29, 0x03	; 3
    2970:	08 f4       	brcc	.+2      	; 0x2974 <EntladePins+0x88>
        adc_gnd |= (1<<TP2);	//Pin 2 directly to GND
    2972:	22 60       	ori	r18, 0x02	; 2
     }
     if (adcmv[2] < 1000) {
    2974:	88 3e       	cpi	r24, 0xE8	; 232
    2976:	93 40       	sbci	r25, 0x03	; 3
    2978:	08 f4       	brcc	.+2      	; 0x297c <EntladePins+0x90>
        adc_gnd |= (1<<TP3);	//Pin 3 directly to  GND
    297a:	24 60       	ori	r18, 0x04	; 4
     }
     ADC_DDR = adc_gnd;		// switch all selected ADC-Ports at the same time
    297c:	27 b9       	out	0x07, r18	; 7

     // additionally switch the leaving Ports with R_L to GND.
     // since there is no disadvantage for the already directly switched pins, we can
     // simply switch all  R_L resistors to GND
//     R_DDR = (1<<PIN_RL3) | (1<<PIN_RL2) | (1<<PIN_RL1);	// Pins across R_L resistors to GND
     for(clr_cnt=0;clr_cnt<MAX_ENTLADE_ZEIT;clr_cnt++) {
    297e:	c0 e0       	ldi	r28, 0x00	; 0
    2980:	d0 e0       	ldi	r29, 0x00	; 0
        wdt_reset();
    2982:	a8 95       	wdr
        adcmv[0] = W20msReadADC(TP1);	// which voltage has Pin 1?
    2984:	80 e0       	ldi	r24, 0x00	; 0
    2986:	0e 94 d6 04 	call	0x9ac	; 0x9ac <W20msReadADC>
    298a:	7c 01       	movw	r14, r24
        adcmv[1] = ReadADC(TP2);	// which voltage has Pin 2?
    298c:	81 e0       	ldi	r24, 0x01	; 1
    298e:	0e 94 e2 04 	call	0x9c4	; 0x9c4 <ReadADC>
    2992:	8c 01       	movw	r16, r24
        adcmv[2] = ReadADC(TP3);	// which voltage has Pin 3?
    2994:	82 e0       	ldi	r24, 0x02	; 2
    2996:	0e 94 e2 04 	call	0x9c4	; 0x9c4 <ReadADC>
        if (adcmv[0] < 1300) {
    299a:	24 e1       	ldi	r18, 0x14	; 20
    299c:	e2 16       	cp	r14, r18
    299e:	25 e0       	ldi	r18, 0x05	; 5
    29a0:	f2 06       	cpc	r15, r18
    29a2:	08 f4       	brcc	.+2      	; 0x29a6 <EntladePins+0xba>
           ADC_DDR |= (1<<TP1);	// below 1.3V , switch directly with ADC-Port to GND
    29a4:	38 9a       	sbi	0x07, 0	; 7
        }
        if (adcmv[1] < 1300) {
    29a6:	04 31       	cpi	r16, 0x14	; 20
    29a8:	35 e0       	ldi	r19, 0x05	; 5
    29aa:	13 07       	cpc	r17, r19
    29ac:	08 f4       	brcc	.+2      	; 0x29b0 <EntladePins+0xc4>
           ADC_DDR |= (1<<TP2);	// below 1.3V, switch directly with ADC-Port to GND
    29ae:	39 9a       	sbi	0x07, 1	; 7
        }
        if (adcmv[2] < 1300) {
    29b0:	84 31       	cpi	r24, 0x14	; 20
    29b2:	25 e0       	ldi	r18, 0x05	; 5
    29b4:	92 07       	cpc	r25, r18
    29b6:	08 f4       	brcc	.+2      	; 0x29ba <EntladePins+0xce>
           ADC_DDR |= (1<<TP3);	// below 1.3V, switch directly with ADC-Port to GND
    29b8:	3a 9a       	sbi	0x07, 2	; 7
        }
        if ((adcmv[0] < (CAP_EMPTY_LEVEL+2)) && (adcmv[1] < (CAP_EMPTY_LEVEL+2)) && (adcmv[2] < (CAP_EMPTY_LEVEL+2))) {
    29ba:	36 e0       	ldi	r19, 0x06	; 6
    29bc:	e3 16       	cp	r14, r19
    29be:	f1 04       	cpc	r15, r1
    29c0:	28 f4       	brcc	.+10     	; 0x29cc <EntladePins+0xe0>
    29c2:	06 30       	cpi	r16, 0x06	; 6
    29c4:	11 05       	cpc	r17, r1
    29c6:	10 f4       	brcc	.+4      	; 0x29cc <EntladePins+0xe0>
    29c8:	06 97       	sbiw	r24, 0x06	; 6
    29ca:	38 f0       	brcs	.+14     	; 0x29da <EntladePins+0xee>

     // additionally switch the leaving Ports with R_L to GND.
     // since there is no disadvantage for the already directly switched pins, we can
     // simply switch all  R_L resistors to GND
//     R_DDR = (1<<PIN_RL3) | (1<<PIN_RL2) | (1<<PIN_RL1);	// Pins across R_L resistors to GND
     for(clr_cnt=0;clr_cnt<MAX_ENTLADE_ZEIT;clr_cnt++) {
    29cc:	21 96       	adiw	r28, 0x01	; 1
    29ce:	c4 3f       	cpi	r28, 0xF4	; 244
    29d0:	81 e0       	ldi	r24, 0x01	; 1
    29d2:	d8 07       	cpc	r29, r24
    29d4:	b1 f6       	brne	.-84     	; 0x2982 <EntladePins+0x96>
        if ((adcmv[0] < (CAP_EMPTY_LEVEL+2)) && (adcmv[1] < (CAP_EMPTY_LEVEL+2)) && (adcmv[2] < (CAP_EMPTY_LEVEL+2))) {
           break;
        }
     }
     if (clr_cnt == MAX_ENTLADE_ZEIT) {
        PartFound = PART_CELL;	// mark as Battery
    29d6:	c0 92 1a 01 	sts	0x011A, r12

     // additionally switch the leaving Ports with R_L to GND.
     // since there is no disadvantage for the already directly switched pins, we can
     // simply switch all  R_L resistors to GND
//     R_DDR = (1<<PIN_RL3) | (1<<PIN_RL2) | (1<<PIN_RL1);	// Pins across R_L resistors to GND
     for(clr_cnt=0;clr_cnt<MAX_ENTLADE_ZEIT;clr_cnt++) {
    29da:	00 e0       	ldi	r16, 0x00	; 0
    29dc:	10 e0       	ldi	r17, 0x00	; 0
        lcd_line4();
        u2lcd_space(adcmv[0]);	// lcd_string(utoa(adcmv[0], outval, 10)); lcd_space();
        u2lcd_space(adcmv[1]);	// lcd_string(utoa(adcmv[1], outval, 10)); lcd_space();
        u2lcd(adcmv[2]);		// lcd_string(utoa(adcmv[2], outval, 10));
#endif
     for(adcmv[0]=0;adcmv[0]<clr_cnt;adcmv[0]++) {
    29de:	0c 17       	cp	r16, r28
    29e0:	1d 07       	cpc	r17, r29
    29e2:	29 f0       	breq	.+10     	; 0x29ee <EntladePins+0x102>
        // for safety, discharge 5% of discharge  time
        wait1ms();
    29e4:	0e 94 99 04 	call	0x932	; 0x932 <wait1ms>
    29e8:	0f 5f       	subi	r16, 0xFF	; 255
    29ea:	1f 4f       	sbci	r17, 0xFF	; 255
    29ec:	f8 cf       	rjmp	.-16     	; 0x29de <EntladePins+0xf2>
    29ee:	da 94       	dec	r13
// max. time of discharge in ms  (10000/20) == 10s
#define MAX_ENTLADE_ZEIT  (10000/20)
#if DebugOut == 99
  uart_putc('L');		//Debug
#endif
  for(lop_cnt=0;lop_cnt<10;lop_cnt++) {
    29f0:	09 f0       	breq	.+2      	; 0x29f4 <EntladePins+0x108>
    29f2:	88 cf       	rjmp	.-240    	; 0x2904 <EntladePins+0x18>
     }
  } // end for lop_cnt
#if DebugOut == 99
  uart_putc('x');		//Debug
#endif
 }
    29f4:	cd b7       	in	r28, 0x3d	; 61
    29f6:	de b7       	in	r29, 0x3e	; 62
    29f8:	e9 e0       	ldi	r30, 0x09	; 9
    29fa:	0c 94 f5 31 	jmp	0x63ea	; 0x63ea <__epilogue_restores__+0x12>

000029fe <Scale_C_with_vcc>:
  R_PORT = 0; 			// switch all resistor outputs to GND, no pull up
  return;
 } // end ReadCapacity()


void Scale_C_with_vcc(void) {
    29fe:	cf 92       	push	r12
    2a00:	df 92       	push	r13
    2a02:	ef 92       	push	r14
    2a04:	ff 92       	push	r15
    2a06:	cf 93       	push	r28
    2a08:	20 91 73 01 	lds	r18, 0x0173
    2a0c:	30 91 74 01 	lds	r19, 0x0174
    2a10:	40 91 75 01 	lds	r20, 0x0175
    2a14:	50 91 76 01 	lds	r21, 0x0176
    2a18:	c0 91 85 01 	lds	r28, 0x0185
   while (cap.cval > 100000) {
      cap.cval /= 10;
    2a1c:	8a e0       	ldi	r24, 0x0A	; 10
    2a1e:	c8 2e       	mov	r12, r24
    2a20:	d1 2c       	mov	r13, r1
    2a22:	e1 2c       	mov	r14, r1
    2a24:	f1 2c       	mov	r15, r1
    2a26:	8c 2f       	mov	r24, r28
    2a28:	cf 5f       	subi	r28, 0xFF	; 255
  return;
 } // end ReadCapacity()


void Scale_C_with_vcc(void) {
   while (cap.cval > 100000) {
    2a2a:	21 3a       	cpi	r18, 0xA1	; 161
    2a2c:	96 e8       	ldi	r25, 0x86	; 134
    2a2e:	39 07       	cpc	r19, r25
    2a30:	91 e0       	ldi	r25, 0x01	; 1
    2a32:	49 07       	cpc	r20, r25
    2a34:	51 05       	cpc	r21, r1
    2a36:	38 f0       	brcs	.+14     	; 0x2a46 <Scale_C_with_vcc+0x48>
      cap.cval /= 10;
    2a38:	ca 01       	movw	r24, r20
    2a3a:	b9 01       	movw	r22, r18
    2a3c:	a7 01       	movw	r20, r14
    2a3e:	96 01       	movw	r18, r12
    2a40:	0e 94 6d 31 	call	0x62da	; 0x62da <__udivmodsi4>
    2a44:	f0 cf       	rjmp	.-32     	; 0x2a26 <Scale_C_with_vcc+0x28>
    2a46:	80 93 85 01 	sts	0x0185, r24
      cap.cpre ++;			// prevent overflow
   }
   cap.cval *= ADCconfig.U_AVCC;	// scale with measured voltage
    2a4a:	a0 91 2f 01 	lds	r26, 0x012F
    2a4e:	b0 91 30 01 	lds	r27, 0x0130
    2a52:	0e 94 c0 31 	call	0x6380	; 0x6380 <__muluhisi3>
   cap.cval /= U_VCC;			// Factors are computed for U_VCC
    2a56:	28 e8       	ldi	r18, 0x88	; 136
    2a58:	33 e1       	ldi	r19, 0x13	; 19
    2a5a:	40 e0       	ldi	r20, 0x00	; 0
    2a5c:	50 e0       	ldi	r21, 0x00	; 0
    2a5e:	0e 94 6d 31 	call	0x62da	; 0x62da <__udivmodsi4>
    2a62:	20 93 73 01 	sts	0x0173, r18
    2a66:	30 93 74 01 	sts	0x0174, r19
    2a6a:	40 93 75 01 	sts	0x0175, r20
    2a6e:	50 93 76 01 	sts	0x0176, r21
}
    2a72:	cf 91       	pop	r28
    2a74:	ff 90       	pop	r15
    2a76:	ef 90       	pop	r14
    2a78:	df 90       	pop	r13
    2a7a:	cf 90       	pop	r12
    2a7c:	08 95       	ret

00002a7e <ReadCapacity>:
#include <stdlib.h>
#include "Transistortester.h"


//=================================================================
void ReadCapacity(uint8_t HighPin, uint8_t LowPin) {
    2a7e:	a4 e0       	ldi	r26, 0x04	; 4
    2a80:	b0 e0       	ldi	r27, 0x00	; 0
    2a82:	e5 e4       	ldi	r30, 0x45	; 69
    2a84:	f5 e1       	ldi	r31, 0x15	; 21
    2a86:	0c 94 d6 31 	jmp	0x63ac	; 0x63ac <__prologue_saves__+0xc>
    2a8a:	98 2e       	mov	r9, r24
    2a8c:	86 2e       	mov	r8, r22
     residual_voltage = ReadADC(HighPin);		// voltage before any load 
  }
#endif

#ifdef AUTO_CAL
  pin_combination = ((HighPin - TP_MIN) * 3) + LowPin - TP_MIN - 1;	// coded Pin combination for capacity zero offset
    2a8e:	8f ef       	ldi	r24, 0xFF	; 255
    2a90:	86 0f       	add	r24, r22
    2a92:	99 2d       	mov	r25, r9
    2a94:	99 0f       	add	r25, r25
    2a96:	99 0d       	add	r25, r9
    2a98:	89 0f       	add	r24, r25
    2a9a:	80 93 50 01 	sts	0x0150, r24
#endif

  HiPinR_L = pgm_read_byte(&PinRLRHADCtab[HighPin - TP_MIN]);	//R_L mask for HighPin R_L load
    2a9e:	e9 2d       	mov	r30, r9
    2aa0:	f0 e0       	ldi	r31, 0x00	; 0
    2aa2:	e0 57       	subi	r30, 0x70	; 112
    2aa4:	fe 4f       	sbci	r31, 0xFE	; 254
    2aa6:	14 91       	lpm	r17, Z
  LoPinR_L = pgm_read_byte(&PinRLRHADCtab[LowPin - TP_MIN]);	//R_L mask for LowPin R_L load
    2aa8:	e6 2f       	mov	r30, r22
    2aaa:	f0 e0       	ldi	r31, 0x00	; 0
    2aac:	e0 57       	subi	r30, 0x70	; 112
    2aae:	fe 4f       	sbci	r31, 0xFE	; 254
    2ab0:	f4 90       	lpm	r15, Z
#if (((PIN_RL1 + 1) != PIN_RH1) || ((PIN_RL2 + 1) != PIN_RH2) || ((PIN_RL3 + 1) != PIN_RH3))
  HiPinR_H = pgm_read_byte((&PinRLRHADCtab[3])+HighPin-TP_MIN);	//R_H mask for HighPin R_H load
  LoADC = pgm_read_byte((&PinRLRHADCtab[6])+LowPin-TP_MIN) | TXD_MSK;
#else
  HiPinR_H = HiPinR_L + HiPinR_L;	//double for HighPin R_H load
  LoADC = pgm_read_byte((&PinRLRHADCtab[3])+LowPin-TP_MIN) | TXD_MSK;
    2ab2:	e6 2f       	mov	r30, r22
    2ab4:	f0 e0       	ldi	r31, 0x00	; 0
    2ab6:	ed 56       	subi	r30, 0x6D	; 109
    2ab8:	fe 4f       	sbci	r31, 0xFE	; 254
    2aba:	04 91       	lpm	r16, Z
  lcd_testpin(LowPin);
  lcd_data('C');
  lcd_testpin(HighPin);
  lcd_space();
#endif
  if(PartFound == PART_RESISTOR) {
    2abc:	80 91 1a 01 	lds	r24, 0x011A
    2ac0:	81 30       	cpi	r24, 0x01	; 1
    2ac2:	09 f4       	brne	.+2      	; 0x2ac6 <ReadCapacity+0x48>
    2ac4:	a7 c2       	rjmp	.+1358   	; 0x3014 <ReadCapacity+0x596>
     lcd_data('R');
     wait_about2s();	/* debug delay */
#endif
     return;	//We have found a resistor already 
  }
  for (ii=0;ii<NumOfDiodes;ii++) {
    2ac6:	40 91 18 01 	lds	r20, 0x0118
    2aca:	8f e8       	ldi	r24, 0x8F	; 143
    2acc:	91 e0       	ldi	r25, 0x01	; 1
    2ace:	65 e9       	ldi	r22, 0x95	; 149
    2ad0:	71 e0       	ldi	r23, 0x01	; 1
    2ad2:	dc 01       	movw	r26, r24
    2ad4:	2a 2f       	mov	r18, r26
    2ad6:	28 1b       	sub	r18, r24
    2ad8:	24 17       	cp	r18, r20
    2ada:	a0 f4       	brcc	.+40     	; 0x2b04 <ReadCapacity+0x86>
     if ((diodes.Cathode[ii] == LowPin) && (diodes.Anode[ii] == HighPin) && (diodes.Voltage[ii] < 1500)) {
    2adc:	2d 91       	ld	r18, X+
    2ade:	28 11       	cpse	r18, r8
    2ae0:	0e c0       	rjmp	.+28     	; 0x2afe <ReadCapacity+0x80>
    2ae2:	9d 01       	movw	r18, r26
    2ae4:	27 50       	subi	r18, 0x07	; 7
    2ae6:	31 09       	sbc	r19, r1
    2ae8:	f9 01       	movw	r30, r18
    2aea:	20 81       	ld	r18, Z
    2aec:	29 11       	cpse	r18, r9
    2aee:	07 c0       	rjmp	.+14     	; 0x2afe <ReadCapacity+0x80>
    2af0:	fb 01       	movw	r30, r22
    2af2:	20 81       	ld	r18, Z
    2af4:	31 81       	ldd	r19, Z+1	; 0x01
    2af6:	2c 3d       	cpi	r18, 0xDC	; 220
    2af8:	35 40       	sbci	r19, 0x05	; 5
    2afa:	08 f4       	brcc	.+2      	; 0x2afe <ReadCapacity+0x80>
    2afc:	8b c2       	rjmp	.+1302   	; 0x3014 <ReadCapacity+0x596>
    2afe:	6e 5f       	subi	r22, 0xFE	; 254
    2b00:	7f 4f       	sbci	r23, 0xFF	; 255
    2b02:	e8 cf       	rjmp	.-48     	; 0x2ad4 <ReadCapacity+0x56>
     }
  }
  
#if FLASHEND > 0x1fff
  unsigned int vloss;	// lost voltage after load pulse in 0.1% 
  cap.esr = 0;				// set ESR of capacitor to zero
    2b04:	10 92 80 01 	sts	0x0180, r1
    2b08:	10 92 7f 01 	sts	0x017F, r1
  vloss = 0;				// set lost voltage to zero
#endif
  cap.cpre = -15;			// mark for no cap
    2b0c:	81 ef       	ldi	r24, 0xF1	; 241
    2b0e:	80 93 85 01 	sts	0x0185, r24
  cap.cval = 0;				// set capacity value to zero
    2b12:	10 92 73 01 	sts	0x0173, r1
    2b16:	10 92 74 01 	sts	0x0174, r1
    2b1a:	10 92 75 01 	sts	0x0175, r1
    2b1e:	10 92 76 01 	sts	0x0176, r1
  EntladePins();			// discharge capacitor
    2b22:	e4 de       	rcall	.-568    	; 0x28ec <EntladePins>
    2b24:	18 b8       	out	0x08, r1	; 8
  ADC_PORT = TXD_VAL;			// switch ADC-Port to GND
    2b26:	07 b9       	out	0x07, r16	; 7
// The polarity of residual voltage of the capacitor depends on the measurement
// history. For the normal test cycle the residual voltage is negative
// at the HighPin. Because the ADC can not measure a negative Voltage,
// the LowPin voltage is shifted to 139mV with the R_L resistor.
// The voltage of the capacitor is build as difference between HighPin and LowPin voltage.
  ADC_DDR = LoADC;			// switch Low-Pin to output (GND)
    2b28:	f4 b8       	out	0x04, r15	; 4
  R_DDR = LoPinR_L;			// switch R_L Port of LoPin to VCC
    2b2a:	f5 b8       	out	0x05, r15	; 5
  R_PORT = LoPinR_L;			// switch R_L Port of LoPin to VCC
    2b2c:	89 2d       	mov	r24, r9
  residual_voltage = ReadADC(HighPin) - ReadADC(LowPin); // voltage at HighPin before any load 
    2b2e:	0e 94 e2 04 	call	0x9c4	; 0x9c4 <ReadADC>
    2b32:	7c 01       	movw	r14, r24
    2b34:	88 2d       	mov	r24, r8
    2b36:	0e 94 e2 04 	call	0x9c4	; 0x9c4 <ReadADC>
    2b3a:	e8 1a       	sub	r14, r24
    2b3c:	f9 0a       	sbc	r15, r25
    2b3e:	14 b8       	out	0x04, r1	; 4
  R_DDR = 0;				// switch all R_L ports to input
    2b40:	10 92 52 01 	sts	0x0152, r1
  cap_voltage1 = 0;			// preset to prevent compiler warning
#define MAX_LOAD_TIME 500
#define MIN_VOLTAGE 300
  for (ovcnt16=0;ovcnt16<MAX_LOAD_TIME;ovcnt16++) {
    2b44:	10 92 51 01 	sts	0x0151, r1
    2b48:	c1 2c       	mov	r12, r1
  ADC_DDR = LoADC;			// switch Low-Pin to output (GND)
  R_DDR = LoPinR_L;			// switch R_L Port of LoPin to VCC
  R_PORT = LoPinR_L;			// switch R_L Port of LoPin to VCC
  residual_voltage = ReadADC(HighPin) - ReadADC(LowPin); // voltage at HighPin before any load 
  R_DDR = 0;				// switch all R_L ports to input
  cap_voltage1 = 0;			// preset to prevent compiler warning
    2b4a:	d1 2c       	mov	r13, r1
    2b4c:	80 91 51 01 	lds	r24, 0x0151
#define MAX_LOAD_TIME 500
#define MIN_VOLTAGE 300
  for (ovcnt16=0;ovcnt16<MAX_LOAD_TIME;ovcnt16++) {
    2b50:	90 91 52 01 	lds	r25, 0x0152
    2b54:	84 3f       	cpi	r24, 0xF4	; 244
    2b56:	91 40       	sbci	r25, 0x01	; 1
    2b58:	50 f5       	brcc	.+84     	; 0x2bae <ReadCapacity+0x130>
    2b5a:	15 b9       	out	0x05, r17	; 5
     R_PORT = HiPinR_L;			//R_L to 1 (VCC) 
    2b5c:	14 b9       	out	0x04, r17	; 4
     R_DDR = HiPinR_L;			//switch Pin to output, across R to GND or VCC
    2b5e:	0e 94 93 04 	call	0x926	; 0x926 <wait10ms>
     wait10ms();			// wait exactly 10ms, do not sleep
    2b62:	14 b8       	out	0x04, r1	; 4
     R_DDR = 0;				// switch back to input
    2b64:	15 b8       	out	0x05, r1	; 5
     R_PORT = 0;			// no Pull up
    2b66:	0e 94 9a 04 	call	0x934	; 0x934 <wait500us>
     wait500us();			//wait a little time
    2b6a:	a8 95       	wdr
     wdt_reset();
    2b6c:	89 2d       	mov	r24, r9
        // apparently very small capacitance, if it charges so quickly
        goto messe_mit_rh;
     }
     cap_voltage1 -= residual_voltage; // voltage across capacitor
#else
     cap_voltage1 = ReadADC(HighPin) - residual_voltage; // voltage of capacitor
    2b6e:	0e 94 e2 04 	call	0x9c4	; 0x9c4 <ReadADC>
    2b72:	6c 01       	movw	r12, r24
    2b74:	ce 18       	sub	r12, r14
    2b76:	df 08       	sbc	r13, r15
    2b78:	80 91 51 01 	lds	r24, 0x0151
#endif
     if ((ovcnt16 > (MAX_LOAD_TIME/4)) && (cap_voltage1 < (MIN_VOLTAGE/4))) {
    2b7c:	90 91 52 01 	lds	r25, 0x0152
    2b80:	8e 37       	cpi	r24, 0x7E	; 126
    2b82:	91 05       	cpc	r25, r1
    2b84:	28 f0       	brcs	.+10     	; 0x2b90 <ReadCapacity+0x112>
    2b86:	2b e4       	ldi	r18, 0x4B	; 75
    2b88:	c2 16       	cp	r12, r18
    2b8a:	d1 04       	cpc	r13, r1
    2b8c:	0c f4       	brge	.+2      	; 0x2b90 <ReadCapacity+0x112>
    2b8e:	3e c2       	rjmp	.+1148   	; 0x300c <ReadCapacity+0x58e>
    2b90:	5d e2       	ldi	r21, 0x2D	; 45
        // 300mV can not be reached well-timed 
        break;		// don't try to load any more
     }
     // probably 100mF can be charged well-timed 
     if (cap_voltage1 > MIN_VOLTAGE) {
    2b92:	c5 16       	cp	r12, r21
    2b94:	51 e0       	ldi	r21, 0x01	; 1
    2b96:	d5 06       	cpc	r13, r21
    2b98:	84 f4       	brge	.+32     	; 0x2bba <ReadCapacity+0x13c>
    2b9a:	80 91 51 01 	lds	r24, 0x0151
  residual_voltage = ReadADC(HighPin) - ReadADC(LowPin); // voltage at HighPin before any load 
  R_DDR = 0;				// switch all R_L ports to input
  cap_voltage1 = 0;			// preset to prevent compiler warning
#define MAX_LOAD_TIME 500
#define MIN_VOLTAGE 300
  for (ovcnt16=0;ovcnt16<MAX_LOAD_TIME;ovcnt16++) {
    2b9e:	90 91 52 01 	lds	r25, 0x0152
    2ba2:	01 96       	adiw	r24, 0x01	; 1
    2ba4:	90 93 52 01 	sts	0x0152, r25
    2ba8:	80 93 51 01 	sts	0x0151, r24
    2bac:	cf cf       	rjmp	.-98     	; 0x2b4c <ReadCapacity+0xce>
    2bae:	fd e2       	ldi	r31, 0x2D	; 45
  // wait 5ms and read voltage again, does the capacitor keep the voltage?
#if DebugOut == 10
  DisplayValue16(ovcnt16,0,' ',4);
  Display_mV(cap_voltage1,4);
#endif
  if (cap_voltage1 <= MIN_VOLTAGE) {
    2bb0:	cf 16       	cp	r12, r31
    2bb2:	f1 e0       	ldi	r31, 0x01	; 1
    2bb4:	df 06       	cpc	r13, r31
    2bb6:	0c f4       	brge	.+2      	; 0x2bba <ReadCapacity+0x13c>
    2bb8:	29 c2       	rjmp	.+1106   	; 0x300c <ReadCapacity+0x58e>
    2bba:	80 91 51 01 	lds	r24, 0x0151
#endif
//     if (NumOfDiodes != 0) goto messe_mit_rh; /* ****************************** */
     goto keinC;		// was never charged enough, >100mF or shorted
  }
  //voltage is rised properly and keeps the voltage enough
  if ((ovcnt16 == 0 ) && (cap_voltage1 > 1300)) {
    2bbe:	90 91 52 01 	lds	r25, 0x0152
    2bc2:	89 2b       	or	r24, r25
    2bc4:	21 f0       	breq	.+8      	; 0x2bce <ReadCapacity+0x150>
    2bc6:	c6 01       	movw	r24, r12
    2bc8:	00 e0       	ldi	r16, 0x00	; 0
    2bca:	10 e0       	ldi	r17, 0x00	; 0
    2bcc:	06 c0       	rjmp	.+12     	; 0x2bda <ReadCapacity+0x15c>
    2bce:	25 e1       	ldi	r18, 0x15	; 21
    2bd0:	c2 16       	cp	r12, r18
    2bd2:	25 e0       	ldi	r18, 0x05	; 5
    2bd4:	d2 06       	cpc	r13, r18
    2bd6:	bc f3       	brlt	.-18     	; 0x2bc6 <ReadCapacity+0x148>
    2bd8:	85 c0       	rjmp	.+266    	; 0x2ce4 <ReadCapacity+0x266>
    2bda:	20 91 51 01 	lds	r18, 0x0151
  cap.cval_uncorrected.dw = ovcnt16 + 1;
  cap.cval_uncorrected.dw *= GetRLmultip(cap_voltage1);		// get factor to convert time to capacity from table
#else
  // wait the half the time which was required for loading
  cap_voltage2 = cap_voltage1;			// preset to prevent compiler warning
  for (tmpint=0;tmpint<=ovcnt16;tmpint++) {
    2bde:	30 91 52 01 	lds	r19, 0x0152
    2be2:	20 17       	cp	r18, r16
    2be4:	31 07       	cpc	r19, r17
    2be6:	58 f0       	brcs	.+22     	; 0x2bfe <ReadCapacity+0x180>
    2be8:	0e 94 94 04 	call	0x928	; 0x928 <wait5ms>
     wait5ms();
    2bec:	89 2d       	mov	r24, r9
     cap_voltage2 = ReadADC(HighPin) - residual_voltage;	// read voltage again, is discharged only a little bit ?
    2bee:	0e 94 e2 04 	call	0x9c4	; 0x9c4 <ReadADC>
    2bf2:	8e 19       	sub	r24, r14
    2bf4:	9f 09       	sbc	r25, r15
    2bf6:	a8 95       	wdr
     wdt_reset();
    2bf8:	0f 5f       	subi	r16, 0xFF	; 255
  cap.cval_uncorrected.dw = ovcnt16 + 1;
  cap.cval_uncorrected.dw *= GetRLmultip(cap_voltage1);		// get factor to convert time to capacity from table
#else
  // wait the half the time which was required for loading
  cap_voltage2 = cap_voltage1;			// preset to prevent compiler warning
  for (tmpint=0;tmpint<=ovcnt16;tmpint++) {
    2bfa:	1f 4f       	sbci	r17, 0xFF	; 255
    2bfc:	ee cf       	rjmp	.-36     	; 0x2bda <ReadCapacity+0x15c>
    2bfe:	86 01       	movw	r16, r12
     wait5ms();
     cap_voltage2 = ReadADC(HighPin) - residual_voltage;	// read voltage again, is discharged only a little bit ?
     wdt_reset();
  }
     cap_voltage2 = cap_voltage1 - cap_voltage2; 	// lost voltage during load time wait
    2c00:	08 1b       	sub	r16, r24
    2c02:	19 0b       	sbc	r17, r25
    2c04:	10 16       	cp	r1, r16
#if FLASHEND > 0x1fff
  // compute equivalent parallel resistance from voltage drop
  if (cap_voltage2 > 0) {
    2c06:	11 06       	cpc	r1, r17
    2c08:	94 f4       	brge	.+36     	; 0x2c2e <ReadCapacity+0x1b0>
    2c0a:	09 3c       	cpi	r16, 0xC9	; 201
     // there is any voltage drop !
     // cap_voltage1 is the loaded voltage.
     vloss = (unsigned long)(cap_voltage2 * 1000UL) / cap_voltage1;
  }
#endif
  if (cap_voltage2 > 200) {
    2c0c:	11 05       	cpc	r17, r1
    2c0e:	0c f0       	brlt	.+2      	; 0x2c12 <ReadCapacity+0x194>
    2c10:	fd c1       	rjmp	.+1018   	; 0x300c <ReadCapacity+0x58e>
    2c12:	28 ee       	ldi	r18, 0xE8	; 232
#if FLASHEND > 0x1fff
  // compute equivalent parallel resistance from voltage drop
  if (cap_voltage2 > 0) {
     // there is any voltage drop !
     // cap_voltage1 is the loaded voltage.
     vloss = (unsigned long)(cap_voltage2 * 1000UL) / cap_voltage1;
    2c14:	33 e0       	ldi	r19, 0x03	; 3
    2c16:	d8 01       	movw	r26, r16
    2c18:	0e 94 ba 31 	call	0x6374	; 0x6374 <__usmulhisi3>
    2c1c:	96 01       	movw	r18, r12
    2c1e:	44 27       	eor	r20, r20
    2c20:	37 fd       	sbrc	r19, 7
    2c22:	40 95       	com	r20
    2c24:	54 2f       	mov	r21, r20
    2c26:	0e 94 6d 31 	call	0x62da	; 0x62da <__udivmodsi4>
    2c2a:	79 01       	movw	r14, r18
    2c2c:	02 c0       	rjmp	.+4      	; 0x2c32 <ReadCapacity+0x1b4>
    2c2e:	e1 2c       	mov	r14, r1
  }
  
#if FLASHEND > 0x1fff
  unsigned int vloss;	// lost voltage after load pulse in 0.1% 
  cap.esr = 0;				// set ESR of capacitor to zero
  vloss = 0;				// set lost voltage to zero
    2c30:	f1 2c       	mov	r15, r1
    2c32:	a0 90 51 01 	lds	r10, 0x0151
//     if (ovcnt16 == 0 )  {
//        goto messe_mit_rh;		// Voltage of more than 300mV is reached in one pulse, but not hold
//     }
     goto keinC;			// capacitor does not keep the voltage about 5ms
  }
  cap.cval_uncorrected.dw = ovcnt16 + 1;
    2c36:	b0 90 52 01 	lds	r11, 0x0152
    2c3a:	5f ef       	ldi	r21, 0xFF	; 255
    2c3c:	a5 1a       	sub	r10, r21
    2c3e:	b5 0a       	sbc	r11, r21
    2c40:	c5 01       	movw	r24, r10
    2c42:	a0 e0       	ldi	r26, 0x00	; 0
    2c44:	b0 e0       	ldi	r27, 0x00	; 0
    2c46:	80 93 7b 01 	sts	0x017B, r24
    2c4a:	90 93 7c 01 	sts	0x017C, r25
    2c4e:	a0 93 7d 01 	sts	0x017D, r26
    2c52:	b0 93 7e 01 	sts	0x017E, r27
    2c56:	c6 01       	movw	r24, r12
  // compute factor with load voltage + lost voltage during the voltage load time
  cap.cval_uncorrected.dw *= GetRLmultip(cap_voltage1+cap_voltage2);	// get factor to convert time to capacity from table
    2c58:	80 0f       	add	r24, r16
    2c5a:	91 1f       	adc	r25, r17
    2c5c:	27 d2       	rcall	.+1102   	; 0x30ac <GetRLmultip>
    2c5e:	9c 01       	movw	r18, r24
    2c60:	d5 01       	movw	r26, r10
    2c62:	0e 94 ab 31 	call	0x6356	; 0x6356 <__umulhisi3>
    2c66:	60 93 7b 01 	sts	0x017B, r22
    2c6a:	70 93 7c 01 	sts	0x017C, r23
    2c6e:	80 93 7d 01 	sts	0x017D, r24
    2c72:	90 93 7e 01 	sts	0x017E, r25
    2c76:	60 93 73 01 	sts	0x0173, r22
#endif
   cap.cval = cap.cval_uncorrected.dw;	// set result to uncorrected
    2c7a:	70 93 74 01 	sts	0x0174, r23
    2c7e:	80 93 75 01 	sts	0x0175, r24
    2c82:	90 93 76 01 	sts	0x0176, r25
    2c86:	87 ef       	ldi	r24, 0xF7	; 247
    2c88:	80 93 85 01 	sts	0x0185, r24
   cap.cpre = -9;		// switch units to nF 
    2c8c:	b8 de       	rcall	.-656    	; 0x29fe <Scale_C_with_vcc>
    2c8e:	20 91 73 01 	lds	r18, 0x0173
   Scale_C_with_vcc();		// value is below 100000 after this call, cpre is changed
    2c92:	30 91 74 01 	lds	r19, 0x0174
   // cap.cval for this type is at least 40000nF, so the last digit will be never shown
#if WITH_MENU
   cap.cval *= (1000 - (int8_t)eeprom_read_byte((uint8_t *)&big_cap_corr));	// correct with C_H_KORR with 0.1% resolution, but prevent overflow
    2c96:	40 91 75 01 	lds	r20, 0x0175
    2c9a:	50 91 76 01 	lds	r21, 0x0176
    2c9e:	8b e1       	ldi	r24, 0x1B	; 27
    2ca0:	93 e0       	ldi	r25, 0x03	; 3
    2ca2:	29 83       	std	Y+1, r18	; 0x01
    2ca4:	3a 83       	std	Y+2, r19	; 0x02
    2ca6:	4b 83       	std	Y+3, r20	; 0x03
    2ca8:	5c 83       	std	Y+4, r21	; 0x04
    2caa:	0e 94 4b 32 	call	0x6496	; 0x6496 <__eerd_byte_m328p>
    2cae:	a8 ee       	ldi	r26, 0xE8	; 232
    2cb0:	b3 e0       	ldi	r27, 0x03	; 3
    2cb2:	a8 1b       	sub	r26, r24
    2cb4:	b1 09       	sbc	r27, r1
    2cb6:	87 fd       	sbrc	r24, 7
    2cb8:	b3 95       	inc	r27
    2cba:	29 81       	ldd	r18, Y+1	; 0x01
    2cbc:	3a 81       	ldd	r19, Y+2	; 0x02
    2cbe:	4b 81       	ldd	r20, Y+3	; 0x03
    2cc0:	5c 81       	ldd	r21, Y+4	; 0x04
    2cc2:	0e 94 ca 31 	call	0x6394	; 0x6394 <__mulshisi3>
    2cc6:	24 e6       	ldi	r18, 0x64	; 100
    2cc8:	30 e0       	ldi	r19, 0x00	; 0
    2cca:	40 e0       	ldi	r20, 0x00	; 0
#else
   cap.cval *= (1000 - C_H_KORR);	// correct with C_H_KORR with 0.1% resolution, but prevent overflow
#endif
   cap.cval /= 100;		// was multiplied with 1000, now divided by 100
    2ccc:	50 e0       	ldi	r21, 0x00	; 0
    2cce:	0e 94 6d 31 	call	0x62da	; 0x62da <__udivmodsi4>
    2cd2:	20 93 73 01 	sts	0x0173, r18
    2cd6:	30 93 74 01 	sts	0x0174, r19
    2cda:	40 93 75 01 	sts	0x0175, r20
    2cde:	50 93 76 01 	sts	0x0176, r21
    2ce2:	52 c1       	rjmp	.+676    	; 0x2f88 <ReadCapacity+0x50a>
    2ce4:	03 de       	rcall	.-1018   	; 0x28ec <EntladePins>
    2ce6:	15 b8       	out	0x05, r1	; 5
   DisplayValue(cap.cval,cap.cpre,'F',4);
   lcd_space();
   u2lcd(ovcnt16);
   wait_about3s();	/* debug delay */
#endif
   goto checkDiodes;
    2ce8:	87 e0       	ldi	r24, 0x07	; 7

//==================================================================================
// Measurement of little capacity values
messe_mit_rh:
  //little capacity value, about  < 50 µF
  EntladePins();			// discharge capacitor
    2cea:	87 b9       	out	0x07, r24	; 7
    2cec:	18 b8       	out	0x08, r1	; 8
  //measure with the R_H (470kOhm) resistor 
  R_PORT = 0;		// R_DDR ist HiPinR_L
    2cee:	f1 2e       	mov	r15, r17
  ADC_DDR = (1<<TP1) | (1<<TP2) | (1<<TP3) | TXD_MSK;	//switch all Pins to output
    2cf0:	ff 0c       	add	r15, r15
    2cf2:	f4 b8       	out	0x04, r15	; 4
  ADC_PORT = TXD_VAL;		//switch all ADC Pins to GND
    2cf4:	80 e4       	ldi	r24, 0x40	; 64
  R_DDR = HiPinR_H;   		// switch R_H resistor port for HighPin to output (GND)
    2cf6:	80 93 7b 00 	sts	0x007B, r24
    2cfa:	84 e5       	ldi	r24, 0x54	; 84
// setup Analog Comparator
  ADC_COMP_CONTROL = (1<<ACME);			//enable Analog Comparator Multiplexer
    2cfc:	80 bf       	out	0x30, r24	; 48
    2cfe:	89 2d       	mov	r24, r9
    2d00:	80 64       	ori	r24, 0x40	; 64
  ACSR =  (1<<ACBG) | (1<<ACI)  | (1<<ACIC);	// enable, 1.3V, no Interrupt, Connect to Timer1 
    2d02:	80 93 7c 00 	sts	0x007C, r24
  ADMUX = (1<<REFS0) | HighPin;			// switch Mux to High-Pin
    2d06:	86 e1       	ldi	r24, 0x16	; 22
    2d08:	80 93 7a 00 	sts	0x007A, r24
    2d0c:	0e 94 9d 04 	call	0x93a	; 0x93a <wait200us>
  ADCSRA = (1<<ADIF) | AUTO_CLOCK_DIV; //disable ADC
    2d10:	10 92 52 01 	sts	0x0152, r1
  wait200us();			//wait for bandgap to start up
    2d14:	10 92 51 01 	sts	0x0151, r1

// setup Counter1
  ovcnt16 = 0;
    2d18:	10 92 80 00 	sts	0x0080, r1
    2d1c:	10 92 85 00 	sts	0x0085, r1
  TCCR1A = 0;			// set Counter1 to normal Mode
    2d20:	10 92 84 00 	sts	0x0084, r1
  TCNT1 = 0;			//set Counter to 0
    2d24:	87 e2       	ldi	r24, 0x27	; 39
    2d26:	86 bb       	out	0x16, r24	; 22
    2d28:	81 e2       	ldi	r24, 0x21	; 33
    2d2a:	80 93 6f 00 	sts	0x006F, r24
  TI1_INT_FLAGS = (1<<ICF1) | (1<<OCF1B) | (1<<OCF1A) | (1<<TOV1);	// clear interrupt flags
    2d2e:	81 e0       	ldi	r24, 0x01	; 1
#ifndef INHIBIT_SLEEP_MODE
  TIMSK1 = (1<<TOIE1) | (1<<ICIE1);	// enable Timer overflow interrupt and input capture interrupt
    2d30:	80 93 70 01 	sts	0x0170, r24
    2d34:	f5 b8       	out	0x05, r15	; 5
  unfinished = 1;
    2d36:	90 91 1a 01 	lds	r25, 0x011A
    2d3a:	80 93 81 00 	sts	0x0081, r24
#endif
  R_PORT = HiPinR_H;           	// switch R_H resistor port for HighPin to VCC
  if(PartFound == PART_FET) {
    2d3e:	95 30       	cpi	r25, 0x05	; 5
    2d40:	59 f4       	brne	.+22     	; 0x2d58 <ReadCapacity+0x2da>
     // charge capacitor with R_H resistor
     TCCR1B = (0<<ICNC1) | (1<<CS10);	//Start counter 1MHz or 8MHz without Noise Canceler
    2d42:	81 e0       	ldi	r24, 0x01	; 1
    2d44:	90 e0       	ldi	r25, 0x00	; 0
#ifndef INHIBIT_SLEEP_MODE
  TIMSK1 = (1<<TOIE1) | (1<<ICIE1);	// enable Timer overflow interrupt and input capture interrupt
  unfinished = 1;
#endif
  R_PORT = HiPinR_H;           	// switch R_H resistor port for HighPin to VCC
  if(PartFound == PART_FET) {
    2d46:	09 2c       	mov	r0, r9
    2d48:	01 c0       	rjmp	.+2      	; 0x2d4c <ReadCapacity+0x2ce>
     // charge capacitor with R_H resistor
     TCCR1B = (0<<ICNC1) | (1<<CS10);	//Start counter 1MHz or 8MHz without Noise Canceler
     ADC_DDR = (((1<<TP1) | (1<<TP2) | (1<<TP3) | TXD_MSK) & ~(1<<HighPin));	// release only HighPin ADC port
    2d4a:	88 0f       	add	r24, r24
    2d4c:	0a 94       	dec	r0
    2d4e:	ea f7       	brpl	.-6      	; 0x2d4a <ReadCapacity+0x2cc>
    2d50:	80 95       	com	r24
    2d52:	87 70       	andi	r24, 0x07	; 7
    2d54:	87 b9       	out	0x07, r24	; 7
    2d56:	01 c0       	rjmp	.+2      	; 0x2d5a <ReadCapacity+0x2dc>
    2d58:	07 b9       	out	0x07, r16	; 7
    2d5a:	f8 94       	cli
    2d5c:	83 b7       	in	r24, 0x33	; 51
    2d5e:	81 7f       	andi	r24, 0xF1	; 241
  } else {
     TCCR1B =  (0<<ICNC1) | (1<<CS10);	//start counter 1MHz or 8MHz without Noise Canceler
     ADC_DDR = LoADC;		// stay LoADC Pin switched to GND, charge capacitor with R_H slowly
    2d60:	83 bf       	out	0x33, r24	; 51
     // this OV was not counted, but was before the Input Capture
     TI1_INT_FLAGS = (1<<TOV1);		// Reset OV Flag
     ovcnt16++;
  }
#else
  cli();		// disable interrupts to prevent wakeup Interrupts before sleeping
    2d62:	80 91 70 01 	lds	r24, 0x0170
  set_sleep_mode(SLEEP_MODE_IDLE);
    2d66:	88 23       	and	r24, r24
    2d68:	89 f0       	breq	.+34     	; 0x2d8c <ReadCapacity+0x30e>
  while(unfinished) {
    2d6a:	83 b7       	in	r24, 0x33	; 51
    2d6c:	81 60       	ori	r24, 0x01	; 1
    2d6e:	83 bf       	out	0x33, r24	; 51
    2d70:	78 94       	sei
    sleep_enable();
    2d72:	88 95       	sleep
    2d74:	83 b7       	in	r24, 0x33	; 51
    2d76:	8e 7f       	andi	r24, 0xFE	; 254
    sei();		// enable interrupts after next instruction
    2d78:	83 bf       	out	0x33, r24	; 51
    sleep_cpu();	// only enable interrupts during sleeping
    2d7a:	f8 94       	cli
    sleep_disable();
    2d7c:	a8 95       	wdr
    2d7e:	80 91 51 01 	lds	r24, 0x0151
    cli();		// disable interrupts again
    2d82:	90 91 52 01 	lds	r25, 0x0152
    wdt_reset();	// reset watch dog during waiting
    if(ovcnt16 == (F_CPU/5000)) {
    2d86:	80 34       	cpi	r24, 0x40	; 64
    2d88:	96 40       	sbci	r25, 0x06	; 6
    2d8a:	59 f7       	brne	.-42     	; 0x2d62 <ReadCapacity+0x2e4>
    2d8c:	78 94       	sei
    2d8e:	10 92 81 00 	sts	0x0081, r1
    2d92:	e0 90 86 00 	lds	r14, 0x0086
       break; 		//Timeout for Charging, above 12 s
    }
  }
  sei();		// enable interrupts again
  TCCR1B = (0<<ICNC1) | (0<<ICES1) | (0<<CS10);  // stop counter
    2d96:	f0 90 87 00 	lds	r15, 0x0087
  tmpint = ICR1;		// get previous Input Capture Counter flag
    2d9a:	10 92 6f 00 	sts	0x006F, r1
    2d9e:	86 e9       	ldi	r24, 0x96	; 150
    2da0:	80 93 7a 00 	sts	0x007A, r24
  TIMSK1 = (0<<TOIE1) | (0<<ICIE1);	// disable Timer overflow interrupt and input capture interrupt
    2da4:	14 b8       	out	0x04, r1	; 4
    u2lcd(tmpint);
  }
#endif

//############################################################
  ADCSRA = (1<<ADEN) | (1<<ADIF) | AUTO_CLOCK_DIV; //enable ADC
    2da6:	15 b8       	out	0x05, r1	; 5
    2da8:	89 2d       	mov	r24, r9
    2daa:	0e 94 e2 04 	call	0x9c4	; 0x9c4 <ReadADC>
  R_DDR = 0;			// switch R_H resistor port for input
  R_PORT = 0;			// switch R_H resistor port pull up for HighPin off
    2dae:	20 91 33 01 	lds	r18, 0x0133
  load_diff = ReadADC(HighPin) + REF_C_KORR - ref_mv;	// build difference of capacitor voltage to Reference Voltage
    2db2:	30 91 34 01 	lds	r19, 0x0134
    2db6:	82 1b       	sub	r24, r18
    2db8:	93 0b       	sbc	r25, r19
    2dba:	0c 96       	adiw	r24, 0x0c	; 12
    2dbc:	90 93 88 01 	sts	0x0188, r25
    2dc0:	80 93 87 01 	sts	0x0187, r24
    2dc4:	80 91 51 01 	lds	r24, 0x0151
    2dc8:	90 91 52 01 	lds	r25, 0x0152
//############################################################
  if (ovcnt16 >= (F_CPU/10000)) {
    2dcc:	80 32       	cpi	r24, 0x20	; 32
    2dce:	93 40       	sbci	r25, 0x03	; 3
    2dd0:	08 f0       	brcs	.+2      	; 0x2dd4 <ReadCapacity+0x356>
    2dd2:	1c c1       	rjmp	.+568    	; 0x300c <ReadCapacity+0x58e>
    2dd4:	80 91 51 01 	lds	r24, 0x0151
    2dd8:	90 91 52 01 	lds	r25, 0x0152
     wait_about1s();	/* debug delay */
#endif
     goto keinC;	// no normal end
  }
//  cap.cval_uncorrected = CombineII2Long(ovcnt16, tmpint);
  cap.cval_uncorrected.w[1] = ovcnt16;
    2ddc:	90 93 7e 01 	sts	0x017E, r25
    2de0:	80 93 7d 01 	sts	0x017D, r24
    2de4:	f0 92 7c 01 	sts	0x017C, r15
    2de8:	e0 92 7b 01 	sts	0x017B, r14
  cap.cval_uncorrected.w[0] = tmpint;
    2dec:	84 ef       	ldi	r24, 0xF4	; 244
    2dee:	80 93 85 01 	sts	0x0185, r24
    2df2:	80 91 51 01 	lds	r24, 0x0151

  cap.cpre = -12;			// cap.cval unit is pF 
    2df6:	90 91 52 01 	lds	r25, 0x0152
  if (ovcnt16 > 65) {
    2dfa:	82 34       	cpi	r24, 0x42	; 66
    2dfc:	91 05       	cpc	r25, r1
    2dfe:	c8 f0       	brcs	.+50     	; 0x2e32 <ReadCapacity+0x3b4>
    2e00:	60 91 7b 01 	lds	r22, 0x017B
    2e04:	70 91 7c 01 	lds	r23, 0x017C
     cap.cval_uncorrected.dw /= 100;	// switch to next unit
    2e08:	80 91 7d 01 	lds	r24, 0x017D
    2e0c:	90 91 7e 01 	lds	r25, 0x017E
    2e10:	24 e6       	ldi	r18, 0x64	; 100
    2e12:	30 e0       	ldi	r19, 0x00	; 0
    2e14:	40 e0       	ldi	r20, 0x00	; 0
    2e16:	50 e0       	ldi	r21, 0x00	; 0
    2e18:	0e 94 6d 31 	call	0x62da	; 0x62da <__udivmodsi4>
    2e1c:	20 93 7b 01 	sts	0x017B, r18
    2e20:	30 93 7c 01 	sts	0x017C, r19
    2e24:	40 93 7d 01 	sts	0x017D, r20
    2e28:	50 93 7e 01 	sts	0x017E, r21
    2e2c:	86 ef       	ldi	r24, 0xF6	; 246
    2e2e:	80 93 85 01 	sts	0x0185, r24
    2e32:	a0 91 71 01 	lds	r26, 0x0171
     cap.cpre += 2;			// set unit, prevent overflow
    2e36:	b0 91 72 01 	lds	r27, 0x0172
  }
  cap.cval_uncorrected.dw *= RHmultip;		// 708
    2e3a:	20 91 7b 01 	lds	r18, 0x017B
    2e3e:	30 91 7c 01 	lds	r19, 0x017C
    2e42:	40 91 7d 01 	lds	r20, 0x017D
    2e46:	50 91 7e 01 	lds	r21, 0x017E
    2e4a:	0e 94 c0 31 	call	0x6380	; 0x6380 <__muluhisi3>
    2e4e:	20 e2       	ldi	r18, 0x20	; 32
    2e50:	33 e0       	ldi	r19, 0x03	; 3
    2e52:	40 e0       	ldi	r20, 0x00	; 0
    2e54:	50 e0       	ldi	r21, 0x00	; 0
  cap.cval_uncorrected.dw /= (F_CPU / 10000);	// divide by 100 (@ 1MHz clock), 800 (@ 8MHz clock)
    2e56:	0e 94 6d 31 	call	0x62da	; 0x62da <__udivmodsi4>
    2e5a:	20 93 7b 01 	sts	0x017B, r18
    2e5e:	30 93 7c 01 	sts	0x017C, r19
    2e62:	40 93 7d 01 	sts	0x017D, r20
    2e66:	50 93 7e 01 	sts	0x017E, r21
    2e6a:	20 93 73 01 	sts	0x0173, r18
    2e6e:	30 93 74 01 	sts	0x0174, r19
  cap.cval = cap.cval_uncorrected.dw;		// set the corrected cap.cval
    2e72:	40 93 75 01 	sts	0x0175, r20
    2e76:	50 93 76 01 	sts	0x0176, r21
    2e7a:	c1 dd       	rcall	.-1150   	; 0x29fe <Scale_C_with_vcc>
    2e7c:	80 91 85 01 	lds	r24, 0x0185
    2e80:	84 3f       	cpi	r24, 0xF4	; 244
  Scale_C_with_vcc();
    2e82:	09 f0       	breq	.+2      	; 0x2e86 <ReadCapacity+0x408>
    2e84:	71 c0       	rjmp	.+226    	; 0x2f68 <ReadCapacity+0x4ea>
  if (cap.cpre == -12) {
    2e86:	c0 90 73 01 	lds	r12, 0x0173
    2e8a:	d0 90 74 01 	lds	r13, 0x0174
    2e8e:	e0 90 75 01 	lds	r14, 0x0175
#if COMP_SLEW1 > COMP_SLEW2
     if (cap.cval < COMP_SLEW1) {
    2e92:	f0 90 76 01 	lds	r15, 0x0176
    2e96:	20 ea       	ldi	r18, 0xA0	; 160
    2e98:	c2 16       	cp	r12, r18
    2e9a:	2f e0       	ldi	r18, 0x0F	; 15
    2e9c:	d2 06       	cpc	r13, r18
    2e9e:	e1 04       	cpc	r14, r1
    2ea0:	f1 04       	cpc	r15, r1
    2ea2:	c0 f4       	brcc	.+48     	; 0x2ed4 <ReadCapacity+0x456>
    2ea4:	a7 01       	movw	r20, r14
    2ea6:	96 01       	movw	r18, r12
    2ea8:	2c 54       	subi	r18, 0x4C	; 76
    2eaa:	3f 4f       	sbci	r19, 0xFF	; 255
    2eac:	4f 4f       	sbci	r20, 0xFF	; 255
        // add slew rate dependent offset
        cap.cval += (COMP_SLEW1 / (cap.cval+COMP_SLEW2 ));
    2eae:	5f 4f       	sbci	r21, 0xFF	; 255
    2eb0:	60 ea       	ldi	r22, 0xA0	; 160
    2eb2:	7f e0       	ldi	r23, 0x0F	; 15
    2eb4:	80 e0       	ldi	r24, 0x00	; 0
    2eb6:	90 e0       	ldi	r25, 0x00	; 0
    2eb8:	0e 94 6d 31 	call	0x62da	; 0x62da <__udivmodsi4>
    2ebc:	2c 0d       	add	r18, r12
    2ebe:	3d 1d       	adc	r19, r13
    2ec0:	4e 1d       	adc	r20, r14
    2ec2:	5f 1d       	adc	r21, r15
    2ec4:	20 93 73 01 	sts	0x0173, r18
    2ec8:	30 93 74 01 	sts	0x0174, r19
    2ecc:	40 93 75 01 	sts	0x0175, r20
    2ed0:	50 93 76 01 	sts	0x0176, r21
    2ed4:	c0 90 73 01 	lds	r12, 0x0173
    2ed8:	d0 90 74 01 	lds	r13, 0x0174
    2edc:	e0 90 75 01 	lds	r14, 0x0175
     }
#endif
#ifdef SamplingADC
     // store as reference for inductance measurement
     // note that we store this before subtracting cap_null, since for inductance measurement that cap. also contributes
     if ( cap.cval < 65536) lc_cpartmp=cap.cval; /* prevent wrong value */
    2ee0:	f0 90 76 01 	lds	r15, 0x0176
    2ee4:	c1 14       	cp	r12, r1
    2ee6:	d1 04       	cpc	r13, r1
    2ee8:	51 e0       	ldi	r21, 0x01	; 1
    2eea:	e5 06       	cpc	r14, r21
    2eec:	f1 04       	cpc	r15, r1
    2eee:	28 f4       	brcc	.+10     	; 0x2efa <ReadCapacity+0x47c>
    2ef0:	d0 92 b3 01 	sts	0x01B3, r13
    2ef4:	c0 92 b2 01 	sts	0x01B2, r12
    2ef8:	06 c0       	rjmp	.+12     	; 0x2f06 <ReadCapacity+0x488>
    2efa:	81 e0       	ldi	r24, 0x01	; 1
    2efc:	90 e0       	ldi	r25, 0x00	; 0
    2efe:	90 93 b3 01 	sts	0x01B3, r25
    2f02:	80 93 b2 01 	sts	0x01B2, r24
     else                   lc_cpartmp = 1;	/* set to 1pF, if too big */
    2f06:	80 91 50 01 	lds	r24, 0x0150
    2f0a:	90 e0       	ldi	r25, 0x00	; 0
    2f0c:	88 5c       	subi	r24, 0xC8	; 200
    2f0e:	9c 4f       	sbci	r25, 0xFC	; 252
#endif /* SamplingADC */
#ifdef AUTO_CAL
     // auto calibration mode, cap_null can be updated in selftest section
     tmpint = eeprom_read_byte(&c_zero_tab[pin_combination]);	// read zero offset
    2f10:	0e 94 4b 32 	call	0x6496	; 0x6496 <__eerd_byte_m328p>
    2f14:	48 2f       	mov	r20, r24
    2f16:	50 e0       	ldi	r21, 0x00	; 0
    2f18:	60 e0       	ldi	r22, 0x00	; 0
    2f1a:	70 e0       	ldi	r23, 0x00	; 0
    2f1c:	4c 15       	cp	r20, r12
     if (cap.cval > tmpint) {
    2f1e:	5d 05       	cpc	r21, r13
    2f20:	6e 05       	cpc	r22, r14
    2f22:	7f 05       	cpc	r23, r15
    2f24:	68 f4       	brcc	.+26     	; 0x2f40 <ReadCapacity+0x4c2>
    2f26:	c4 1a       	sub	r12, r20
    2f28:	d5 0a       	sbc	r13, r21
    2f2a:	e6 0a       	sbc	r14, r22
    2f2c:	f7 0a       	sbc	r15, r23
    2f2e:	c0 92 73 01 	sts	0x0173, r12
         cap.cval -= tmpint;		//subtract zero offset (pF)
    2f32:	d0 92 74 01 	sts	0x0174, r13
    2f36:	e0 92 75 01 	sts	0x0175, r14
    2f3a:	f0 92 76 01 	sts	0x0176, r15
    2f3e:	14 c0       	rjmp	.+40     	; 0x2f68 <ReadCapacity+0x4ea>
    2f40:	84 e1       	ldi	r24, 0x14	; 20
    2f42:	c8 0e       	add	r12, r24
    2f44:	d1 1c       	adc	r13, r1
    2f46:	e1 1c       	adc	r14, r1
    2f48:	f1 1c       	adc	r15, r1
     } else {
 #if FLASHEND > 0x3fff
       if ((cap.cval+C_LIMIT_TO_UNCALIBRATED) < tmpint) {
    2f4a:	c4 16       	cp	r12, r20
    2f4c:	d5 06       	cpc	r13, r21
    2f4e:	e6 06       	cpc	r14, r22
    2f50:	f7 06       	cpc	r15, r23
    2f52:	10 f4       	brcc	.+4      	; 0x2f58 <ReadCapacity+0x4da>
    2f54:	0e 94 a7 0a 	call	0x154e	; 0x154e <mark_as_uncalibrated>
    2f58:	10 92 73 01 	sts	0x0173, r1
    2f5c:	10 92 74 01 	sts	0x0174, r1
         mark_as_uncalibrated();	// set in EEprom to uncalibrated
    2f60:	10 92 75 01 	sts	0x0175, r1
         lcd_testpin(HighPin);
         lcd_space();
  #endif
       }
 #endif
         cap.cval = 0;			//unsigned long may not reach negativ value
    2f64:	10 92 76 01 	sts	0x0176, r1
    2f68:	14 b9       	out	0x04, r17	; 4
    2f6a:	80 91 73 01 	lds	r24, 0x0173
    2f6e:	90 91 74 01 	lds	r25, 0x0174
  lcd_testpin(HighPin);
  lcd_space();
  DisplayValue(cap.cval,cap.cpre,'F',4);
  wait_about3s();	/* debug delay */
#endif
  R_DDR = HiPinR_L; 		//switch R_L for High-Pin to GND
    2f72:	a0 91 75 01 	lds	r26, 0x0175
#if F_CPU < 2000001
   if(cap.cval < 50)
#else 
   if(cap.cval < 25)
    2f76:	b0 91 76 01 	lds	r27, 0x0176
    2f7a:	49 97       	sbiw	r24, 0x19	; 25
    2f7c:	a1 05       	cpc	r26, r1
    2f7e:	b1 05       	cpc	r27, r1
    2f80:	08 f4       	brcc	.+2      	; 0x2f84 <ReadCapacity+0x506>
    2f82:	44 c0       	rjmp	.+136    	; 0x300c <ReadCapacity+0x58e>
    2f84:	e1 2c       	mov	r14, r1
    2f86:	f1 2c       	mov	r15, r1
    2f88:	80 91 18 01 	lds	r24, 0x0118
    2f8c:	88 23       	and	r24, r24
  }
  
#if FLASHEND > 0x1fff
  unsigned int vloss;	// lost voltage after load pulse in 0.1% 
  cap.esr = 0;				// set ESR of capacitor to zero
  vloss = 0;				// set lost voltage to zero
    2f8e:	21 f0       	breq	.+8      	; 0x2f98 <ReadCapacity+0x51a>
    2f90:	80 91 1a 01 	lds	r24, 0x011A
#endif
      goto keinC;	//capacity to low, < 50pF @1MHz (25pF @8MHz)
   }
   // end low capacity 
checkDiodes:
   if((NumOfDiodes > 0)  && (PartFound != PART_FET)) {
    2f94:	85 30       	cpi	r24, 0x05	; 5
    2f96:	d1 f5       	brne	.+116    	; 0x300c <ReadCapacity+0x58e>
    2f98:	88 e0       	ldi	r24, 0x08	; 8
    2f9a:	80 93 1a 01 	sts	0x011A, r24
    2f9e:	20 91 85 01 	lds	r18, 0x0185
      wait_about1s();	/* debug delay */
#endif
      // nearly sure, that there is one or more diodes in reverse direction,
      // which would be wrongly detected as capacitor 
   } else {
      PartFound = PART_CAPACITOR;	//capacitor is found
    2fa2:	80 91 86 01 	lds	r24, 0x0186
    2fa6:	82 17       	cp	r24, r18
      if ((cap.cpre > cap.cpre_max) || ((cap.cpre == cap.cpre_max) && (cap.cval > cap.cval_max))) {
    2fa8:	bc f0       	brlt	.+46     	; 0x2fd8 <ReadCapacity+0x55a>
    2faa:	28 13       	cpse	r18, r24
    2fac:	2f c0       	rjmp	.+94     	; 0x300c <ReadCapacity+0x58e>
    2fae:	40 91 73 01 	lds	r20, 0x0173
    2fb2:	50 91 74 01 	lds	r21, 0x0174
    2fb6:	60 91 75 01 	lds	r22, 0x0175
    2fba:	70 91 76 01 	lds	r23, 0x0176
    2fbe:	80 91 77 01 	lds	r24, 0x0177
    2fc2:	90 91 78 01 	lds	r25, 0x0178
    2fc6:	a0 91 79 01 	lds	r26, 0x0179
    2fca:	b0 91 7a 01 	lds	r27, 0x017A
    2fce:	84 17       	cp	r24, r20
    2fd0:	95 07       	cpc	r25, r21
    2fd2:	a6 07       	cpc	r26, r22
    2fd4:	b7 07       	cpc	r27, r23
    2fd6:	d0 f4       	brcc	.+52     	; 0x300c <ReadCapacity+0x58e>
    2fd8:	80 91 73 01 	lds	r24, 0x0173
    2fdc:	90 91 74 01 	lds	r25, 0x0174
    2fe0:	a0 91 75 01 	lds	r26, 0x0175
         // we have found a greater one, overwrite the old values
         cap.cval_max = cap.cval;
    2fe4:	b0 91 76 01 	lds	r27, 0x0176
    2fe8:	80 93 77 01 	sts	0x0177, r24
    2fec:	90 93 78 01 	sts	0x0178, r25
    2ff0:	a0 93 79 01 	sts	0x0179, r26
    2ff4:	b0 93 7a 01 	sts	0x017A, r27
    2ff8:	20 93 86 01 	sts	0x0186, r18
    2ffc:	f0 92 82 01 	sts	0x0182, r15
    3000:	e0 92 81 01 	sts	0x0181, r14
         cap.cpre_max = cap.cpre;
    3004:	80 92 83 01 	sts	0x0183, r8
#if FLASHEND > 0x1fff
         cap.v_loss = vloss;		// lost voltage in 0.01%
    3008:	90 92 84 01 	sts	0x0184, r9
    300c:	17 b8       	out	0x07, r1	; 7
#endif
         cap.ca = LowPin;		// save LowPin
    300e:	18 b8       	out	0x08, r1	; 8
    3010:	14 b8       	out	0x04, r1	; 4
         cap.cb = HighPin;		// save HighPin
    3012:	15 b8       	out	0x05, r1	; 5
    3014:	24 96       	adiw	r28, 0x04	; 4
keinC:
  // discharge capacitor again
//  EntladePins();		// discharge capacitors
  //ready
  // switch all ports to input
  ADC_DDR =  TXD_MSK;		// switch all ADC ports to input
    3016:	ec e0       	ldi	r30, 0x0C	; 12
  ADC_PORT = TXD_VAL;		// switch all ADC outputs to GND, no pull up
    3018:	0c 94 f2 31 	jmp	0x63e4	; 0x63e4 <__epilogue_restores__+0xc>

0000301c <__vector_13>:
  R_DDR = 0;			// switch all resistor ports to input
  R_PORT = 0; 			// switch all resistor outputs to GND, no pull up
    301c:	1f 92       	push	r1
  return;
 } // end ReadCapacity()
    301e:	0f 92       	push	r0
    3020:	0f b6       	in	r0, 0x3f	; 63
    3022:	0f 92       	push	r0
    3024:	11 24       	eor	r1, r1
   cap.cval /= U_VCC;			// Factors are computed for U_VCC
}
#ifndef INHIBIT_SLEEP_MODE
/* Interrupt Service Routine for timer1 Overflow */
 ISR(TIMER1_OVF_vect, ISR_BLOCK)
{
    3026:	8f 93       	push	r24
    3028:	9f 93       	push	r25
    302a:	b5 99       	sbic	0x16, 5	; 22
    302c:	04 c0       	rjmp	.+8      	; 0x3036 <__vector_13+0x1a>
    302e:	80 91 70 01 	lds	r24, 0x0170
    3032:	81 11       	cpse	r24, r1
 if ((!(TI1_INT_FLAGS & (1<<ICF1)) && (unfinished !=0)) || ((TI1_INT_FLAGS & (1<<ICF1)) && (ICR1 < 250))) {
    3034:	09 c0       	rjmp	.+18     	; 0x3048 <__vector_13+0x2c>
    3036:	b5 9b       	sbis	0x16, 5	; 22
    3038:	10 c0       	rjmp	.+32     	; 0x305a <__vector_13+0x3e>
    303a:	80 91 86 00 	lds	r24, 0x0086
    303e:	90 91 87 00 	lds	r25, 0x0087
    3042:	8a 3f       	cpi	r24, 0xFA	; 250
    3044:	91 05       	cpc	r25, r1
    3046:	48 f4       	brcc	.+18     	; 0x305a <__vector_13+0x3e>
    3048:	80 91 51 01 	lds	r24, 0x0151
    304c:	90 91 52 01 	lds	r25, 0x0152
    3050:	01 96       	adiw	r24, 0x01	; 1
    // Capture Event not pending or (Capture Event pending and ICR1 < 250
    // the ICR1H is buffered and can not examined alone, we must read the ICR1L first (with ICR1 access) !
   ovcnt16++;				// count Overflow
    3052:	90 93 52 01 	sts	0x0152, r25
    3056:	80 93 51 01 	sts	0x0151, r24
    305a:	9f 91       	pop	r25
    305c:	8f 91       	pop	r24
    305e:	0f 90       	pop	r0
    3060:	0f be       	out	0x3f, r0	; 63
    3062:	0f 90       	pop	r0
 }
}
    3064:	1f 90       	pop	r1
    3066:	18 95       	reti

00003068 <__vector_10>:
    3068:	1f 92       	push	r1
    306a:	0f 92       	push	r0
    306c:	0f b6       	in	r0, 0x3f	; 63
    306e:	0f 92       	push	r0
    3070:	11 24       	eor	r1, r1
/* Interrupt Service Routine for timer1 capture event (Comparator) */
 ISR(TIMER1_CAPT_vect, ISR_BLOCK)
{
    3072:	8f 93       	push	r24
    3074:	9f 93       	push	r25
    3076:	10 92 70 01 	sts	0x0170, r1
    307a:	b0 9b       	sbis	0x16, 0	; 22
    307c:	10 c0       	rjmp	.+32     	; 0x309e <__vector_10+0x36>
    307e:	80 91 86 00 	lds	r24, 0x0086
 unfinished = 0;			// clear unfinished flag
    3082:	90 91 87 00 	lds	r25, 0x0087
 // With unfinished set to 0, we prevent further counting the Overflow.s
 // Is already a Overflow detected?
 if((TI1_INT_FLAGS & (1<<TOV1))) {	// counter overflow, 65.536 ms @ 1MHz, 8.192ms @ 8MHz
    3086:	8a 3f       	cpi	r24, 0xFA	; 250
   //there is already a Overflow detected, before or after the capture event?
   // ICR1H is buffered and can not examined alone, we must read the ICR1L first (with ICR1 access) !
   if (ICR1 < 250) {
    3088:	91 05       	cpc	r25, r1
    308a:	48 f4       	brcc	.+18     	; 0x309e <__vector_10+0x36>
    308c:	80 91 51 01 	lds	r24, 0x0151
    3090:	90 91 52 01 	lds	r25, 0x0152
    3094:	01 96       	adiw	r24, 0x01	; 1
     //  Yes, Input Capture Counter is low, Overflow has occured before the capture event
     ovcnt16++;				// count Overflow
    3096:	90 93 52 01 	sts	0x0152, r25
    309a:	80 93 51 01 	sts	0x0151, r24
    309e:	9f 91       	pop	r25
    30a0:	8f 91       	pop	r24
    30a2:	0f 90       	pop	r0
    30a4:	0f be       	out	0x3f, r0	; 63
    30a6:	0f 90       	pop	r0
   }
 }
}
    30a8:	1f 90       	pop	r1
    30aa:	18 95       	reti

000030ac <GetRLmultip>:

 .section .text

; unsigned int GetRLmultip(unsigned int cvolt) 
GetRLmultip:
	push    r0
    30ac:	0f 92       	push	r0
 	ldi	r18, hi8(RL_Tab_Beginn) 	; 1
    30ae:	21 e0       	ldi	r18, 0x01	; 1
 	cpi	r24, lo8(RL_Tab_Beginn)		; 44
    30b0:	8c 32       	cpi	r24, 0x2C	; 44
 	cpc	r25, r18
    30b2:	92 07       	cpc	r25, r18
 	brcc	is_bigger		;if (cvolt >= RL_Tab_Beginn) 
    30b4:	10 f4       	brcc	.+4      	; 0x30ba <is_bigger>
        ldi	r24, lo8(RL_Tab_Beginn)		; uvolt = 0 = RL_Tab_Begin - RL_Tab_Begin
    30b6:	8c e2       	ldi	r24, 0x2C	; 44
        ldi	r25, hi8(RL_Tab_Beginn)		; limit to begin of table
    30b8:	91 e0       	ldi	r25, 0x01	; 1

000030ba <is_bigger>:
is_bigger:
 	subi	r24, lo8(RL_Tab_Beginn)	;  uvolt = cvolt - RL_Tab_Beginn;
    30ba:	8c 52       	subi	r24, 0x2C	; 44
 	sbci	r25, hi8(RL_Tab_Beginn)	; 1
    30bc:	91 40       	sbci	r25, 0x01	; 1

 	ldi	r22, lo8(RL_Tab_Abstand)	; 25
    30be:	69 e1       	ldi	r22, 0x19	; 25
 	ldi	r23, hi8(RL_Tab_Abstand)	; 0
    30c0:	70 e0       	ldi	r23, 0x00	; 0
 	ACALL	__udivmodhi4 	;tabind = uvolt / RL_Tab_Abstand;
    30c2:	0e 94 46 31 	call	0x628c	; 0x628c <__udivmodhi4>
;  r24:25 tabres = uvolt % RL_Tab_Abstand;  // r25 allways zero
;  tabres = RL_Tab_Abstand - tabres;
 	ldi	r25, RL_Tab_Abstand	; 25
    30c6:	99 e1       	ldi	r25, 0x19	; 25
 	cpi	r22, ((RL_Tab_Length/RL_Tab_Abstand)-1)	; if (tabind > ((RL_Tab_Length/RL_Tab_Abstand)-1)) 
    30c8:	6b 32       	cpi	r22, 0x2B	; 43
 	brcs	is_lower 
    30ca:	10 f0       	brcs	.+4      	; 0x30d0 <is_lower>
	mov	r25, r24		; tabres = 0 = (RL_Tab_Abstand==tabres) - tabres
    30cc:	98 2f       	mov	r25, r24
 	ldi	r22, (RL_Tab_Length/RL_Tab_Abstand)-1; tabind = (RL_Tab_Length/RL_Tab_Abstand)-1;// limit to end of table
    30ce:	6b e2       	ldi	r22, 0x2B	; 43

000030d0 <is_lower>:
is_lower:
 	sub	r25, r24		; tabres = RL_Tab_Abstand - tabres;
    30d0:	98 1b       	sub	r25, r24

	; r22 = tabind , r25 = tabres

	LDIZ	RLtab
    30d2:	ed eb       	ldi	r30, 0xBD	; 189
    30d4:	f2 e0       	ldi	r31, 0x02	; 2
	add	r30, r22		; + tabind
    30d6:	e6 0f       	add	r30, r22
	adc	r31, zero_reg
    30d8:	f1 1d       	adc	r31, r1
	add	r30, r22		; + tabind (word access)
    30da:	e6 0f       	add	r30, r22
	adc	r31, zero_reg
    30dc:	f1 1d       	adc	r31, r1

#ifdef MEM_EEPROM
        push	r25			; save tabres
    30de:	9f 93       	push	r25
	movw	r24,r30
    30e0:	cf 01       	movw	r24, r30
	ACALL	eeprom_read_byte	; y1 = MEM_read_word(&RLtab[tabind]);
    30e2:	0e 94 4b 32 	call	0x6496	; 0x6496 <__eerd_byte_m328p>
	mov	r20, r24
    30e6:	48 2f       	mov	r20, r24
	adiw	r30, 1			; address of high order byte
    30e8:	31 96       	adiw	r30, 0x01	; 1
	movw	r24,r30
    30ea:	cf 01       	movw	r24, r30
	ACALL	eeprom_read_byte	; y1 = MEM_read_word(&RLtab[tabind]);
    30ec:	0e 94 4b 32 	call	0x6496	; 0x6496 <__eerd_byte_m328p>
	mov	r21, r24
    30f0:	58 2f       	mov	r21, r24
	adiw	r30, 1			; tabind+1
    30f2:	31 96       	adiw	r30, 0x01	; 1
	movw	r24,r30
    30f4:	cf 01       	movw	r24, r30
	ACALL	eeprom_read_byte	; y2 = MEM_read_word(&RLtab[tabind+1]);
    30f6:	0e 94 4b 32 	call	0x6496	; 0x6496 <__eerd_byte_m328p>
	mov	r18, r24
    30fa:	28 2f       	mov	r18, r24
	adiw	r30, 1			; address of high order byte
    30fc:	31 96       	adiw	r30, 0x01	; 1
	movw	r24,r30
    30fe:	cf 01       	movw	r24, r30
	ACALL	eeprom_read_byte	; y2 = MEM_read_word(&RLtab[tabind+1]);
    3100:	0e 94 4b 32 	call	0x6496	; 0x6496 <__eerd_byte_m328p>
	mov	r19, r24
    3104:	38 2f       	mov	r19, r24
        pop	r22			; restore tabres in r22
    3106:	6f 91       	pop	r22
 	lpm	r19, Z+
 	mov	r22, r25
#endif
;  return ( ((y1 - y2) * tabres + (RL_Tab_Abstand/2)) / RL_Tab_Abstand + y2); // interpolate table
;; 	ldi	r23, 0x00	; hi8(tabres) allways zero
 	sub	r20, r18	; y1 - y2
    3108:	42 1b       	sub	r20, r18
 	sbc	r21, r19 	; maximum of 3466 need two registers
    310a:	53 0b       	sbc	r21, r19

 	mul	r22, r20	;lo8(tabres) * lo8(y1-y2)
    310c:	64 9f       	mul	r22, r20
 	movw	r24, r0		; r24:25 = *
    310e:	c0 01       	movw	r24, r0
 	mul	r22, r21	;lo8(tabres) * hi8(y1-y2)
    3110:	65 9f       	mul	r22, r21
 	add	r25, r0		; r25 + lo8(*)
    3112:	90 0d       	add	r25, r0
;; 	mul	r23, r20	;hi8(tabres) * lo8(y1-y2) , allways zero
;; 	add	r25, r0		; r25 + lo8(*)
 	eor	r1, r1
    3114:	11 24       	eor	r1, r1
 	adiw	r24, (RL_Tab_Abstand/2)		; 12
    3116:	0c 96       	adiw	r24, 0x0c	; 12
 	ldi	r22, lo8(RL_Tab_Abstand)	; 25
    3118:	69 e1       	ldi	r22, 0x19	; 25
 	ldi	r23, hi8(RL_Tab_Abstand)	; 0
    311a:	70 e0       	ldi	r23, 0x00	; 0
 	ACALL	__udivmodhi4	; ((y1 - y2) * tabres + (RL_Tab_Abstand/2)) / RL_Tab_Abstand 
    311c:	0e 94 46 31 	call	0x628c	; 0x628c <__udivmodhi4>
 	add	r22, r18			; + y2
    3120:	62 0f       	add	r22, r18
 	adc	r23, r19
    3122:	73 1f       	adc	r23, r19
 	movw	r24, r22
    3124:	cb 01       	movw	r24, r22
	pop	r0
    3126:	0f 90       	pop	r0
 	ret
    3128:	08 95       	ret

0000312a <Calibrate_UR>:
#include "Transistortester.h"
void Calibrate_UR(void) {
    312a:	a0 e0       	ldi	r26, 0x00	; 0
    312c:	b0 e0       	ldi	r27, 0x00	; 0
    312e:	eb e9       	ldi	r30, 0x9B	; 155
    3130:	f8 e1       	ldi	r31, 0x18	; 24
    3132:	0c 94 d6 31 	jmp	0x63ac	; 0x63ac <__prologue_saves__+0xc>
  uint16_t sum_rp;	// sum of 3 Pin voltages with 680 Ohm load
  uint16_t u680;	// 3 * (Voltage at 680 Ohm)
#endif


  adc_vcc_reference = U_VCC;     // set initial VCC Voltage to 5000mV
    3136:	88 e8       	ldi	r24, 0x88	; 136
    3138:	93 e1       	ldi	r25, 0x13	; 19
    313a:	90 93 1f 01 	sts	0x011F, r25
    313e:	80 93 1e 01 	sts	0x011E, r24
  ADCconfig.U_AVCC = adc_vcc_reference;	// set ADC to normal VCC value
    3142:	90 93 30 01 	sts	0x0130, r25
    3146:	80 93 2f 01 	sts	0x012F, r24
  ADCconfig.Samples = R_ANZ_MESS;	// set number of ADC reads near to maximum
    314a:	8e eb       	ldi	r24, 0xBE	; 190
    314c:	80 93 2b 01 	sts	0x012B, r24
                                        //############################################
#if FLASHEND > 0x1fff
  uint16_t mv2500;
  ADC_PORT = TXD_VAL;                   // switch to 0V
    3150:	18 b8       	out	0x08, r1	; 8
  ADC_DDR = (1<<TPRELAY) | TXD_MSK;       // switch pin with 2.5V reference to GND
    3152:	80 e1       	ldi	r24, 0x10	; 16
    3154:	87 b9       	out	0x07, r24	; 7
  wait20us();			// switch only short time, so that the relais do not really switch
    3156:	0e 94 a2 04 	call	0x944	; 0x944 <wait20us>
  ADC_DDR =  TXD_MSK;		// switch pin with reference back to input
    315a:	17 b8       	out	0x07, r1	; 7
  mv2500 = W5msReadADC(TPREF); // read voltage of 2.5V precision reference
    315c:	84 e0       	ldi	r24, 0x04	; 4
    315e:	0e 94 de 04 	call	0x9bc	; 0x9bc <W5msReadADC>
    3162:	ac 01       	movw	r20, r24
  if ((mv2500 > 2250) && (mv2500 < 2750)) {
    3164:	8b 5c       	subi	r24, 0xCB	; 203
    3166:	98 40       	sbci	r25, 0x08	; 8
    3168:	83 3f       	cpi	r24, 0xF3	; 243
    316a:	91 40       	sbci	r25, 0x01	; 1
    316c:	a0 f4       	brcc	.+40     	; 0x3196 <Calibrate_UR+0x6c>
     // precision voltage reference connected, update U_AVCC
     WithReference = 1;
    316e:	81 e0       	ldi	r24, 0x01	; 1
    3170:	80 93 3a 01 	sts	0x013A, r24
     adc_vcc_reference = (unsigned long)((unsigned long)ADCconfig.U_AVCC * 2495) / mv2500;
    3174:	20 91 2f 01 	lds	r18, 0x012F
    3178:	30 91 30 01 	lds	r19, 0x0130
    317c:	af eb       	ldi	r26, 0xBF	; 191
    317e:	b9 e0       	ldi	r27, 0x09	; 9
    3180:	0e 94 ab 31 	call	0x6356	; 0x6356 <__umulhisi3>
    3184:	9a 01       	movw	r18, r20
    3186:	40 e0       	ldi	r20, 0x00	; 0
    3188:	50 e0       	ldi	r21, 0x00	; 0
    318a:	0e 94 6d 31 	call	0x62da	; 0x62da <__udivmodsi4>
    318e:	30 93 1f 01 	sts	0x011F, r19
    3192:	20 93 1e 01 	sts	0x011E, r18
  }
  ADCconfig.U_AVCC = adc_vcc_reference;	// set ADC to normal VCC value
    3196:	80 91 1e 01 	lds	r24, 0x011E
    319a:	90 91 1f 01 	lds	r25, 0x011F
    319e:	90 93 30 01 	sts	0x0130, r25
    31a2:	80 93 2f 01 	sts	0x012F, r24
#endif
#ifdef WITH_AUTO_REF
  (void) ReadADC(MUX_INT_REF);	// read reference voltage 
    31a6:	8e e0       	ldi	r24, 0x0E	; 14
    31a8:	0e 94 e2 04 	call	0x9c4	; 0x9c4 <ReadADC>
  ref_mv = W5msReadADC(MUX_INT_REF);	// read reference voltage 
    31ac:	8e e0       	ldi	r24, 0x0E	; 14
    31ae:	0e 94 de 04 	call	0x9bc	; 0x9bc <W5msReadADC>
    31b2:	90 93 34 01 	sts	0x0134, r25
    31b6:	80 93 33 01 	sts	0x0133, r24
#else
  ref_mv = DEFAULT_BAND_GAP;    // set to default Reference Voltage
#endif
  (void) RefVoltage();			//compute RHmultip = f(reference voltage)
    31ba:	0e 94 b2 05 	call	0xb64	; 0xb64 <RefVoltage>
                                        // ref_mv_offs, ADCconfig.U_Bandgap
                                        //############################################

  EntladePins();	// make sure, that no voltage is left from capacitors
    31be:	96 db       	rcall	.-2260   	; 0x28ec <EntladePins>
    31c0:	18 b8       	out	0x08, r1	; 8
#ifdef AUTO_CAL
  // measurement of internal resistance of the ADC port outputs switched to GND
  ADC_PORT =  TXD_VAL;	//ADC-Ports to GND
    31c2:	c1 e0       	ldi	r28, 0x01	; 1
  ADC_DDR = 1<<TP1 | TXD_MSK;	//ADC-Pin  1 to output 0V
    31c4:	c7 b9       	out	0x07, r28	; 7
    31c6:	85 e1       	ldi	r24, 0x15	; 21
 #ifdef PULLUP_DISABLE
  R_PORT = (1<<PIN_RL1) | (1<<PIN_RL2) | (1<<PIN_RL3);		//R_L-PORTs to VCC
    31c8:	85 b9       	out	0x05, r24	; 5
    31ca:	c4 b9       	out	0x04, r28	; 4
 #else
  R_PORT = 1<<PIN_RL1;		//R_L-PORT 1 to VCC
 #endif
  R_DDR = 1<<PIN_RL1;		//Pin 1 to output and over R_L to VCC
    31cc:	80 e0       	ldi	r24, 0x00	; 0
  sum_rm = W5msReadADC(TP1);
    31ce:	0e 94 de 04 	call	0x9bc	; 0x9bc <W5msReadADC>
    31d2:	7c 01       	movw	r14, r24
    31d4:	02 e0       	ldi	r16, 0x02	; 2
// - - - - - - - 
  ADC_DDR = 1<<TP2 | TXD_MSK;	//ADC-Pin 2 to output 0V
    31d6:	07 b9       	out	0x07, r16	; 7
    31d8:	14 e0       	ldi	r17, 0x04	; 4
 #ifndef PULLUP_DISABLE
  R_PORT =  1<<PIN_RL2;		//R_L-PORT 2 to VCC
 #endif
  R_DDR = 1<<PIN_RL2;		//Pin 2 to output and over R_L to VCC
    31da:	14 b9       	out	0x04, r17	; 4
    31dc:	81 e0       	ldi	r24, 0x01	; 1
  sum_rm += W5msReadADC(TP2);
    31de:	0e 94 de 04 	call	0x9bc	; 0x9bc <W5msReadADC>
    31e2:	e8 0e       	add	r14, r24
    31e4:	f9 1e       	adc	r15, r25
    31e6:	17 b9       	out	0x07, r17	; 7
// - - - - - - - 
  ADC_DDR = 1<<TP3 | TXD_MSK;	//ADC-Pin 3 to output 0V
    31e8:	80 e1       	ldi	r24, 0x10	; 16
 #ifndef PULLUP_DISABLE
  R_PORT =  1<<PIN_RL3;		//R_L-PORT 3 to VCC
 #endif
  R_DDR = 1<<PIN_RL3;		//Pin 3 to output and over R_L to VCC
    31ea:	d8 2e       	mov	r13, r24
    31ec:	d4 b8       	out	0x04, r13	; 4
    31ee:	82 e0       	ldi	r24, 0x02	; 2
  sum_rm += W5msReadADC(TP3);	//add all three values
    31f0:	0e 94 de 04 	call	0x9bc	; 0x9bc <W5msReadADC>
    31f4:	e8 0e       	add	r14, r24
    31f6:	f9 1e       	adc	r15, r25
    31f8:	15 b8       	out	0x05, r1	; 5
// - - - - - - - 

  // measurement of internal resistance of the ADC port output switched to VCC
  R_PORT = 0;			// R-Ports to GND
    31fa:	c8 b9       	out	0x08, r28	; 8
  ADC_PORT = 1<<TP1 | TXD_VAL;	//ADC-Port 1 to VCC
    31fc:	c7 b9       	out	0x07, r28	; 7
  ADC_DDR = 1<<TP1 | TXD_MSK;	//ADC-Pin  1 to output 0V
    31fe:	c4 b9       	out	0x04, r28	; 4
  R_DDR = 1<<PIN_RL1;		//Pin 1 to output and over R_L to GND
    3200:	80 e0       	ldi	r24, 0x00	; 0
  sum_rp = vcc_diff(W5msReadADC(TP1));
    3202:	0e 94 de 04 	call	0x9bc	; 0x9bc <W5msReadADC>
    3206:	0e 94 46 05 	call	0xa8c	; 0xa8c <vcc_diff>
    320a:	ec 01       	movw	r28, r24
    320c:	08 b9       	out	0x08, r16	; 8
// - - - - - - - 
      
  ADC_PORT = 1<<TP2 | TXD_VAL;	//ADC-Port 2 to VCC
    320e:	07 b9       	out	0x07, r16	; 7
  ADC_DDR = 1<<TP2 | TXD_MSK;	//ADC-Pin  2 to output 0V
    3210:	14 b9       	out	0x04, r17	; 4
  R_DDR = 1<<PIN_RL2;		//Pin 2 to output and over R_L to GND
    3212:	81 e0       	ldi	r24, 0x01	; 1
  sum_rp += vcc_diff(W5msReadADC(TP2));
    3214:	0e 94 de 04 	call	0x9bc	; 0x9bc <W5msReadADC>
    3218:	0e 94 46 05 	call	0xa8c	; 0xa8c <vcc_diff>
    321c:	c8 0f       	add	r28, r24
    321e:	d9 1f       	adc	r29, r25
    3220:	18 b9       	out	0x08, r17	; 8
// - - - - - - - 

  ADC_PORT = 1<<TP3 | TXD_VAL;	//ADC-Port 3 to VCC
    3222:	17 b9       	out	0x07, r17	; 7
  ADC_DDR = 1<<TP3 | TXD_MSK;	//ADC-Pin  3 to output 0V
    3224:	d4 b8       	out	0x04, r13	; 4
  R_DDR = 1<<PIN_RL3;		//Pin 3 to output and over R_L to GND
    3226:	82 e0       	ldi	r24, 0x02	; 2
  sum_rp += vcc_diff(W5msReadADC(TP3));
    3228:	0e 94 de 04 	call	0x9bc	; 0x9bc <W5msReadADC>
    322c:	0e 94 46 05 	call	0xa8c	; 0xa8c <vcc_diff>
    3230:	c8 0f       	add	r28, r24
    3232:	d9 1f       	adc	r29, r25
    3234:	17 b8       	out	0x07, r1	; 7
// - - - - - - - 
  ADC_DDR =  TXD_MSK;	//ADC-Pins to input
    3236:	18 b8       	out	0x08, r1	; 8
  ADC_PORT =  TXD_VAL;	//ADC-Ports to GND
    3238:	14 b8       	out	0x04, r1	; 4
  R_DDR   = 0;
    323a:	80 91 2f 01 	lds	r24, 0x012F

  u680 = ((ADCconfig.U_AVCC * 3) - sum_rm - sum_rp);	//three times the voltage at the 680 Ohm
    323e:	90 91 30 01 	lds	r25, 0x0130
    3242:	4c 01       	movw	r8, r24
    3244:	88 0c       	add	r8, r8
    3246:	99 1c       	adc	r9, r9
    3248:	88 0e       	add	r8, r24
    324a:	99 1e       	adc	r9, r25
    324c:	8e 18       	sub	r8, r14
    324e:	9f 08       	sbc	r9, r15
    3250:	8c 1a       	sub	r8, r28
    3252:	9d 0a       	sbc	r9, r29
    3254:	a1 2c       	mov	r10, r1
  pin_rmi = (unsigned long)((unsigned long)sum_rm * (unsigned long)R_L_VAL) / (unsigned long)u680;
    3256:	b1 2c       	mov	r11, r1
    3258:	97 01       	movw	r18, r14
    325a:	a0 e9       	ldi	r26, 0x90	; 144
    325c:	ba e1       	ldi	r27, 0x1A	; 26
    325e:	0e 94 ab 31 	call	0x6356	; 0x6356 <__umulhisi3>
    3262:	a5 01       	movw	r20, r10
    3264:	94 01       	movw	r18, r8
    3266:	0e 94 6d 31 	call	0x62da	; 0x62da <__udivmodsi4>
    326a:	69 01       	movw	r12, r18
    326c:	7a 01       	movw	r14, r20
    326e:	30 93 39 01 	sts	0x0139, r19
    3272:	20 93 38 01 	sts	0x0138, r18
    3276:	9e 01       	movw	r18, r28
//  adcmv[2] = pin_rm;	// for last output in row 2
  pin_rpl = (unsigned long)((unsigned long)sum_rp * (unsigned long)R_L_VAL) / (unsigned long)u680;
    3278:	a0 e9       	ldi	r26, 0x90	; 144
    327a:	ba e1       	ldi	r27, 0x1A	; 26
    327c:	0e 94 ab 31 	call	0x6356	; 0x6356 <__umulhisi3>
    3280:	a5 01       	movw	r20, r10
    3282:	94 01       	movw	r18, r8
    3284:	0e 94 6d 31 	call	0x62da	; 0x62da <__udivmodsi4>
    3288:	30 93 32 01 	sts	0x0132, r19
    328c:	20 93 31 01 	sts	0x0131, r18
    3290:	20 57       	subi	r18, 0x70	; 112
  resis680pl = pin_rpl + R_L_VAL;
    3292:	35 4e       	sbci	r19, 0xE5	; 229
    3294:	30 93 1c 01 	sts	0x011C, r19
    3298:	20 93 1b 01 	sts	0x011B, r18
    329c:	80 e7       	ldi	r24, 0x70	; 112
  resis680mi = pin_rmi + R_L_VAL;
    329e:	c8 1a       	sub	r12, r24
    32a0:	85 ee       	ldi	r24, 0xE5	; 229
    32a2:	d8 0a       	sbc	r13, r24
    32a4:	d0 92 15 01 	sts	0x0115, r13
    32a8:	c0 92 14 01 	sts	0x0114, r12
    32ac:	8e e1       	ldi	r24, 0x1E	; 30
#endif

  ADCconfig.Samples = ANZ_MESS;	// set to configured number of ADC samples
    32ae:	80 93 2b 01 	sts	0x012B, r24
    32b2:	cd b7       	in	r28, 0x3d	; 61
 } 
    32b4:	de b7       	in	r29, 0x3e	; 62
    32b6:	ec e0       	ldi	r30, 0x0C	; 12
    32b8:	0c 94 f2 31 	jmp	0x63e4	; 0x63e4 <__epilogue_restores__+0xc>

000032bc <show_resis>:
void show_resis(byte pin1, byte pin2, byte how)
// can be invoked both from main() and from show_Resis13()
// pin1 and pin2 are resistor's pin numbers, but ResistorList[0] should also be correctly filled
// assumes resistance has already been measured, but will do inductance measurements as appropriate
// "how" flag tells how to show the results: if set [R] or [RL] will be shown in top right corner
{
    32bc:	ff 92       	push	r15
    32be:	0f 93       	push	r16
    32c0:	1f 93       	push	r17
    32c2:	cf 93       	push	r28
    32c4:	df 93       	push	r29
    32c6:	c8 2f       	mov	r28, r24
    32c8:	d6 2f       	mov	r29, r22
    32ca:	f4 2e       	mov	r15, r20
 #ifdef RMETER_WITH_L
           lcd_testpin(pin1);
    32cc:	0e 94 64 01 	call	0x2c8	; 0x2c8 <lcd_testpin>
           lcd_MEM_string(Resistor_str);	// -[==]-
    32d0:	86 e2       	ldi	r24, 0x26	; 38
    32d2:	91 e0       	ldi	r25, 0x01	; 1
    32d4:	0e 94 d1 01 	call	0x3a2	; 0x3a2 <lcd_fix_string>
           lcd_refresh();
	   ReadInductance();	// measure inductance, possible only with R<2.1k
    32d8:	04 d2       	rcall	.+1032   	; 0x36e2 <ReadInductance>
    32da:	6d 2f       	mov	r22, r29

  #ifdef SamplingADC
           sampling_lc(pin1,pin2);    // measure inductance using resonance method
    32dc:	8c 2f       	mov	r24, r28
    32de:	0e 94 bb 29 	call	0x5376	; 0x5376 <sampling_lc>
    32e2:	c1 e0       	ldi	r28, 0x01	; 1

           // draw first line: the pin numbers, RR and possibly LL symbol, and possibly [R] or [RL]
           byte lclx0=(lc_lx==0);
    32e4:	00 91 b6 01 	lds	r16, 0x01B6
    32e8:	10 91 b7 01 	lds	r17, 0x01B7
    32ec:	20 91 b8 01 	lds	r18, 0x01B8
    32f0:	30 91 b9 01 	lds	r19, 0x01B9
    32f4:	01 15       	cp	r16, r1
    32f6:	11 05       	cpc	r17, r1
    32f8:	21 05       	cpc	r18, r1
    32fa:	31 05       	cpc	r19, r1
    32fc:	09 f0       	breq	.+2      	; 0x3300 <show_resis+0x44>
    32fe:	c0 e0       	ldi	r28, 0x00	; 0
    3300:	80 91 01 01 	lds	r24, 0x0101
           if (inductor_lpre < 0 || !lclx0) 
    3304:	87 fd       	sbrc	r24, 7
    3306:	02 c0       	rjmp	.+4      	; 0x330c <show_resis+0x50>
    3308:	c1 11       	cpse	r28, r1
    330a:	04 c0       	rjmp	.+8      	; 0x3314 <show_resis+0x58>
    330c:	82 e2       	ldi	r24, 0x22	; 34
  #else 
           if (inductor_lpre < 0)
  #endif

           {
              lcd_MEM_string(Inductor_str+1);            // "LL-"
    330e:	91 e0       	ldi	r25, 0x01	; 1
    3310:	0e 94 d1 01 	call	0x3a2	; 0x3a2 <lcd_fix_string>
    3314:	8d 2f       	mov	r24, r29
           }
           lcd_testpin(pin2);
    3316:	0e 94 64 01 	call	0x2c8	; 0x2c8 <lcd_testpin>
    331a:	c1 11       	cpse	r28, r1

           // second line: measured R value (but that goes on first line if lc_lx!=0), and measured inductance, if applicable

 #ifdef SamplingADC
           if (!lclx0) {  /* inductance measured by sampling method */
    331c:	06 c0       	rjmp	.+12     	; 0x332a <show_resis+0x6e>
    331e:	0e 94 67 01 	call	0x2ce	; 0x2ce <lcd_space>
              lcd_space();
    3322:	80 91 56 01 	lds	r24, 0x0156
              RvalOut(ResistorList[0]);		// show Resistance, probably ESR, still on first line
    3326:	0e 94 f3 02 	call	0x5e6	; 0x5e6 <RvalOut>
    332a:	ff 20       	and	r15, r15
           }
  #endif
 
  #if FLASHEND > 0x3fff
           if (how) {
    332c:	49 f0       	breq	.+18     	; 0x3340 <show_resis+0x84>
    332e:	80 91 3b 01 	lds	r24, 0x013B
              // still need to write "[RL]" or "[R]" at the end of first line, if it fits
              if (_lcd_column<=LCD_LINE_LENGTH-4) {
    3332:	8d 30       	cpi	r24, 0x0D	; 13
    3334:	28 f4       	brcc	.+10     	; 0x3340 <show_resis+0x84>
    3336:	90 e0       	ldi	r25, 0x00	; 0
                 lcd_MEM_string(RL_METER_str+(_lcd_column-6));	// " [R]" or "[RL]"
    3338:	84 5c       	subi	r24, 0xC4	; 196
    333a:	9c 4f       	sbci	r25, 0xFC	; 252
    333c:	0e 94 d1 01 	call	0x3a2	; 0x3a2 <lcd_fix_string>
    3340:	80 e0       	ldi	r24, 0x00	; 0
           }
  #else
           lcd_clear_line();
  #endif
//           lcd_line2();
           lcd_next_line_wait(0);
    3342:	0e 94 74 02 	call	0x4e8	; 0x4e8 <lcd_next_line_wait>
    3346:	c1 11       	cpse	r28, r1
  #ifdef SamplingADC
           if (!lclx0) {  /* Frequency found */
    3348:	1b c0       	rjmp	.+54     	; 0x3380 <show_resis+0xc4>
    334a:	60 91 b6 01 	lds	r22, 0x01B6
//              lcd_next_line(0);
              DisplayValue(lc_lx,lc_lpre,'H',3);	// output inductance
    334e:	70 91 b7 01 	lds	r23, 0x01B7
    3352:	80 91 b8 01 	lds	r24, 0x01B8
    3356:	90 91 b9 01 	lds	r25, 0x01B9
    335a:	03 e0       	ldi	r16, 0x03	; 3
    335c:	28 e4       	ldi	r18, 0x48	; 72
    335e:	47 ef       	ldi	r20, 0xF7	; 247
    3360:	0e 94 76 03 	call	0x6ec	; 0x6ec <DisplayValue>
    3364:	85 e3       	ldi	r24, 0x35	; 53
              lcd_MEM2_string(iF_str);		// " if "
    3366:	91 e0       	ldi	r25, 0x01	; 1
    3368:	0e 94 d1 01 	call	0x3a2	; 0x3a2 <lcd_fix_string>
    336c:	8d e4       	ldi	r24, 0x4D	; 77
              uint16_t lc_cpar;    // value of parallel capacitor used for calculating inductance, in pF
              lc_cpar=eeprom_read_word((uint16_t *)&lc_cpar_ee);
    336e:	93 e0       	ldi	r25, 0x03	; 3
    3370:	0e 94 53 32 	call	0x64a6	; 0x64a6 <__eerd_word_m328p>
    3374:	22 e0       	ldi	r18, 0x02	; 2
   #if (LCD_LINES<3) && (LCD_LINE_LENGTH<17)
              DisplayValue16(lc_cpar,-12,'F',2);	        // on 2-line dispaly show parallel capacitance with only 2 digits to make room for the '+' sign at the end of the line
    3376:	46 e4       	ldi	r20, 0x46	; 70
    3378:	64 ef       	ldi	r22, 0xF4	; 244
    337a:	0e 94 65 04 	call	0x8ca	; 0x8ca <DisplayValue16>
    337e:	1a c0       	rjmp	.+52     	; 0x33b4 <show_resis+0xf8>
    3380:	80 91 56 01 	lds	r24, 0x0156
   #endif
           } else 
  #endif
           {
//              lcd_next_line_wait(0);
              RvalOut(ResistorList[0]);		// show Resistance, probably ESR
    3384:	0e 94 f3 02 	call	0x5e6	; 0x5e6 <RvalOut>
    3388:	80 91 01 01 	lds	r24, 0x0101

              if (inductor_lpre < -2) {
    338c:	8e 3f       	cpi	r24, 0xFE	; 254
    338e:	94 f4       	brge	.+36     	; 0x33b4 <show_resis+0xf8>
    3390:	8f e4       	ldi	r24, 0x4F	; 79
                 // resistor has also inductance
                 lcd_MEM_string(Lis_str);		// "L="
    3392:	91 e0       	ldi	r25, 0x01	; 1
    3394:	0e 94 d1 01 	call	0x3a2	; 0x3a2 <lcd_fix_string>
    3398:	60 91 09 01 	lds	r22, 0x0109
                 DisplayValue(inductor_lx,inductor_lpre,'H',3);        // output classic inductance
    339c:	70 91 0a 01 	lds	r23, 0x010A
    33a0:	80 91 0b 01 	lds	r24, 0x010B
    33a4:	90 91 0c 01 	lds	r25, 0x010C
    33a8:	03 e0       	ldi	r16, 0x03	; 3
    33aa:	28 e4       	ldi	r18, 0x48	; 72
    33ac:	40 91 01 01 	lds	r20, 0x0101
    33b0:	0e 94 76 03 	call	0x6ec	; 0x6ec <DisplayValue>
    33b4:	80 91 ae 01 	lds	r24, 0x01AE

           }
           // third line: measured resonance frequency and Q, if applicable

  #ifdef SamplingADC
           if (lc_fx) {
    33b8:	90 91 af 01 	lds	r25, 0x01AF
    33bc:	a0 91 b0 01 	lds	r26, 0x01B0
    33c0:	b0 91 b1 01 	lds	r27, 0x01B1
    33c4:	89 2b       	or	r24, r25
    33c6:	8a 2b       	or	r24, r26
    33c8:	8b 2b       	or	r24, r27
    33ca:	f1 f0       	breq	.+60     	; 0x3408 <show_resis+0x14c>
    33cc:	80 e0       	ldi	r24, 0x00	; 0
              lcd_next_line_wait(0);
    33ce:	0e 94 74 02 	call	0x4e8	; 0x4e8 <lcd_next_line_wait>
    33d2:	60 91 ae 01 	lds	r22, 0x01AE
              DisplayValue(lc_fx,lc_fpre,'H',4);
    33d6:	70 91 af 01 	lds	r23, 0x01AF
    33da:	80 91 b0 01 	lds	r24, 0x01B0
    33de:	90 91 b1 01 	lds	r25, 0x01B1
    33e2:	04 e0       	ldi	r16, 0x04	; 4
    33e4:	28 e4       	ldi	r18, 0x48	; 72
    33e6:	40 e0       	ldi	r20, 0x00	; 0
    33e8:	0e 94 76 03 	call	0x6ec	; 0x6ec <DisplayValue>
    33ec:	80 e3       	ldi	r24, 0x30	; 48
              lcd_MEM2_string(zQ_str);		// "z Q="
    33ee:	91 e0       	ldi	r25, 0x01	; 1
    33f0:	0e 94 d1 01 	call	0x3a2	; 0x3a2 <lcd_fix_string>
    33f4:	23 e0       	ldi	r18, 0x03	; 3
              DisplayValue16(lc_qx, lc_qpre,' ',3);
    33f6:	40 e2       	ldi	r20, 0x20	; 32
    33f8:	6f ef       	ldi	r22, 0xFF	; 255
    33fa:	80 91 b4 01 	lds	r24, 0x01B4
    33fe:	90 91 b5 01 	lds	r25, 0x01B5
    3402:	0e 94 65 04 	call	0x8ca	; 0x8ca <DisplayValue16>
    3406:	07 c0       	rjmp	.+14     	; 0x3416 <show_resis+0x15a>
    3408:	80 e0       	ldi	r24, 0x00	; 0
           } else {
//  #if LCD_LINES>2
//              // make sure we clean the third line, but only if the display actually has a 3rd line
//              lcd_next_line(0);
//  #endif
              lcd_next_line(0);
    340a:	0e 94 54 02 	call	0x4a8	; 0x4a8 <lcd_next_line>
    340e:	80 91 3e 01 	lds	r24, 0x013E
	      if (last_line_used == 0) {
    3412:	81 11       	cpse	r24, r1
    3414:	02 c0       	rjmp	.+4      	; 0x341a <show_resis+0x15e>
    3416:	0e 94 4e 02 	call	0x49c	; 0x49c <lcd_clear_line>
                 lcd_clear_line();
    341a:	cd b7       	in	r28, 0x3d	; 61
 #else		/* without Inductance measurement, only show resistance */
           lcd_line2();
           inductor_lpre = -1;		// prevent ESR measurement because Inductance is not tested
           RvalOut(ResistorList[0]);	// show Resistance, no ESR
 #endif
}
    341c:	de b7       	in	r29, 0x3e	; 62
    341e:	e5 e0       	ldi	r30, 0x05	; 5
    3420:	0c 94 f9 31 	jmp	0x63f2	; 0x63f2 <__epilogue_restores__+0x1a>

00003424 <show_cap>:
    3424:	0f 93       	push	r16
#if FLASHEND > 0x3fff
void show_cap(uint8_t how)
#else
void show_cap_simple(void)
#endif
{
    3426:	1f 93       	push	r17
    3428:	cf 93       	push	r28
    342a:	df 93       	push	r29
    342c:	d8 2f       	mov	r29, r24
    342e:	0e 94 83 01 	call	0x306	; 0x306 <lcd_line1>
//     lcd_MEM_string(Capacitor);
  lcd_line1();
    3432:	80 91 83 01 	lds	r24, 0x0183
  lcd_testpin(cap.ca);               //Pin number 1
    3436:	0e 94 64 01 	call	0x2c8	; 0x2c8 <lcd_testpin>
    343a:	8b e6       	ldi	r24, 0x6B	; 107
  lcd_MEM_string(CapZeich);          // capacitor sign
    343c:	91 e0       	ldi	r25, 0x01	; 1
    343e:	0e 94 d1 01 	call	0x3a2	; 0x3a2 <lcd_fix_string>
    3442:	22 d5       	rcall	.+2628   	; 0x3e88 <GetVloss>
#if FLASHEND > 0x1fff
  uint8_t present_res;	// true, if resistor symbol is shown in Row 1
  uint8_t present_esr;
  uint8_t present_vloss;
  GetVloss();              
    3444:	60 91 83 01 	lds	r22, 0x0183
  cap.esr = GetESR(cap.cb, cap.ca);          // get ESR of capacitor
    3448:	80 91 84 01 	lds	r24, 0x0184
    344c:	75 d3       	rcall	.+1770   	; 0x3b38 <GetESR>
    344e:	90 93 80 01 	sts	0x0180, r25
    3452:	80 93 7f 01 	sts	0x017F, r24
    3456:	11 e0       	ldi	r17, 0x01	; 1
    3458:	8a 3f       	cpi	r24, 0xFA	; 250
    345a:	9f 4f       	sbci	r25, 0xFF	; 255

  present_esr = (cap.esr < 65530);
    345c:	08 f0       	brcs	.+2      	; 0x3460 <show_cap+0x3c>
    345e:	10 e0       	ldi	r17, 0x00	; 0
    3460:	c1 e0       	ldi	r28, 0x01	; 1
    3462:	20 91 81 01 	lds	r18, 0x0181
  present_vloss = (cap.v_loss != 0);
    3466:	30 91 82 01 	lds	r19, 0x0182
    346a:	23 2b       	or	r18, r19
    346c:	09 f4       	brne	.+2      	; 0x3470 <show_cap+0x4c>
    346e:	c0 e0       	ldi	r28, 0x00	; 0
    3470:	11 23       	and	r17, r17
    3472:	71 f0       	breq	.+28     	; 0x3490 <show_cap+0x6c>
    3474:	cc 23       	and	r28, r28
 #if (LCD_LINES > 2)
  present_res = present_esr; // show every time a well ESR value is detected, Vloss extra line
 #else
  #if FLASHEND > 0x3fff
  present_res = (present_esr  && (!present_vloss || how));
    3476:	41 f0       	breq	.+16     	; 0x3488 <show_cap+0x64>
    3478:	21 e0       	ldi	r18, 0x01	; 1
    347a:	30 e0       	ldi	r19, 0x00	; 0
    347c:	d1 11       	cpse	r29, r1
    347e:	02 c0       	rjmp	.+4      	; 0x3484 <show_cap+0x60>
    3480:	20 e0       	ldi	r18, 0x00	; 0
    3482:	30 e0       	ldi	r19, 0x00	; 0
    3484:	23 2b       	or	r18, r19
    3486:	21 f0       	breq	.+8      	; 0x3490 <show_cap+0x6c>
    3488:	87 e2       	ldi	r24, 0x27	; 39
  #else
  present_res = (present_esr  && (!present_vloss));
  #endif
  // show Vloss additionally in line 2 , or no Vloss
 #endif
  if (present_res)
    348a:	91 e0       	ldi	r25, 0x01	; 1
    348c:	0e 94 d1 01 	call	0x3a2	; 0x3a2 <lcd_fix_string>
  {
     lcd_MEM_string(Resistor_str+1);   // [=]-
    3490:	80 91 84 01 	lds	r24, 0x0184
    3494:	0e 94 64 01 	call	0x2c8	; 0x2c8 <lcd_testpin>
  }
#endif   /* FLASHEND > 0x1fff */
  lcd_testpin(cap.cb);               //Pin number 2
    3498:	dd 23       	and	r29, r29
    349a:	59 f0       	breq	.+22     	; 0x34b2 <show_cap+0x8e>
    349c:	90 91 3b 01 	lds	r25, 0x013B

#if FLASHEND > 0x1fff
 #if FLASHEND > 0x3fff
  if (how) {
    34a0:	8d e0       	ldi	r24, 0x0D	; 13
     // Vloss is allways shown in separate line
     lcd_spaces(LCD_LINE_LENGTH - 3 - _lcd_column);
    34a2:	89 1b       	sub	r24, r25
    34a4:	0e 94 6a 01 	call	0x2d4	; 0x2d4 <lcd_spaces>
    34a8:	87 e8       	ldi	r24, 0x87	; 135
    34aa:	90 e0       	ldi	r25, 0x00	; 0
    34ac:	0e 94 d1 01 	call	0x3a2	; 0x3a2 <lcd_fix_string>
     lcd_MEM2_string(CMETER_13_str);       // "[C]" at the end of line 1
    34b0:	15 c0       	rjmp	.+42     	; 0x34dc <show_cap+0xb8>
    34b2:	20 91 81 01 	lds	r18, 0x0181
    34b6:	30 91 82 01 	lds	r19, 0x0182
  } else {
 #endif  /* FLASHENF > 0x3fff */

 #if (LCD_LINES <= 2) /* Vloss in line 1 */
     if (cap.v_loss != 0) {
    34ba:	23 2b       	or	r18, r19
    34bc:	69 f0       	breq	.+26     	; 0x34d8 <show_cap+0xb4>
    34be:	82 e5       	ldi	r24, 0x52	; 82
    34c0:	91 e0       	ldi	r25, 0x01	; 1
    34c2:	0e 94 d1 01 	call	0x3a2	; 0x3a2 <lcd_fix_string>
        lcd_MEM_string(VLOSS_str);      // " Vloss=" 
    34c6:	22 e0       	ldi	r18, 0x02	; 2
    34c8:	45 e2       	ldi	r20, 0x25	; 37
    34ca:	6f ef       	ldi	r22, 0xFF	; 255
        DisplayValue16(cap.v_loss,-1,'%',2);
    34cc:	80 91 81 01 	lds	r24, 0x0181
    34d0:	90 91 82 01 	lds	r25, 0x0182
    34d4:	0e 94 65 04 	call	0x8ca	; 0x8ca <DisplayValue16>
    34d8:	0e 94 4e 02 	call	0x49c	; 0x49c <lcd_clear_line>
    34dc:	0e 94 8a 01 	call	0x314	; 0x314 <lcd_line2>
     }
 #endif
     lcd_clear_line();		// clear to end of line
    34e0:	60 91 77 01 	lds	r22, 0x0177
#else
  lcd_clear_line();		// clear to end of line
#endif  /* FLASHEND > 0x1fff */

// - - - - - - - - - - - - - - - - - - - - - -
  lcd_line2();                       //2. row 
    34e4:	70 91 78 01 	lds	r23, 0x0178
  DisplayValue(cap.cval_max,cap.cpre_max,'F',4);
    34e8:	80 91 79 01 	lds	r24, 0x0179
    34ec:	90 91 7a 01 	lds	r25, 0x017A
    34f0:	04 e0       	ldi	r16, 0x04	; 4
    34f2:	26 e4       	ldi	r18, 0x46	; 70
    34f4:	40 91 86 01 	lds	r20, 0x0186
    34f8:	0e 94 76 03 	call	0x6ec	; 0x6ec <DisplayValue>
    34fc:	11 23       	and	r17, r17
    34fe:	69 f0       	breq	.+26     	; 0x351a <show_cap+0xf6>
    3500:	8a e5       	ldi	r24, 0x5A	; 90

#if FLASHEND > 0x1fff
  if (present_esr) {
    3502:	91 e0       	ldi	r25, 0x01	; 1
    3504:	0e 94 d1 01 	call	0x3a2	; 0x3a2 <lcd_fix_string>
     lcd_MEM_string(ESR_str);        // " ESR="
    3508:	22 e0       	ldi	r18, 0x02	; 2
    350a:	44 e0       	ldi	r20, 0x04	; 4
    350c:	6e ef       	ldi	r22, 0xFE	; 254
     DisplayValue16(cap.esr,-2,LCD_CHAR_OMEGA,2);
    350e:	80 91 7f 01 	lds	r24, 0x017F
    3512:	90 91 80 01 	lds	r25, 0x0180
    3516:	0e 94 65 04 	call	0x8ca	; 0x8ca <DisplayValue16>
    351a:	0e 94 4e 02 	call	0x49c	; 0x49c <lcd_clear_line>
    351e:	dd 23       	and	r29, r29
  }
  lcd_clear_line();
    3520:	91 f0       	breq	.+36     	; 0x3546 <show_cap+0x122>
    3522:	cc 23       	and	r28, r28
        DisplayValue16(cap.v_loss,-1,'%',2);
     }
     lcd_clear_line();
 #else  /* only two lines */
  #if FLASHEND > 0x3fff
  if (how && present_vloss)
    3524:	81 f0       	breq	.+32     	; 0x3546 <show_cap+0x122>
    3526:	80 e0       	ldi	r24, 0x00	; 0
    3528:	0e 94 74 02 	call	0x4e8	; 0x4e8 <lcd_next_line_wait>
  {
     lcd_next_line_wait(0);		// show vloss after waiting
    352c:	83 e5       	ldi	r24, 0x53	; 83
    352e:	91 e0       	ldi	r25, 0x01	; 1
    3530:	0e 94 d1 01 	call	0x3a2	; 0x3a2 <lcd_fix_string>
     lcd_MEM_string(&VLOSS_str[1]);      // "Vloss=" 
    3534:	22 e0       	ldi	r18, 0x02	; 2
    3536:	45 e2       	ldi	r20, 0x25	; 37
    3538:	6f ef       	ldi	r22, 0xFF	; 255
     DisplayValue16(cap.v_loss,-1,'%',2);
    353a:	80 91 81 01 	lds	r24, 0x0181
    353e:	90 91 82 01 	lds	r25, 0x0182
    3542:	0e 94 65 04 	call	0x8ca	; 0x8ca <DisplayValue16>
    3546:	0e 94 4e 02 	call	0x49c	; 0x49c <lcd_clear_line>
    354a:	df 91       	pop	r29
  }
  lcd_clear_line();		// clear to end of line
    354c:	cf 91       	pop	r28
    354e:	1f 91       	pop	r17
  #endif
 #endif
#else
  lcd_clear_line();
#endif  /* FLASHEND > 0x1fff */
} /* end show_cap or show_cap_simple */
    3550:	0f 91       	pop	r16
    3552:	08 95       	ret

00003554 <Bat_update>:
    3554:	8f 70       	andi	r24, 0x0F	; 15
    3556:	51 f4       	brne	.+20     	; 0x356c <Bat_update+0x18>
    3558:	88 ec       	ldi	r24, 0xC8	; 200
#endif  /* FLASHEND > 0x3fff */

#if defined(POWER_OFF) && defined(BAT_CHECK)
// monitor Battery in line 4 or line2, if a two line display 
void Bat_update(uint8_t tt) {
  if((tt % 16) == 0) {
    355a:	0e 94 aa 04 	call	0x954	; 0x954 <sleep_5ms>
 #if (LCD_LINES > 3)
     lcd_line4();
     Battery_check();
 #else
     wait_about1s();	/* time delay before overwiting line2 with Bat= message */
    355e:	0e 94 8a 01 	call	0x314	; 0x314 <lcd_line2>
    3562:	0e 94 05 0b 	call	0x160a	; 0x160a <Battery_check>
  #if (LCD_LINES == 3)
     lcd_line3();	// use the last line for Bat=
  #else
     lcd_line2();	// use the last line for Bat=
    3566:	88 ec       	ldi	r24, 0xC8	; 200
  #endif
     Battery_check();
    3568:	0c 94 aa 04 	jmp	0x954	; 0x954 <sleep_5ms>
     wait_about1s();	/* time delay for reading the Bat= message */
    356c:	08 95       	ret

0000356e <Pwr_mode_check>:
    356e:	8f 30       	cpi	r24, 0x0F	; 15
    3570:	21 f4       	brne	.+8      	; 0x357a <Pwr_mode_check+0xc>
    3572:	90 91 35 01 	lds	r25, 0x0135
};	/* end Bat_update() */
#endif
#if defined(POWER_OFF)
uint8_t Pwr_mode_check(uint8_t tt) {
 #if FLASHEND > 0x1fff
 if ((tt == 15) && (DC_Pwr_mode == 1)) return(0);  // when DC_Mode, next cycle start with 0
    3576:	91 30       	cpi	r25, 0x01	; 1
    3578:	11 f0       	breq	.+4      	; 0x357e <Pwr_mode_check+0x10>
    357a:	8f 5f       	subi	r24, 0xFF	; 255
    357c:	08 95       	ret
    357e:	80 e0       	ldi	r24, 0x00	; 0
 #else
 if (tt == 15)  return(0);  // when DC_Mode, next cycle start with 0
 #endif
 return(tt + 1);	// otherwise increase
    3580:	08 95       	ret

00003582 <show_Resis13>:
    3582:	cf 93       	push	r28
};	/* end Bat_update() */
#endif
#if defined(POWER_OFF)
uint8_t Pwr_mode_check(uint8_t tt) {
 #if FLASHEND > 0x1fff
 if ((tt == 15) && (DC_Pwr_mode == 1)) return(0);  // when DC_Mode, next cycle start with 0
    3584:	82 e9       	ldi	r24, 0x92	; 146
 #else
 if (tt == 15)  return(0);  // when DC_Mode, next cycle start with 0
 #endif
 return(tt + 1);	// otherwise increase
};
    3586:	90 e0       	ldi	r25, 0x00	; 0
/* ****************************************************************** */
/* show_Resis13 measures the resistance of a part connected to TP1 and TP3 */
/* if RMETER_WITH_L is configured, inductance is also measured */
/* ****************************************************************** */

void show_Resis13(void) {
    3588:	0e 94 b4 23 	call	0x4768	; 0x4768 <message_key_released>
  uint8_t key_pressed;
  message_key_released(RESIS_13_str);	// "1-|=|-3 .."
    358c:	c0 e0       	ldi	r28, 0x00	; 0
    358e:	0e 94 5a 06 	call	0xcb4	; 0xcb4 <init_parts>
  lcd_set_cursor(0,6);
  lcd_MEM_string(RL_METER_str);	// " [R]" or "[RL]"
#endif
#ifdef POWER_OFF
  uint8_t times;
  for (times=0;times<250;) 
    3592:	60 e0       	ldi	r22, 0x00	; 0
 #else
  while (1)		/* wait endless without the POWER_OFF option */
 #endif
  {
        init_parts();		// set all parts to nothing found 
    3594:	82 e0       	ldi	r24, 0x02	; 2
    3596:	0e 94 5a 12 	call	0x24b4	; 0x24b4 <GetResistance>
        GetResistance(TP3, TP1);
    359a:	62 e0       	ldi	r22, 0x02	; 2
    359c:	80 e0       	ldi	r24, 0x00	; 0
    359e:	0e 94 5a 12 	call	0x24b4	; 0x24b4 <GetResistance>
        GetResistance(TP1, TP3);
    35a2:	0e 94 83 01 	call	0x306	; 0x306 <lcd_line1>
    35a6:	80 91 6f 01 	lds	r24, 0x016F
	lcd_line1();		// lcd_set_cursor(0,0);
    35aa:	88 23       	and	r24, r24
        if (ResistorsFound != 0) {
    35ac:	29 f0       	breq	.+10     	; 0x35b8 <show_Resis13+0x36>
    35ae:	41 e0       	ldi	r20, 0x01	; 1
    35b0:	62 e0       	ldi	r22, 0x02	; 2
    35b2:	80 e0       	ldi	r24, 0x00	; 0
           show_resis(TP1,TP3,1);
    35b4:	83 de       	rcall	.-762    	; 0x32bc <show_resis>
    35b6:	0f c0       	rjmp	.+30     	; 0x35d6 <show_Resis13+0x54>
    35b8:	82 e9       	ldi	r24, 0x92	; 146
    35ba:	90 e0       	ldi	r25, 0x00	; 0
    35bc:	0e 94 d1 01 	call	0x3a2	; 0x3a2 <lcd_fix_string>
        } else {		/* no resistor found */
 #if defined(SamplingADC) && defined(AUTO_LC_CAP)
	   sampling_lc_calibrate(249);		// try a short time to fetch new capacity value
 #endif
 #ifdef RMETER_WITH_L
           lcd_MEM_string(RESIS_13_str);
    35c0:	86 e4       	ldi	r24, 0x46	; 70
    35c2:	93 e0       	ldi	r25, 0x03	; 3
    35c4:	0e 94 d1 01 	call	0x3a2	; 0x3a2 <lcd_fix_string>
           lcd_MEM_string(RL_METER_str+4);	// " [R]" or "[RL]"
    35c8:	0e 94 8a 01 	call	0x314	; 0x314 <lcd_line2>
    35cc:	8f e3       	ldi	r24, 0x3F	; 63
    35ce:	0e 94 59 01 	call	0x2b2	; 0x2b2 <lcd_data>
 #endif
           lcd_line2();
    35d2:	0e 94 4e 02 	call	0x49c	; 0x49c <lcd_clear_line>
           lcd_data('?');		// too big
    35d6:	8c 2f       	mov	r24, r28
    35d8:	bd df       	rcall	.-134    	; 0x3554 <Bat_update>
 #if LCD_LINES>2
           lcd_next_line(0);
 #endif
           lcd_clear_line();
    35da:	88 ee       	ldi	r24, 0xE8	; 232
    35dc:	93 e0       	ldi	r25, 0x03	; 3
        }
 #if defined(POWER_OFF) && defined(BAT_CHECK)
     Bat_update(times);
    35de:	0e 94 54 05 	call	0xaa8	; 0xaa8 <wait_for_key_ms>
    35e2:	81 11       	cpse	r24, r1
 #endif
     key_pressed = wait_for_key_ms(1000);
    35e4:	05 c0       	rjmp	.+10     	; 0x35f0 <show_Resis13+0x6e>
    35e6:	8c 2f       	mov	r24, r28
    35e8:	c2 df       	rcall	.-124    	; 0x356e <Pwr_mode_check>
    35ea:	c8 2f       	mov	r28, r24
 #ifdef WITH_ROTARY_SWITCH
     if ((key_pressed != 0) || (rotary.incre > 3)) break;
 #else
     if (key_pressed != 0) break;
    35ec:	8a 3f       	cpi	r24, 0xFA	; 250
    35ee:	78 f2       	brcs	.-98     	; 0x358e <show_Resis13+0xc>
 #endif
 #if defined(POWER_OFF)
     times = Pwr_mode_check(times);	// no time limit with DC_Pwr_mode
    35f0:	0e 94 b2 01 	call	0x364	; 0x364 <lcd_clear>
    35f4:	cf 91       	pop	r28
    35f6:	08 95       	ret

000035f8 <show_Cap13>:
  lcd_set_cursor(0,6);
  lcd_MEM_string(RL_METER_str);	// " [R]" or "[RL]"
#endif
#ifdef POWER_OFF
  uint8_t times;
  for (times=0;times<250;) 
    35f8:	0f 93       	push	r16
    35fa:	1f 93       	push	r17
 #endif
 #if defined(POWER_OFF)
     times = Pwr_mode_check(times);	// no time limit with DC_Pwr_mode
 #endif
  }  /* end for times */
  lcd_clear();
    35fc:	cf 93       	push	r28
    35fe:	df 93       	push	r29
} /* end show_Resis13() */
    3600:	c0 e0       	ldi	r28, 0x00	; 0
    3602:	d8 e0       	ldi	r29, 0x08	; 8
 #if (LCD_LINES > 2)
  #define SCREEN_TIME 1000
 #else
  #define SCREEN_TIME 2000	/* line 2 is multi use, wait longer to read */
 #endif
void show_Cap13(void) {
    3604:	12 ef       	ldi	r17, 0xF2	; 242
    3606:	0d e0       	ldi	r16, 0x0D	; 13
    3608:	0e 94 5a 06 	call	0xcb4	; 0xcb4 <init_parts>
  uint8_t key_pressed;

//  lcd_clear();
 #ifdef POWER_OFF
  uint8_t times;
  for (times=0;times<250;) 
    360c:	60 e0       	ldi	r22, 0x00	; 0
 #endif
  {
     init_parts();		// set all parts to nothing found 
//     cap.v_loss = 0;		// clear vloss  for low capacity values (<25pF)!
     ReadCapacity(TP3, TP1);
     PartFound = PART_CAPACITOR;
    360e:	82 e0       	ldi	r24, 0x02	; 2
 #ifdef SamplingADC
     if (cap.cpre==-12 && cap.cval<100) {
        // if below 100 pF, try the alternative measuring method for small capacitors
        cap.cval = sampling_cap(TP3,TP1,0);
        cap.cpre = sampling_cap_pre;
    3610:	36 da       	rcall	.-2964   	; 0x2a7e <ReadCapacity>
       cap.cval_max = cap.cval;
       show_cap(1);		// with [C] at the end of line
     } else { /* no cap detected */
       lcd_line1();
       lcd_MEM2_string(CAP_13_str);	// 1-||-3
       lcd_spaces(LCD_LINE_LENGTH - 3 - _lcd_column);
    3612:	d0 93 1a 01 	sts	0x011A, r29
  for (times=0;times<250;) 
 #else
  while (1)		/* wait endless without the POWER_OFF option */
 #endif
  {
     init_parts();		// set all parts to nothing found 
    3616:	80 91 85 01 	lds	r24, 0x0185
//     cap.v_loss = 0;		// clear vloss  for low capacity values (<25pF)!
     ReadCapacity(TP3, TP1);
    361a:	84 3f       	cpi	r24, 0xF4	; 244
    361c:	e1 f4       	brne	.+56     	; 0x3656 <show_Cap13+0x5e>
    361e:	40 91 73 01 	lds	r20, 0x0173
     PartFound = PART_CAPACITOR;
    3622:	50 91 74 01 	lds	r21, 0x0174
 #ifdef SamplingADC
     if (cap.cpre==-12 && cap.cval<100) {
    3626:	60 91 75 01 	lds	r22, 0x0175
    362a:	70 91 76 01 	lds	r23, 0x0176
    362e:	44 36       	cpi	r20, 0x64	; 100
    3630:	51 05       	cpc	r21, r1
    3632:	61 05       	cpc	r22, r1
    3634:	71 05       	cpc	r23, r1
    3636:	78 f4       	brcc	.+30     	; 0x3656 <show_Cap13+0x5e>
    3638:	40 e0       	ldi	r20, 0x00	; 0
    363a:	60 e0       	ldi	r22, 0x00	; 0
    363c:	82 e0       	ldi	r24, 0x02	; 2
    363e:	0e 94 38 27 	call	0x4e70	; 0x4e70 <sampling_cap>
    3642:	60 93 73 01 	sts	0x0173, r22
        // if below 100 pF, try the alternative measuring method for small capacitors
        cap.cval = sampling_cap(TP3,TP1,0);
    3646:	70 93 74 01 	sts	0x0174, r23
    364a:	80 93 75 01 	sts	0x0175, r24
    364e:	90 93 76 01 	sts	0x0176, r25
    3652:	10 93 85 01 	sts	0x0185, r17
    3656:	80 91 85 01 	lds	r24, 0x0185
    365a:	82 3f       	cpi	r24, 0xF2	; 242
    365c:	ac f0       	brlt	.+42     	; 0x3688 <show_Cap13+0x90>
    365e:	80 93 86 01 	sts	0x0186, r24
        cap.cpre = sampling_cap_pre;
    3662:	40 91 73 01 	lds	r20, 0x0173
     }
 #endif
     if (cap.cpre > -15) {	/* Capacity below the detection limit */
    3666:	50 91 74 01 	lds	r21, 0x0174
    366a:	60 91 75 01 	lds	r22, 0x0175
       cap.cpre_max = cap.cpre;		// show_cap will display the cap.cval_max value
    366e:	70 91 76 01 	lds	r23, 0x0176
       cap.cval_max = cap.cval;
    3672:	40 93 77 01 	sts	0x0177, r20
    3676:	50 93 78 01 	sts	0x0178, r21
    367a:	60 93 79 01 	sts	0x0179, r22
    367e:	70 93 7a 01 	sts	0x017A, r23
    3682:	81 e0       	ldi	r24, 0x01	; 1
    3684:	cf de       	rcall	.-610    	; 0x3424 <show_cap>
    3686:	18 c0       	rjmp	.+48     	; 0x36b8 <show_Cap13+0xc0>
    3688:	0e 94 83 01 	call	0x306	; 0x306 <lcd_line1>
    368c:	8b e8       	ldi	r24, 0x8B	; 139
    368e:	90 e0       	ldi	r25, 0x00	; 0
       show_cap(1);		// with [C] at the end of line
    3690:	0e 94 d1 01 	call	0x3a2	; 0x3a2 <lcd_fix_string>
    3694:	80 91 3b 01 	lds	r24, 0x013B
     } else { /* no cap detected */
       lcd_line1();
    3698:	90 2f       	mov	r25, r16
    369a:	98 1b       	sub	r25, r24
       lcd_MEM2_string(CAP_13_str);	// 1-||-3
    369c:	89 2f       	mov	r24, r25
    369e:	0e 94 6a 01 	call	0x2d4	; 0x2d4 <lcd_spaces>
    36a2:	87 e8       	ldi	r24, 0x87	; 135
       lcd_spaces(LCD_LINE_LENGTH - 3 - _lcd_column);
    36a4:	90 e0       	ldi	r25, 0x00	; 0
    36a6:	0e 94 d1 01 	call	0x3a2	; 0x3a2 <lcd_fix_string>
    36aa:	0e 94 8a 01 	call	0x314	; 0x314 <lcd_line2>
    36ae:	8f e3       	ldi	r24, 0x3F	; 63
    36b0:	0e 94 59 01 	call	0x2b2	; 0x2b2 <lcd_data>
       lcd_MEM2_string(CMETER_13_str);       // "[C]" at the end of line 1
    36b4:	0e 94 4e 02 	call	0x49c	; 0x49c <lcd_clear_line>
    36b8:	8c 2f       	mov	r24, r28
       lcd_line2();
    36ba:	4c df       	rcall	.-360    	; 0x3554 <Bat_update>
    36bc:	80 ed       	ldi	r24, 0xD0	; 208
       lcd_data('?');
    36be:	97 e0       	ldi	r25, 0x07	; 7
    36c0:	0e 94 54 05 	call	0xaa8	; 0xaa8 <wait_for_key_ms>
       lcd_clear_line();		// clear to end of line 2
    36c4:	81 11       	cpse	r24, r1
    36c6:	06 c0       	rjmp	.+12     	; 0x36d4 <show_Cap13+0xdc>
       lcd_line3();	
       lcd_clear_line();	// clear old Vloss= message
 #endif
     }
 #if defined(POWER_OFF) && defined(BAT_CHECK)
     Bat_update(times);
    36c8:	8c 2f       	mov	r24, r28
    36ca:	51 df       	rcall	.-350    	; 0x356e <Pwr_mode_check>
    36cc:	c8 2f       	mov	r28, r24
 #endif
     key_pressed = wait_for_key_ms(SCREEN_TIME);
    36ce:	8a 3f       	cpi	r24, 0xFA	; 250
    36d0:	08 f4       	brcc	.+2      	; 0x36d4 <show_Cap13+0xdc>
    36d2:	9a cf       	rjmp	.-204    	; 0x3608 <show_Cap13+0x10>
    36d4:	0e 94 b2 01 	call	0x364	; 0x364 <lcd_clear>
 #ifdef WITH_ROTARY_SWITCH
     if ((key_pressed != 0) || (rotary.incre > 3)) break;
 #else
     if (key_pressed != 0) break;
    36d8:	df 91       	pop	r29
 #endif
 #if defined(POWER_OFF)
     times = Pwr_mode_check(times);	// no time limit with DC_Pwr_mode
    36da:	cf 91       	pop	r28
    36dc:	1f 91       	pop	r17
    36de:	0f 91       	pop	r16
    36e0:	08 95       	ret

000036e2 <ReadInductance>:
#include <stdlib.h>
#include "Transistortester.h"


//=================================================================
void ReadInductance(void) {
    36e2:	a3 e1       	ldi	r26, 0x13	; 19
    36e4:	b0 e0       	ldi	r27, 0x00	; 0
    36e6:	e7 e7       	ldi	r30, 0x77	; 119
    36e8:	fb e1       	ldi	r31, 0x1B	; 27
    36ea:	0c 94 d0 31 	jmp	0x63a0	; 0x63a0 <__prologue_saves__>
  uint16_t pw;		// return value from Rnum2pins()
  uint8_t pb[2];	// the pin numbers LowPin and HighPin
  } rpins;	// resistor pin structure to prevent two return parameters


  inductor_lpre = 2;	// H units, mark inductor as 1, if resistor is too big
    36ee:	82 e0       	ldi	r24, 0x02	; 2
    36f0:	80 93 01 01 	sts	0x0101, r24
  if(PartFound != PART_RESISTOR) {
    36f4:	80 91 1a 01 	lds	r24, 0x011A
    36f8:	81 30       	cpi	r24, 0x01	; 1
    36fa:	09 f0       	breq	.+2      	; 0x36fe <ReadInductance+0x1c>
    36fc:	19 c2       	rjmp	.+1074   	; 0x3b30 <ReadInductance+0x44e>
     return;	//We have found no resistor  
  }
  if (ResistorsFound != 1) {
    36fe:	80 91 6f 01 	lds	r24, 0x016F
    3702:	81 30       	cpi	r24, 0x01	; 1
    3704:	09 f0       	breq	.+2      	; 0x3708 <ReadInductance+0x26>
    3706:	14 c2       	rjmp	.+1064   	; 0x3b30 <ReadInductance+0x44e>
     return;	// do not search for inductance, more than 1 resistor
  }
     res_num = ResistorList[0];
    3708:	20 90 56 01 	lds	r2, 0x0156
     if (ResistorVal[res_num] > 21000) return;
    370c:	24 e0       	ldi	r18, 0x04	; 4
    370e:	22 9e       	mul	r2, r18
    3710:	f0 01       	movw	r30, r0
    3712:	11 24       	eor	r1, r1
    3714:	ee 55       	subi	r30, 0x5E	; 94
    3716:	fe 4f       	sbci	r31, 0xFE	; 254
    3718:	80 81       	ld	r24, Z
    371a:	91 81       	ldd	r25, Z+1	; 0x01
    371c:	a2 81       	ldd	r26, Z+2	; 0x02
    371e:	b3 81       	ldd	r27, Z+3	; 0x03
    3720:	89 30       	cpi	r24, 0x09	; 9
    3722:	32 e5       	ldi	r19, 0x52	; 82
    3724:	93 07       	cpc	r25, r19
    3726:	a1 05       	cpc	r26, r1
    3728:	b1 05       	cpc	r27, r1
    372a:	08 f0       	brcs	.+2      	; 0x372e <ReadInductance+0x4c>
    372c:	01 c2       	rjmp	.+1026   	; 0x3b30 <ReadInductance+0x44e>
     resistor = ResistorVal[res_num];
    372e:	9b 8b       	std	Y+19, r25	; 0x13
    3730:	8a 8b       	std	Y+18, r24	; 0x12

     // we can check for Inductance, if resistance is below 2100 Ohm
     for (count=0;count<4;count++) {
    3732:	31 2c       	mov	r3, r1
        // Try four times (different direction and with delayed counter start)
        if (count < 2) {
    3734:	61 e0       	ldi	r22, 0x01	; 1
           // first and second pass, direction 1
           rpins.pw = Rnum2pins(res_num);	// compute the two pinnumbers for resistor res_num
    3736:	82 2d       	mov	r24, r2
     resistor = ResistorVal[res_num];

     // we can check for Inductance, if resistance is below 2100 Ohm
     for (count=0;count<4;count++) {
        // Try four times (different direction and with delayed counter start)
        if (count < 2) {
    3738:	63 15       	cp	r22, r3
    373a:	28 f0       	brcs	.+10     	; 0x3746 <ReadInductance+0x64>
           // first and second pass, direction 1
           rpins.pw = Rnum2pins(res_num);	// compute the two pinnumbers for resistor res_num
    373c:	0e 94 e9 02 	call	0x5d2	; 0x5d2 <Rnum2pins>
    3740:	b8 2e       	mov	r11, r24
    3742:	a9 2e       	mov	r10, r25
    3744:	03 c0       	rjmp	.+6      	; 0x374c <ReadInductance+0x6a>
        } else {
           // third and fourth pass, direction 2
           rpins.pw = Rnum2pins(res_num);	// compute the two pinnumbers for resistor res_num
    3746:	0e 94 e9 02 	call	0x5d2	; 0x5d2 <Rnum2pins>
           ii = rpins.pb[0];
           rpins.pb[0] = rpins.pb[1];		// swap the pins LowPin and HighPin
           rpins.pb[1] = ii;
    374a:	5c 01       	movw	r10, r24
        }
#if (((PIN_RL1 + 1) != PIN_RH1) || ((PIN_RL2 + 1) != PIN_RH2) || ((PIN_RL3 + 1) != PIN_RH3))
        HiADC = pgm_read_byte((&PinRLRHADCtab[6])+rpins.pb[1]-TP_MIN);	// Table of ADC Pins including | TXD_VAL
#else
        HiADC = pgm_read_byte((&PinRLRHADCtab[3])+rpins.pb[1]-TP_MIN);	// Table of ADC Pins including | TXD_VAL
    374c:	ea 2d       	mov	r30, r10
    374e:	f0 e0       	ldi	r31, 0x00	; 0
    3750:	ed 56       	subi	r30, 0x6D	; 109
    3752:	fe 4f       	sbci	r31, 0xFE	; 254
    3754:	74 90       	lpm	r7, Z
#endif
        LoPinR_L = pgm_read_byte(&PinRLRHADCtab[rpins.pb[0]]-TP_MIN);	//R_L mask for HighPin R_L load
    3756:	eb 2d       	mov	r30, r11
    3758:	f0 e0       	ldi	r31, 0x00	; 0
    375a:	e0 57       	subi	r30, 0x70	; 112
    375c:	fe 4f       	sbci	r31, 0xFE	; 254
    375e:	e4 91       	lpm	r30, Z
        //==================================================================================
        // Measurement of Inductance values
        R_PORT = 0;		// switch R port to GND
    3760:	15 b8       	out	0x05, r1	; 5
        ADC_PORT =   TXD_VAL;		// switch ADC-Port to GND
    3762:	18 b8       	out	0x08, r1	; 8
        if ((resistor < 240) && ((count & 0x01) == 0)) {
    3764:	8a 89       	ldd	r24, Y+18	; 0x12
    3766:	9b 89       	ldd	r25, Y+19	; 0x13
    3768:	80 3f       	cpi	r24, 0xF0	; 240
    376a:	91 05       	cpc	r25, r1
    376c:	90 f4       	brcc	.+36     	; 0x3792 <ReadInductance+0xb0>
    376e:	30 fc       	sbrc	r3, 0
    3770:	10 c0       	rjmp	.+32     	; 0x3792 <ReadInductance+0xb0>
           // we can use PinR_L for measurement
           mess_r = RR680MI - R_L_VAL;			// use only pin output resistance
    3772:	00 91 14 01 	lds	r16, 0x0114
    3776:	10 91 15 01 	lds	r17, 0x0115
    377a:	00 59       	subi	r16, 0x90	; 144
    377c:	1a 41       	sbci	r17, 0x1A	; 26
           ADC_DDR = HiADC | (1<<rpins.pb[0]) | TXD_MSK;	// switch HiADC and Low Pin to GND, 
    377e:	81 e0       	ldi	r24, 0x01	; 1
    3780:	90 e0       	ldi	r25, 0x00	; 0
    3782:	0b 2c       	mov	r0, r11
    3784:	01 c0       	rjmp	.+2      	; 0x3788 <ReadInductance+0xa6>
    3786:	88 0f       	add	r24, r24
    3788:	0a 94       	dec	r0
    378a:	ea f7       	brpl	.-6      	; 0x3786 <ReadInductance+0xa4>
    378c:	87 29       	or	r24, r7
    378e:	87 b9       	out	0x07, r24	; 7
    3790:	06 c0       	rjmp	.+12     	; 0x379e <ReadInductance+0xbc>
        } else {
           R_DDR = LoPinR_L;   		// switch R_L resistor port for LowPin to output (GND)
    3792:	e4 b9       	out	0x04, r30	; 4
           ADC_DDR = HiADC | TXD_MSK;	// switch HiADC Pin to GND 
    3794:	77 b8       	out	0x07, r7	; 7
           mess_r = RR680MI;			// use 680 Ohm and PinR_L for current measurement
    3796:	00 91 14 01 	lds	r16, 0x0114
    379a:	10 91 15 01 	lds	r17, 0x0115
     res_num = ResistorList[0];
     if (ResistorVal[res_num] > 21000) return;
     resistor = ResistorVal[res_num];

     // we can check for Inductance, if resistance is below 2100 Ohm
     for (count=0;count<4;count++) {
    379e:	44 e1       	ldi	r20, 0x14	; 20
    37a0:	64 2e       	mov	r6, r20
           mess_r = RR680MI;			// use 680 Ohm and PinR_L for current measurement
        }
        // Look, if we can detect any current
        for (ii=0;ii<20;ii++) {
            // wait for current is near zero
            umax = W10msReadADC(rpins.pb[0]);
    37a2:	8b 2d       	mov	r24, r11
    37a4:	0e 94 da 04 	call	0x9b4	; 0x9b4 <W10msReadADC>
    37a8:	4c 01       	movw	r8, r24
            total_r =  ReadADC(rpins.pb[1]);
    37aa:	8a 2d       	mov	r24, r10
    37ac:	0e 94 e2 04 	call	0x9c4	; 0x9c4 <ReadADC>
            if ((umax < CAP_EMPTY_LEVEL) && (total_r < CAP_EMPTY_LEVEL)) break;	// low current detected
    37b0:	24 e0       	ldi	r18, 0x04	; 4
    37b2:	82 16       	cp	r8, r18
    37b4:	91 04       	cpc	r9, r1
    37b6:	10 f4       	brcc	.+4      	; 0x37bc <ReadInductance+0xda>
    37b8:	04 97       	sbiw	r24, 0x04	; 4
    37ba:	10 f0       	brcs	.+4      	; 0x37c0 <ReadInductance+0xde>
    37bc:	6a 94       	dec	r6
           R_DDR = LoPinR_L;   		// switch R_L resistor port for LowPin to output (GND)
           ADC_DDR = HiADC | TXD_MSK;	// switch HiADC Pin to GND 
           mess_r = RR680MI;			// use 680 Ohm and PinR_L for current measurement
        }
        // Look, if we can detect any current
        for (ii=0;ii<20;ii++) {
    37be:	89 f7       	brne	.-30     	; 0x37a2 <ReadInductance+0xc0>
            umax = W10msReadADC(rpins.pb[0]);
            total_r =  ReadADC(rpins.pb[1]);
            if ((umax < CAP_EMPTY_LEVEL) && (total_r < CAP_EMPTY_LEVEL)) break;	// low current detected
        }
        // setup Analog Comparator
        ADC_COMP_CONTROL = (1<<ACME);			//enable Analog Comparator Multiplexer
    37c0:	30 e4       	ldi	r19, 0x40	; 64
    37c2:	30 93 7b 00 	sts	0x007B, r19
        ACSR =  (1<<ACBG) | (1<<ACI)  | (1<<ACIC);	// enable, 1.3V, no Interrupt, Connect to Timer1 
    37c6:	64 e5       	ldi	r22, 0x54	; 84
    37c8:	60 bf       	out	0x30, r22	; 48
        ADMUX = (1<<REFS0) | rpins.pb[0];			// switch Mux to Low-Pin
    37ca:	8b 2d       	mov	r24, r11
    37cc:	80 64       	ori	r24, 0x40	; 64
    37ce:	80 93 7c 00 	sts	0x007C, r24
        ADCSRA = (1<<ADIF) | AUTO_CLOCK_DIV; //disable ADC
    37d2:	86 e1       	ldi	r24, 0x16	; 22
    37d4:	80 93 7a 00 	sts	0x007A, r24
   
      // setup Counter1
        timeconstant.w[1] = 0;		// set ov counter to 0
    37d8:	e1 2c       	mov	r14, r1
    37da:	f1 2c       	mov	r15, r1
        TCCR1A = 0;			// set Counter1 to normal Mode
    37dc:	10 92 80 00 	sts	0x0080, r1
        TCNT1 = 0;			//set Counter to 0
    37e0:	10 92 85 00 	sts	0x0085, r1
    37e4:	10 92 84 00 	sts	0x0084, r1
        TI1_INT_FLAGS = (1<<ICF1) | (1<<OCF1B) | (1<<OCF1A) | (1<<TOV1);	// reset TIFR or TIFR1
    37e8:	87 e2       	ldi	r24, 0x27	; 39
    37ea:	86 bb       	out	0x16, r24	; 22
//        HiADC |= TXD_VAL;
        wait200us();			// wait for bandgap to start up
    37ec:	0e 94 9d 04 	call	0x93a	; 0x93a <wait200us>
        if ((count & 0x01) == 0 ) {
    37f0:	93 2d       	mov	r25, r3
    37f2:	91 70       	andi	r25, 0x01	; 1
    37f4:	99 8b       	std	Y+17, r25	; 0x11
    37f6:	30 fc       	sbrc	r3, 0
    37f8:	05 c0       	rjmp	.+10     	; 0x3804 <ReadInductance+0x122>
           //first start counter, then start current
           TCCR1B =  (1<<ICNC1) | (0<<ICES1) | (1<<CS10);	//start counter 1MHz or 8MHz
    37fa:	81 e8       	ldi	r24, 0x81	; 129
    37fc:	80 93 81 00 	sts	0x0081, r24
           ADC_PORT = HiADC;		// switch ADC-Port to VCC
    3800:	78 b8       	out	0x08, r7	; 8
    3802:	08 c0       	rjmp	.+16     	; 0x3814 <ReadInductance+0x132>
        } else {
           //first start current, then start counter with delay
           //parasitic capacity of coil can cause high current at the beginning
           ADC_PORT = HiADC;		// switch ADC-Port to VCC
    3804:	78 b8       	out	0x08, r7	; 8
      #if F_CPU >= 8000000UL
           wait3us();		// ignore current peak from capacity
    3806:	0e 94 a6 04 	call	0x94c	; 0x94c <wait3us>
      #else
           wdt_reset();			// delay
           wdt_reset();			// delay
      #endif
           TI1_INT_FLAGS = (1<<ICF1);	// Reset Input Capture
    380a:	80 e2       	ldi	r24, 0x20	; 32
    380c:	86 bb       	out	0x16, r24	; 22
           TCCR1B =  (1<<ICNC1) | (0<<ICES1) | (1<<CS10);	//start counter 1MHz or 8MHz
    380e:	81 e8       	ldi	r24, 0x81	; 129
    3810:	80 93 81 00 	sts	0x0081, r24
        }
      
      //******************************
        while(1) {
           // Wait, until  Input Capture is set
           ii = TI1_INT_FLAGS;		//read Timer flags
    3814:	46 b3       	in	r20, 0x16	; 22
           if (ii & (1<<ICF1))  {
    3816:	45 ff       	sbrs	r20, 5
    3818:	12 c0       	rjmp	.+36     	; 0x383e <ReadInductance+0x15c>
              if(timeconstant.w[1] == (F_CPU/100000UL)) {
                 break; 	//Timeout for Charging, above 0.65 s
              }
           }
        }
        ADC_PORT = TXD_VAL;		// switch ADC-Port to GND
    381a:	18 b8       	out	0x08, r1	; 8
        TCCR1B = (0<<ICNC1) | (0<<ICES1) | (0<<CS10);  // stop counter
    381c:	10 92 81 00 	sts	0x0081, r1
        TI1_INT_FLAGS = (1<<ICF1);			// Reset Input Capture
    3820:	80 e2       	ldi	r24, 0x20	; 32
    3822:	86 bb       	out	0x16, r24	; 22
        timeconstant.w[0] = ICR1;		// get previous Input Capture Counter flag
    3824:	80 91 86 00 	lds	r24, 0x0086
    3828:	90 91 87 00 	lds	r25, 0x0087
    382c:	6c 01       	movw	r12, r24
      // check actual counter, if an additional overflow must be added
        if((TCNT1 > timeconstant.w[0]) && (ii & (1<<TOV1))) {
    382e:	20 91 84 00 	lds	r18, 0x0084
    3832:	30 91 85 00 	lds	r19, 0x0085
    3836:	82 17       	cp	r24, r18
    3838:	93 07       	cpc	r25, r19
    383a:	68 f0       	brcs	.+26     	; 0x3856 <ReadInductance+0x174>
    383c:	13 c0       	rjmp	.+38     	; 0x3864 <ReadInductance+0x182>
           // Wait, until  Input Capture is set
           ii = TI1_INT_FLAGS;		//read Timer flags
           if (ii & (1<<ICF1))  {
              break;
           }
           if((ii & (1<<TOV1))) {		// counter overflow, 65.536 ms @ 1MHz, 8.192ms @ 8MHz
    383e:	40 ff       	sbrs	r20, 0
    3840:	e9 cf       	rjmp	.-46     	; 0x3814 <ReadInductance+0x132>
              TI1_INT_FLAGS = (1<<TOV1);	// Reset OV Flag
    3842:	21 e0       	ldi	r18, 0x01	; 1
    3844:	26 bb       	out	0x16, r18	; 22
              wdt_reset();
    3846:	a8 95       	wdr
              timeconstant.w[1]++;		// count one OV
    3848:	c7 01       	movw	r24, r14
    384a:	01 96       	adiw	r24, 0x01	; 1
    384c:	7c 01       	movw	r14, r24
              if(timeconstant.w[1] == (F_CPU/100000UL)) {
    384e:	80 35       	cpi	r24, 0x50	; 80
    3850:	91 05       	cpc	r25, r1
    3852:	01 f7       	brne	.-64     	; 0x3814 <ReadInductance+0x132>
    3854:	e2 cf       	rjmp	.-60     	; 0x381a <ReadInductance+0x138>
        ADC_PORT = TXD_VAL;		// switch ADC-Port to GND
        TCCR1B = (0<<ICNC1) | (0<<ICES1) | (0<<CS10);  // stop counter
        TI1_INT_FLAGS = (1<<ICF1);			// Reset Input Capture
        timeconstant.w[0] = ICR1;		// get previous Input Capture Counter flag
      // check actual counter, if an additional overflow must be added
        if((TCNT1 > timeconstant.w[0]) && (ii & (1<<TOV1))) {
    3856:	40 ff       	sbrs	r20, 0
    3858:	05 c0       	rjmp	.+10     	; 0x3864 <ReadInductance+0x182>
           // this OV was not counted, but was before the Input Capture
           TI1_INT_FLAGS = (1<<TOV1);		// Reset OV Flag
    385a:	31 e0       	ldi	r19, 0x01	; 1
    385c:	36 bb       	out	0x16, r19	; 22
           timeconstant.w[1]++;			// count one additional OV
    385e:	6f ef       	ldi	r22, 0xFF	; 255
    3860:	e6 1a       	sub	r14, r22
    3862:	f6 0a       	sbc	r15, r22
        }

//        ADC_PORT = TXD_VAL;		// switch ADC-Port to GND
        ADCSRA = (1<<ADEN) | (1<<ADIF) | AUTO_CLOCK_DIV; //enable ADC
    3864:	86 e9       	ldi	r24, 0x96	; 150
    3866:	80 93 7a 00 	sts	0x007A, r24
    386a:	34 e1       	ldi	r19, 0x14	; 20
    386c:	73 2e       	mov	r7, r19
        for (ii=0;ii<20;ii++) {
            // wait for current is near zero
            umax = W10msReadADC(rpins.pb[0]);
    386e:	8b 2d       	mov	r24, r11
    3870:	0e 94 da 04 	call	0x9b4	; 0x9b4 <W10msReadADC>
    3874:	4c 01       	movw	r8, r24
            total_r =  ReadADC(rpins.pb[1]);
    3876:	8a 2d       	mov	r24, r10
    3878:	0e 94 e2 04 	call	0x9c4	; 0x9c4 <ReadADC>
            if ((umax < CAP_EMPTY_LEVEL) && (total_r < CAP_EMPTY_LEVEL)) break;	// low current detected
    387c:	24 e0       	ldi	r18, 0x04	; 4
    387e:	82 16       	cp	r8, r18
    3880:	91 04       	cpc	r9, r1
    3882:	10 f4       	brcc	.+4      	; 0x3888 <ReadInductance+0x1a6>
    3884:	04 97       	sbiw	r24, 0x04	; 4
    3886:	10 f0       	brcs	.+4      	; 0x388c <ReadInductance+0x1aa>
    3888:	7a 94       	dec	r7
           timeconstant.w[1]++;			// count one additional OV
        }

//        ADC_PORT = TXD_VAL;		// switch ADC-Port to GND
        ADCSRA = (1<<ADEN) | (1<<ADIF) | AUTO_CLOCK_DIV; //enable ADC
        for (ii=0;ii<20;ii++) {
    388a:	89 f7       	brne	.-30     	; 0x386e <ReadInductance+0x18c>
//  #undef CNT_ZERO_42
//  #undef CNT_ZERO_720
//  #define CNT_ZERO_42 7
//  #define CNT_ZERO_720 10
//#endif
        total_r = (mess_r + resistor + RRpinMI);
    388c:	80 90 38 01 	lds	r8, 0x0138
    3890:	90 90 39 01 	lds	r9, 0x0139
    3894:	8a 89       	ldd	r24, Y+18	; 0x12
    3896:	9b 89       	ldd	r25, Y+19	; 0x13
    3898:	88 0e       	add	r8, r24
    389a:	99 1e       	adc	r9, r25
    389c:	80 0e       	add	r8, r16
    389e:	91 1e       	adc	r9, r17
//        cnt_diff = 0;
//        if (total_r > 7000) cnt_diff = 1;
//        if (total_r > 14000) cnt_diff = 2;
        cnt_diff = total_r / ((14000UL * 8) / (F_CPU/1000000UL));
        tmpint = ref_mv_offs;		// corrected reference voltage (for C)
    38a0:	20 91 16 01 	lds	r18, 0x0116
    38a4:	30 91 17 01 	lds	r19, 0x0117
        if (mess_r < R_L_VAL) {
    38a8:	00 39       	cpi	r16, 0x90	; 144
    38aa:	9a e1       	ldi	r25, 0x1A	; 26
    38ac:	19 07       	cpc	r17, r25
    38ae:	b0 f4       	brcc	.+44     	; 0x38dc <ReadInductance+0x1fa>
           // measurement without 680 Ohm
           cnt_diff = CNT_ZERO_42;
           if (timeconstant.dw < 225) {
    38b0:	61 ee       	ldi	r22, 0xE1	; 225
    38b2:	c6 16       	cp	r12, r22
    38b4:	d1 04       	cpc	r13, r1
    38b6:	e1 04       	cpc	r14, r1
    38b8:	f1 04       	cpc	r15, r1
    38ba:	38 f4       	brcc	.+14     	; 0x38ca <ReadInductance+0x1e8>
              ukorr = (timeconstant.w[0] / 5) - 20;
    38bc:	c6 01       	movw	r24, r12
    38be:	65 e0       	ldi	r22, 0x05	; 5
    38c0:	70 e0       	ldi	r23, 0x00	; 0
    38c2:	0e 94 46 31 	call	0x628c	; 0x628c <__udivmodhi4>
    38c6:	64 51       	subi	r22, 0x14	; 20
    38c8:	01 c0       	rjmp	.+2      	; 0x38cc <ReadInductance+0x1ea>
           } else {
              ukorr = 25;
    38ca:	69 e1       	ldi	r22, 0x19	; 25
           }
           tmpint -= (((REF_L_KORR * 10) / 10) + ukorr);
    38cc:	28 52       	subi	r18, 0x28	; 40
    38ce:	31 09       	sbc	r19, r1
    38d0:	26 1b       	sub	r18, r22
    38d2:	31 09       	sbc	r19, r1
    38d4:	67 fd       	sbrc	r22, 7
    38d6:	33 95       	inc	r19
//        if (total_r > 14000) cnt_diff = 2;
        cnt_diff = total_r / ((14000UL * 8) / (F_CPU/1000000UL));
        tmpint = ref_mv_offs;		// corrected reference voltage (for C)
        if (mess_r < R_L_VAL) {
           // measurement without 680 Ohm
           cnt_diff = CNT_ZERO_42;
    38d8:	86 e0       	ldi	r24, 0x06	; 6
    38da:	09 c0       	rjmp	.+18     	; 0x38ee <ReadInductance+0x20c>
//#endif
        total_r = (mess_r + resistor + RRpinMI);
//        cnt_diff = 0;
//        if (total_r > 7000) cnt_diff = 1;
//        if (total_r > 14000) cnt_diff = 2;
        cnt_diff = total_r / ((14000UL * 8) / (F_CPU/1000000UL));
    38dc:	c4 01       	movw	r24, r8
    38de:	60 eb       	ldi	r22, 0xB0	; 176
    38e0:	76 e3       	ldi	r23, 0x36	; 54
    38e2:	0e 94 46 31 	call	0x628c	; 0x628c <__udivmodhi4>
           }
           tmpint -= (((REF_L_KORR * 10) / 10) + ukorr);
        } else {
           // measurement with 680 Ohm resistor
           // if 680 Ohm resistor is used, use REF_L_KORR for correction
           cnt_diff += CNT_ZERO_720;
    38e6:	87 e0       	ldi	r24, 0x07	; 7
    38e8:	86 0f       	add	r24, r22
           tmpint += REF_L_KORR;
    38ea:	28 5d       	subi	r18, 0xD8	; 216
    38ec:	3f 4f       	sbci	r19, 0xFF	; 255
        }
        if (timeconstant.dw > cnt_diff) timeconstant.dw -= cnt_diff;
    38ee:	90 e0       	ldi	r25, 0x00	; 0
    38f0:	a0 e0       	ldi	r26, 0x00	; 0
    38f2:	b0 e0       	ldi	r27, 0x00	; 0
    38f4:	8c 15       	cp	r24, r12
    38f6:	9d 05       	cpc	r25, r13
    38f8:	ae 05       	cpc	r26, r14
    38fa:	bf 05       	cpc	r27, r15
    38fc:	28 f4       	brcc	.+10     	; 0x3908 <ReadInductance+0x226>
    38fe:	c8 1a       	sub	r12, r24
    3900:	d9 0a       	sbc	r13, r25
    3902:	ea 0a       	sbc	r14, r26
    3904:	fb 0a       	sbc	r15, r27
    3906:	03 c0       	rjmp	.+6      	; 0x390e <ReadInductance+0x22c>
        else          timeconstant.dw = 0;
    3908:	c1 2c       	mov	r12, r1
    390a:	d1 2c       	mov	r13, r1
    390c:	76 01       	movw	r14, r12
       
        if ((count&0x01) == 1) {
    390e:	89 89       	ldd	r24, Y+17	; 0x11
    3910:	88 23       	and	r24, r24
    3912:	29 f0       	breq	.+10     	; 0x391e <ReadInductance+0x23c>
           // second pass with delayed counter start
           timeconstant.dw += (3 * (F_CPU/1000000UL))+10;
    3914:	92 e2       	ldi	r25, 0x22	; 34
    3916:	c9 0e       	add	r12, r25
    3918:	d1 1c       	adc	r13, r1
    391a:	e1 1c       	adc	r14, r1
    391c:	f1 1c       	adc	r15, r1
        }
        if (timeconstant.w[1] >= (F_CPU/100000UL)) timeconstant.dw = 0; // no transition found
    391e:	60 e5       	ldi	r22, 0x50	; 80
    3920:	e6 16       	cp	r14, r22
    3922:	f1 04       	cpc	r15, r1
    3924:	18 f0       	brcs	.+6      	; 0x392c <ReadInductance+0x24a>
    3926:	c1 2c       	mov	r12, r1
    3928:	d1 2c       	mov	r13, r1
    392a:	76 01       	movw	r14, r12
        if (timeconstant.dw > 10) {
    392c:	8b e0       	ldi	r24, 0x0B	; 11
    392e:	c8 16       	cp	r12, r24
    3930:	d1 04       	cpc	r13, r1
    3932:	e1 04       	cpc	r14, r1
    3934:	f1 04       	cpc	r15, r1
    3936:	28 f0       	brcs	.+10     	; 0x3942 <ReadInductance+0x260>
           timeconstant.dw -= 1;
    3938:	91 e0       	ldi	r25, 0x01	; 1
    393a:	c9 1a       	sub	r12, r25
    393c:	d1 08       	sbc	r13, r1
    393e:	e1 08       	sbc	r14, r1
    3940:	f1 08       	sbc	r15, r1
        }
        // compute the maximum Voltage umax with the Resistor of the coil
        umax = ((unsigned long)mess_r * (unsigned long)ADCconfig.U_AVCC) / total_r;
    3942:	40 91 2f 01 	lds	r20, 0x012F
    3946:	50 91 30 01 	lds	r21, 0x0130
    394a:	a1 2c       	mov	r10, r1
    394c:	b1 2c       	mov	r11, r1
        per_ref1 = ((unsigned long)tmpint * 1000) / umax;
    394e:	a8 ee       	ldi	r26, 0xE8	; 232
    3950:	b3 e0       	ldi	r27, 0x03	; 3
    3952:	0e 94 ab 31 	call	0x6356	; 0x6356 <__umulhisi3>
    3956:	2b 01       	movw	r4, r22
    3958:	3c 01       	movw	r6, r24
        if (timeconstant.w[1] >= (F_CPU/100000UL)) timeconstant.dw = 0; // no transition found
        if (timeconstant.dw > 10) {
           timeconstant.dw -= 1;
        }
        // compute the maximum Voltage umax with the Resistor of the coil
        umax = ((unsigned long)mess_r * (unsigned long)ADCconfig.U_AVCC) / total_r;
    395a:	98 01       	movw	r18, r16
    395c:	da 01       	movw	r26, r20
    395e:	0e 94 ab 31 	call	0x6356	; 0x6356 <__umulhisi3>
    3962:	a5 01       	movw	r20, r10
    3964:	94 01       	movw	r18, r8
    3966:	0e 94 6d 31 	call	0x62da	; 0x62da <__udivmodsi4>
        per_ref1 = ((unsigned long)tmpint * 1000) / umax;
    396a:	44 27       	eor	r20, r20
    396c:	55 27       	eor	r21, r21
    396e:	c3 01       	movw	r24, r6
    3970:	b2 01       	movw	r22, r4
    3972:	0e 94 6d 31 	call	0x62da	; 0x62da <__udivmodsi4>
//        per_ref2 = (uint8_t)MEM2_read_byte(&LogTab[per_ref1]);	// -log(1 - per_ref1/100)
        per_ref2 = get_log(per_ref1);		// -1000*log(1 - per_ref1/1000)
    3976:	c9 01       	movw	r24, r18
    3978:	0e 94 0a 06 	call	0xc14	; 0xc14 <get_log>
    397c:	fc 01       	movw	r30, r24
          }
#endif
/* ********************************************************* */
        // inductor_lx in 0.01mH units,  L = Tau * R
        per_ref1 = ((per_ref2 * (F_CPU/1000000UL)) + 5) / 10;
        inductance[count] = (timeconstant.dw * total_r ) / per_ref1;
    397e:	a5 01       	movw	r20, r10
    3980:	94 01       	movw	r18, r8
    3982:	c7 01       	movw	r24, r14
    3984:	b6 01       	movw	r22, r12
    3986:	0e 94 2b 31 	call	0x6256	; 0x6256 <__mulsi3>
    398a:	4b 01       	movw	r8, r22
    398c:	5c 01       	movw	r10, r24
             wait_about2s();	// debug delay
          }
#endif
/* ********************************************************* */
        // inductor_lx in 0.01mH units,  L = Tau * R
        per_ref1 = ((per_ref2 * (F_CPU/1000000UL)) + 5) / 10;
    398e:	bf 01       	movw	r22, r30
    3990:	80 e0       	ldi	r24, 0x00	; 0
    3992:	90 e0       	ldi	r25, 0x00	; 0
    3994:	23 e0       	ldi	r18, 0x03	; 3
    3996:	66 0f       	add	r22, r22
    3998:	77 1f       	adc	r23, r23
    399a:	88 1f       	adc	r24, r24
    399c:	99 1f       	adc	r25, r25
    399e:	2a 95       	dec	r18
    39a0:	d1 f7       	brne	.-12     	; 0x3996 <ReadInductance+0x2b4>
    39a2:	6b 5f       	subi	r22, 0xFB	; 251
    39a4:	7f 4f       	sbci	r23, 0xFF	; 255
    39a6:	8f 4f       	sbci	r24, 0xFF	; 255
    39a8:	9f 4f       	sbci	r25, 0xFF	; 255
    39aa:	2a e0       	ldi	r18, 0x0A	; 10
    39ac:	30 e0       	ldi	r19, 0x00	; 0
    39ae:	40 e0       	ldi	r20, 0x00	; 0
    39b0:	50 e0       	ldi	r21, 0x00	; 0
    39b2:	0e 94 6d 31 	call	0x62da	; 0x62da <__udivmodsi4>
        inductance[count] = (timeconstant.dw * total_r ) / per_ref1;
    39b6:	c5 01       	movw	r24, r10
    39b8:	b4 01       	movw	r22, r8
    39ba:	0e 94 6d 31 	call	0x62da	; 0x62da <__udivmodsi4>
    39be:	83 2d       	mov	r24, r3
    39c0:	90 e0       	ldi	r25, 0x00	; 0
    39c2:	e1 e0       	ldi	r30, 0x01	; 1
    39c4:	f0 e0       	ldi	r31, 0x00	; 0
    39c6:	ec 0f       	add	r30, r28
    39c8:	fd 1f       	adc	r31, r29
    39ca:	64 e0       	ldi	r22, 0x04	; 4
    39cc:	36 9e       	mul	r3, r22
    39ce:	e0 0d       	add	r30, r0
    39d0:	f1 1d       	adc	r31, r1
    39d2:	11 24       	eor	r1, r1
    39d4:	20 83       	st	Z, r18
    39d6:	31 83       	std	Z+1, r19	; 0x01
    39d8:	42 83       	std	Z+2, r20	; 0x02
    39da:	53 83       	std	Z+3, r21	; 0x03
        if (((count&0x01) == 0) && (timeconstant.dw > ((F_CPU/1000000UL)+3))) {
    39dc:	69 89       	ldd	r22, Y+17	; 0x11
    39de:	61 11       	cpse	r22, r1
    39e0:	17 c0       	rjmp	.+46     	; 0x3a10 <ReadInductance+0x32e>
    39e2:	6c e0       	ldi	r22, 0x0C	; 12
    39e4:	c6 16       	cp	r12, r22
    39e6:	d1 04       	cpc	r13, r1
    39e8:	e1 04       	cpc	r14, r1
    39ea:	f1 04       	cpc	r15, r1
    39ec:	88 f0       	brcs	.+34     	; 0x3a10 <ReadInductance+0x32e>
           // transition is found, measurement with delayed counter start is not necessary
           inductance[count+1] = inductance[count];	// set delayed measurement to same value
    39ee:	fc 01       	movw	r30, r24
    39f0:	31 96       	adiw	r30, 0x01	; 1
    39f2:	ee 0f       	add	r30, r30
    39f4:	ff 1f       	adc	r31, r31
    39f6:	ee 0f       	add	r30, r30
    39f8:	ff 1f       	adc	r31, r31
    39fa:	81 e0       	ldi	r24, 0x01	; 1
    39fc:	90 e0       	ldi	r25, 0x00	; 0
    39fe:	8c 0f       	add	r24, r28
    3a00:	9d 1f       	adc	r25, r29
    3a02:	e8 0f       	add	r30, r24
    3a04:	f9 1f       	adc	r31, r25
    3a06:	20 83       	st	Z, r18
    3a08:	31 83       	std	Z+1, r19	; 0x01
    3a0a:	42 83       	std	Z+2, r20	; 0x02
    3a0c:	53 83       	std	Z+3, r21	; 0x03
           count++;		// skip the delayed measurement
    3a0e:	33 94       	inc	r3
        }
        wdt_reset();
    3a10:	a8 95       	wdr
     res_num = ResistorList[0];
     if (ResistorVal[res_num] > 21000) return;
     resistor = ResistorVal[res_num];

     // we can check for Inductance, if resistance is below 2100 Ohm
     for (count=0;count<4;count++) {
    3a12:	33 94       	inc	r3
    3a14:	93 e0       	ldi	r25, 0x03	; 3
    3a16:	93 15       	cp	r25, r3
    3a18:	08 f0       	brcs	.+2      	; 0x3a1c <ReadInductance+0x33a>
    3a1a:	8c ce       	rjmp	.-744    	; 0x3734 <ReadInductance+0x52>
           inductance[count+1] = inductance[count];	// set delayed measurement to same value
           count++;		// skip the delayed measurement
        }
        wdt_reset();
     }  //end for count
     ADC_PORT = TXD_VAL;		// switch ADC Port to GND
    3a1c:	18 b8       	out	0x08, r1	; 8
     wait_about20ms();
    3a1e:	84 e0       	ldi	r24, 0x04	; 4
    3a20:	0e 94 aa 04 	call	0x954	; 0x954 <sleep_5ms>
     nr_pol1 = 0;
     if (inductance[1] > inductance[0]) { nr_pol1 = 1; } 
    3a24:	21 e0       	ldi	r18, 0x01	; 1
    3a26:	4d 81       	ldd	r20, Y+5	; 0x05
    3a28:	5e 81       	ldd	r21, Y+6	; 0x06
    3a2a:	6f 81       	ldd	r22, Y+7	; 0x07
    3a2c:	78 85       	ldd	r23, Y+8	; 0x08
    3a2e:	89 81       	ldd	r24, Y+1	; 0x01
    3a30:	9a 81       	ldd	r25, Y+2	; 0x02
    3a32:	ab 81       	ldd	r26, Y+3	; 0x03
    3a34:	bc 81       	ldd	r27, Y+4	; 0x04
    3a36:	84 17       	cp	r24, r20
    3a38:	95 07       	cpc	r25, r21
    3a3a:	a6 07       	cpc	r26, r22
    3a3c:	b7 07       	cpc	r27, r23
    3a3e:	08 f0       	brcs	.+2      	; 0x3a42 <ReadInductance+0x360>
    3a40:	20 e0       	ldi	r18, 0x00	; 0
     nr_pol2 = 2;
     if (inductance[3] > inductance[2]) { nr_pol2 = 3; } 
    3a42:	4d 85       	ldd	r20, Y+13	; 0x0d
    3a44:	5e 85       	ldd	r21, Y+14	; 0x0e
    3a46:	6f 85       	ldd	r22, Y+15	; 0x0f
    3a48:	78 89       	ldd	r23, Y+16	; 0x10
    3a4a:	89 85       	ldd	r24, Y+9	; 0x09
    3a4c:	9a 85       	ldd	r25, Y+10	; 0x0a
    3a4e:	ab 85       	ldd	r26, Y+11	; 0x0b
    3a50:	bc 85       	ldd	r27, Y+12	; 0x0c
    3a52:	84 17       	cp	r24, r20
    3a54:	95 07       	cpc	r25, r21
    3a56:	a6 07       	cpc	r26, r22
    3a58:	b7 07       	cpc	r27, r23
    3a5a:	10 f0       	brcs	.+4      	; 0x3a60 <ReadInductance+0x37e>
     }  //end for count
     ADC_PORT = TXD_VAL;		// switch ADC Port to GND
     wait_about20ms();
     nr_pol1 = 0;
     if (inductance[1] > inductance[0]) { nr_pol1 = 1; } 
     nr_pol2 = 2;
    3a5c:	32 e0       	ldi	r19, 0x02	; 2
    3a5e:	01 c0       	rjmp	.+2      	; 0x3a62 <ReadInductance+0x380>
     if (inductance[3] > inductance[2]) { nr_pol2 = 3; } 
    3a60:	33 e0       	ldi	r19, 0x03	; 3
     if (inductance[nr_pol2] < inductance[nr_pol1]) nr_pol1 = nr_pol2;
    3a62:	e2 2f       	mov	r30, r18
    3a64:	f0 e0       	ldi	r31, 0x00	; 0
    3a66:	ee 0f       	add	r30, r30
    3a68:	ff 1f       	adc	r31, r31
    3a6a:	ee 0f       	add	r30, r30
    3a6c:	ff 1f       	adc	r31, r31
    3a6e:	81 e0       	ldi	r24, 0x01	; 1
    3a70:	90 e0       	ldi	r25, 0x00	; 0
    3a72:	8c 0f       	add	r24, r28
    3a74:	9d 1f       	adc	r25, r29
    3a76:	e8 0f       	add	r30, r24
    3a78:	f9 1f       	adc	r31, r25
    3a7a:	dc 01       	movw	r26, r24
    3a7c:	94 e0       	ldi	r25, 0x04	; 4
    3a7e:	39 9f       	mul	r19, r25
    3a80:	a0 0d       	add	r26, r0
    3a82:	b1 1d       	adc	r27, r1
    3a84:	11 24       	eor	r1, r1
    3a86:	4d 91       	ld	r20, X+
    3a88:	5d 91       	ld	r21, X+
    3a8a:	6d 91       	ld	r22, X+
    3a8c:	7c 91       	ld	r23, X
    3a8e:	80 81       	ld	r24, Z
    3a90:	91 81       	ldd	r25, Z+1	; 0x01
    3a92:	a2 81       	ldd	r26, Z+2	; 0x02
    3a94:	b3 81       	ldd	r27, Z+3	; 0x03
    3a96:	48 17       	cp	r20, r24
    3a98:	59 07       	cpc	r21, r25
    3a9a:	6a 07       	cpc	r22, r26
    3a9c:	7b 07       	cpc	r23, r27
    3a9e:	08 f0       	brcs	.+2      	; 0x3aa2 <ReadInductance+0x3c0>
        }
        wdt_reset();
     }  //end for count
     ADC_PORT = TXD_VAL;		// switch ADC Port to GND
     wait_about20ms();
     nr_pol1 = 0;
    3aa0:	32 2f       	mov	r19, r18
     if (inductance[1] > inductance[0]) { nr_pol1 = 1; } 
     nr_pol2 = 2;
     if (inductance[3] > inductance[2]) { nr_pol2 = 3; } 
     if (inductance[nr_pol2] < inductance[nr_pol1]) nr_pol1 = nr_pol2;
     inductor_lx = inductance[nr_pol1];
    3aa2:	e1 e0       	ldi	r30, 0x01	; 1
    3aa4:	f0 e0       	ldi	r31, 0x00	; 0
    3aa6:	ec 0f       	add	r30, r28
    3aa8:	fd 1f       	adc	r31, r29
    3aaa:	24 e0       	ldi	r18, 0x04	; 4
    3aac:	32 9f       	mul	r19, r18
    3aae:	e0 0d       	add	r30, r0
    3ab0:	f1 1d       	adc	r31, r1
    3ab2:	11 24       	eor	r1, r1
    3ab4:	80 81       	ld	r24, Z
    3ab6:	91 81       	ldd	r25, Z+1	; 0x01
    3ab8:	a2 81       	ldd	r26, Z+2	; 0x02
    3aba:	b3 81       	ldd	r27, Z+3	; 0x03
    3abc:	80 93 09 01 	sts	0x0109, r24
    3ac0:	90 93 0a 01 	sts	0x010A, r25
    3ac4:	a0 93 0b 01 	sts	0x010B, r26
    3ac8:	b0 93 0c 01 	sts	0x010C, r27
     inductor_lpre = -5;	// 10 uH units
     if (((nr_pol1 & 1) == 1) || (resistor >= 240)) {
    3acc:	30 fd       	sbrc	r19, 0
    3ace:	09 c0       	rjmp	.+18     	; 0x3ae2 <ReadInductance+0x400>
    3ad0:	2a 89       	ldd	r18, Y+18	; 0x12
    3ad2:	3b 89       	ldd	r19, Y+19	; 0x13
    3ad4:	20 3f       	cpi	r18, 0xF0	; 240
    3ad6:	31 05       	cpc	r19, r1
    3ad8:	20 f4       	brcc	.+8      	; 0x3ae2 <ReadInductance+0x400>
     if (inductance[1] > inductance[0]) { nr_pol1 = 1; } 
     nr_pol2 = 2;
     if (inductance[3] > inductance[2]) { nr_pol2 = 3; } 
     if (inductance[nr_pol2] < inductance[nr_pol1]) nr_pol1 = nr_pol2;
     inductor_lx = inductance[nr_pol1];
     inductor_lpre = -5;	// 10 uH units
    3ada:	8b ef       	ldi	r24, 0xFB	; 251
    3adc:	80 93 01 01 	sts	0x0101, r24
    3ae0:	17 c0       	rjmp	.+46     	; 0x3b10 <ReadInductance+0x42e>
     if (((nr_pol1 & 1) == 1) || (resistor >= 240)) {
        // with 680 Ohm resistor total_r is more than 7460
        inductor_lpre = -4;	// 100 uH units
    3ae2:	2c ef       	ldi	r18, 0xFC	; 252
    3ae4:	20 93 01 01 	sts	0x0101, r18
        inductor_lx = (inductor_lx + 5) / 10;
    3ae8:	bc 01       	movw	r22, r24
    3aea:	cd 01       	movw	r24, r26
    3aec:	6b 5f       	subi	r22, 0xFB	; 251
    3aee:	7f 4f       	sbci	r23, 0xFF	; 255
    3af0:	8f 4f       	sbci	r24, 0xFF	; 255
    3af2:	9f 4f       	sbci	r25, 0xFF	; 255
    3af4:	2a e0       	ldi	r18, 0x0A	; 10
    3af6:	30 e0       	ldi	r19, 0x00	; 0
    3af8:	40 e0       	ldi	r20, 0x00	; 0
    3afa:	50 e0       	ldi	r21, 0x00	; 0
    3afc:	0e 94 6d 31 	call	0x62da	; 0x62da <__udivmodsi4>
    3b00:	20 93 09 01 	sts	0x0109, r18
    3b04:	30 93 0a 01 	sts	0x010A, r19
    3b08:	40 93 0b 01 	sts	0x010B, r20
    3b0c:	50 93 0c 01 	sts	0x010C, r21
     } 
     if (inductor_lx == 0) inductor_lpre = 0;	//mark as zero
    3b10:	80 91 09 01 	lds	r24, 0x0109
    3b14:	90 91 0a 01 	lds	r25, 0x010A
    3b18:	a0 91 0b 01 	lds	r26, 0x010B
    3b1c:	b0 91 0c 01 	lds	r27, 0x010C
    3b20:	89 2b       	or	r24, r25
    3b22:	8a 2b       	or	r24, r26
    3b24:	8b 2b       	or	r24, r27
    3b26:	11 f4       	brne	.+4      	; 0x3b2c <ReadInductance+0x44a>
    3b28:	10 92 01 01 	sts	0x0101, r1

  // switch all ports to input
  ADC_DDR =  TXD_MSK;		// switch all ADC ports to input
    3b2c:	17 b8       	out	0x07, r1	; 7
  R_DDR = 0;			// switch all resistor ports to input
    3b2e:	14 b8       	out	0x04, r1	; 4
#endif
  return;
 } // end ReadInductance()
    3b30:	63 96       	adiw	r28, 0x13	; 19
    3b32:	e2 e1       	ldi	r30, 0x12	; 18
    3b34:	0c 94 ec 31 	jmp	0x63d8	; 0x63d8 <__epilogue_restores__>

00003b38 <GetESR>:
       	out	_SFR_IO_ADDR(SREG), r0;
	out	_SFR_IO_ADDR(SPL), r28;
#else
 .extern __prologue_saves__
 .extern __epilogue_restores__
	ldi	r26, 30			;
    3b38:	ae e1       	ldi	r26, 0x1E	; 30
	ldi	r27, 0			;
    3b3a:	b0 e0       	ldi	r27, 0x00	; 0
	ldi	r30, lo8(gs(Retur2))	;
    3b3c:	e2 ea       	ldi	r30, 0xA2	; 162
	ldi	r31, hi8(gs(Retur2))	;
    3b3e:	fd e1       	ldi	r31, 0x1D	; 29
	jmp	__prologue_saves__ 	;
    3b40:	0c 94 d0 31 	jmp	0x63a0	; 0x63a0 <__prologue_saves__>

00003b44 <Retur2>:

#if TP_MIN > 0
	subi	r22, TP_MIN
	subi	r24, TP_MIN
#endif
	mov	SelectLowPin, r22;
    3b44:	66 2e       	mov	r6, r22
	mov	SelectHighPin, r24;
    3b46:	b8 2e       	mov	r11, r24
        add	r24, r22;
    3b48:	86 0f       	add	r24, r22
	std	Y+1, r24;
    3b4a:	89 83       	std	Y+1, r24	; 0x01

	lds	r18, PartFound;		/* if (PartFound == PART_CAPACITOR) { */
    3b4c:	20 91 1a 01 	lds	r18, 0x011A
	cpi	r18, PART_CAPACITOR;	
    3b50:	28 30       	cpi	r18, 0x08	; 8
; 	brne	ad_35e4;
	brne	load_max;
    3b52:	59 f5       	brne	.+86     	; 0x3baa <load_max>
	lds	r18, cap+cval_max;      /* cap_val_nF = cap.cval_max; */
    3b54:	20 91 77 01 	lds	r18, 0x0177
	lds	r19, cap+cval_max+1;
    3b58:	30 91 78 01 	lds	r19, 0x0178
	lds	r20, cap+cval_max+2;
    3b5c:	40 91 79 01 	lds	r20, 0x0179
	lds	r21, cap+cval_max+3;
    3b60:	50 91 7a 01 	lds	r21, 0x017A
        sbrc	r21, 7;			/* negativ bit is set */
    3b64:	57 fd       	sbrc	r21, 7
	rjmp	set_high
    3b66:	15 c0       	rjmp	.+42     	; 0x3b92 <set_high>
	lds	r17, cap+cpre_max;      /* prefix = cap.cpre_max; */
    3b68:	10 91 86 01 	lds	r17, 0x0186
	rjmp	ad_35ba;
    3b6c:	09 c0       	rjmp	.+18     	; 0x3b80 <ad_35ba>

00003b6e <ad_35ac>:

ad_35ac:
	movw	r24, r20;               /* cval /= 10;          // reduce value by factor ten */
    3b6e:	ca 01       	movw	r24, r20
	movw	r22, r18
    3b70:	b9 01       	movw	r22, r18
	ldi	r18, 0x0A; 10
    3b72:	2a e0       	ldi	r18, 0x0A	; 10
	mov	r19, zero_reg
    3b74:	31 2d       	mov	r19, r1
	mov	r20, zero_reg
    3b76:	41 2d       	mov	r20, r1
	mov	r21, zero_reg
    3b78:	51 2d       	mov	r21, r1
	call	__udivmodsi4;           /* r18:21 = r22:25  / r18:21 */
    3b7a:	0e 94 6d 31 	call	0x62da	; 0x62da <__udivmodsi4>
	subi	r17, 0xFF;              /* prefix++;            // take next decimal prefix */
    3b7e:	1f 5f       	subi	r17, 0xFF	; 255

00003b80 <ad_35ba>:

ad_35ba:
	cpi	r17, -9;                /* while (prefix < -9) { // set cval to nF unit */
    3b80:	17 3f       	cpi	r17, 0xF7	; 247
	brlt	ad_35ac;                /*  } */
    3b82:	ac f3       	brlt	.-22     	; 0x3b6e <ad_35ac>
        brne    load_max;		/* load max value for correction */
    3b84:	91 f4       	brne	.+36     	; 0x3baa <load_max>


;	cpi	r18, lo8(900/10);       /* if (cap_val_nF < (900/10)) return(0xffff);   //capacity lower than 90 nF */
;	ldi	r22, hi8(900/10)
	cpi	r18, lo8(200/10);       /* if (cap_val_nF < (200/10)) return(0xffff);   //capacity lower than 20 nF */
    3b86:	24 31       	cpi	r18, 0x14	; 20
	ldi	r22, hi8(200/10)
    3b88:	60 e0       	ldi	r22, 0x00	; 0
	cpc	r19, r22
    3b8a:	36 07       	cpc	r19, r22
	cpc	r20, zero_reg
    3b8c:	41 05       	cpc	r20, r1
	cpc	r21, zero_reg
    3b8e:	51 05       	cpc	r21, r1
	brcc	ad_35e4
    3b90:	18 f4       	brcc	.+6      	; 0x3b98 <ad_35e4>

00003b92 <set_high>:
set_high:
	ldi	r24, 0xff;
    3b92:	8f ef       	ldi	r24, 0xFF	; 255
	ldi	r25, 0xff;
    3b94:	9f ef       	ldi	r25, 0xFF	; 255
	rjmp	ad_exit; 
    3b96:	45 c1       	rjmp	.+650    	; 0x3e22 <ad_exit>

00003b98 <ad_35e4>:
ad_35e4:				/* } */
	cpi	r17, -9;		/* if ((pp > -9) || (cap_val_nF > 32000)) { */
    3b98:	17 3f       	cpi	r17, 0xF7	; 247
	brne	load_max;
    3b9a:	39 f4       	brne	.+14     	; 0x3baa <load_max>
	ldi	r24, lo8(32000);
    3b9c:	80 e0       	ldi	r24, 0x00	; 0
	cp	r18, r24
    3b9e:	28 17       	cp	r18, r24
        ldi	r24, hi8(32000);
    3ba0:	8d e7       	ldi	r24, 0x7D	; 125
	cpc	r19, r24;
    3ba2:	38 07       	cpc	r19, r24
;	ldi	r24, hlo8(32000);
;	cpc	r20, r24;
	cpc	r20, r1;
    3ba4:	41 05       	cpc	r20, r1
;	ldi	r24, hhi8(32000);
;	cpc	r21, r24;
	cpc	r20, r1;
    3ba6:	41 05       	cpc	r20, r1
	brcs	store_cvn;
    3ba8:	10 f0       	brcs	.+4      	; 0x3bae <store_cvn>

00003baa <load_max>:
load_max:
	ldi	r18, lo8(32000);		/* cap_val_nF = 65000 */
    3baa:	20 e0       	ldi	r18, 0x00	; 0
	ldi	r19, hi8(32000);
    3bac:	3d e7       	ldi	r19, 0x7D	; 125

00003bae <store_cvn>:
;	ldi	r20, hlo8(32000);		/* upper word is allways zero */
;	ldi	r21, hhi8(32000);		/* upper word is allways zero */
store_cvn:
	std	Y+cap_val_nF, r18
    3bae:	2c 8b       	std	Y+20, r18	; 0x14
	std	Y+cap_val_nF+1, r19
    3bb0:	3d 8b       	std	Y+21, r19	; 0x15
     /* normal ADC-speed, ADC-Clock 8us */
	ldi	r25, (1<<ADEN) | (1<<ADIF) | (1<<ADIE) | AUTO_CLOCK_DIV; /* enable ADC and Interrupt */
	mov	StartADCmsk, r25;
	sts	ADCSRA, StartADCmsk; 	/*  ADCSRA = StartADCmsk;	// enable ADC and Interrupt */
#else
	ldi	r18, (1<<ADSC) | (1<<ADEN) | (1<<ADIF) | AUTO_CLOCK_DIV; /* enable and start ADC */
    3bb2:	26 ed       	ldi	r18, 0xD6	; 214
	mov	StartADCmsk, r18;
    3bb4:	a2 2e       	mov	r10, r18
#endif

#if (((PIN_RL1 + 1) != PIN_RH1) || ((PIN_RL2 + 1) != PIN_RH2) || ((PIN_RL3 + 1) != PIN_RH3))
	LDIZ	PinRLRHADCtab+6; 	/* LoADC = pgm_read_byte((&PinRLRHADCtab[6])+cap.ca) | TXD_MSK; */
#else
	LDIZ	PinRLRHADCtab+3; 	/* LoADC = pgm_read_byte((&PinRLRHADCtab[3])+cap.ca) | TXD_MSK; */
    3bb6:	e3 e9       	ldi	r30, 0x93	; 147
    3bb8:	f1 e0       	ldi	r31, 0x01	; 1
#endif
	add	r30, SelectLowPin;
    3bba:	e6 0d       	add	r30, r6
	adc	r31, zero_reg;
    3bbc:	f1 1d       	adc	r31, r1
	lpm	r24, Z+;
    3bbe:	85 91       	lpm	r24, Z+
	ori	r24, TXD_MSK;
    3bc0:	80 60       	ori	r24, 0x00	; 0
	std	Y+LoADC, r24;
    3bc2:	8e 87       	std	Y+14, r24	; 0x0e

#if (((PIN_RL1 + 1) != PIN_RH1) || ((PIN_RL2 + 1) != PIN_RH2) || ((PIN_RL3 + 1) != PIN_RH3))
	LDIZ	PinRLRHADCtab+6; 	/* HiADC = pgm_read_byte((&PinRLRHADCtab[6])+cap.cb) | TXD_MSK; */
#else
	LDIZ	PinRLRHADCtab+3; 	/* HiADC = pgm_read_byte((&PinRLRHADCtab[3])+cap.cb) | TXD_MSK; */
    3bc4:	e3 e9       	ldi	r30, 0x93	; 147
    3bc6:	f1 e0       	ldi	r31, 0x01	; 1
#endif
	add	r30, SelectHighPin;
    3bc8:	eb 0d       	add	r30, r11
	adc	r31, zero_reg;
    3bca:	f1 1d       	adc	r31, r1
	lpm	r24, Z+;
    3bcc:	85 91       	lpm	r24, Z+
	ori	r24, TXD_MSK;
    3bce:	80 60       	ori	r24, 0x00	; 0
	std	Y+HiADC, r24;
    3bd0:	8f 87       	std	Y+15, r24	; 0x0f

	LDIZ	PinRLRHADCtab;	/* LoPinR_L = pgm_read_byte(&PinRLRHADCtab[cap.ca]);  //R_L mask for LowPin R_L load */
    3bd2:	e0 e9       	ldi	r30, 0x90	; 144
    3bd4:	f1 e0       	ldi	r31, 0x01	; 1
	add	r30, SelectLowPin;
    3bd6:	e6 0d       	add	r30, r6
	adc	r31, zero_reg;
    3bd8:	f1 1d       	adc	r31, r1
	lpm	LoPinR_L, Z+;
    3bda:	75 90       	lpm	r7, Z+

	LDIZ	PinRLRHADCtab;	/* HiPinR_L = pgm_read_byte(&PinRLRHADCtab[cap.cb]);	//R_L mask for HighPin R_L load */
    3bdc:	e0 e9       	ldi	r30, 0x90	; 144
    3bde:	f1 e0       	ldi	r31, 0x01	; 1
	add	r30, SelectHighPin;
    3be0:	eb 0d       	add	r30, r11
	adc	r31, zero_reg;
    3be2:	f1 1d       	adc	r31, r1
	lpm	HiPinR_L, Z+;
    3be4:	c5 90       	lpm	r12, Z+
	or	SelectLowPin, r25;
	//  SelectHighPin = (cap.cb | (1<<REFS1) | (0<<REFS0));	// switch ADC to HighPin, Internal Ref. 
	or	SelectHighPin, r25;
#else
	//  SelectLowPin = (cap.ca | (1<<REFS1) | (1<<REFS0));	// switch ADC to LowPin, Internal Ref. 
	ldi	r25, (1<<REFS1)|(1<<REFS0);	0xC0
    3be6:	90 ec       	ldi	r25, 0xC0	; 192
	or	SelectLowPin, r25;
    3be8:	69 2a       	or	r6, r25
	//  SelectHighPin = (cap.cb | (1<<REFS1) | (1<<REFS0));	// switch ADC to HighPin, Internal Ref. 
	or	SelectHighPin, r25;
    3bea:	b9 2a       	or	r11, r25
#endif


	// Measurement of ESR of capacitors AC Mode
	ldi	r24, 0x01; 	/* sumvolt0 = 1;	// set sum of LowPin voltage to 1 to prevent divide by zero */
    3bec:	81 e0       	ldi	r24, 0x01	; 1
	mov	r14, r24;
    3bee:	e8 2e       	mov	r14, r24
	mov	r15, zero_reg;
    3bf0:	f1 2c       	mov	r15, r1
	mov	r16, zero_reg;
    3bf2:	01 2d       	mov	r16, r1
	mov	r17, zero_reg;
    3bf4:	11 2d       	mov	r17, r1
	std	Y+sumvolt1, r24;	/* sumvolt1 = 1;	// clear sum of HighPin voltage with current */
    3bf6:	8e 83       	std	Y+6, r24	; 0x06
	//                                // offset is about (x*10*200)/34000 in 0.01 Ohm units
	std	Y+sumvolt1+1, zero_reg;
    3bf8:	1f 82       	std	Y+7, r1	; 0x07
	std	Y+sumvolt1+2, zero_reg;
    3bfa:	18 86       	std	Y+8, r1	; 0x08
	std	Y+sumvolt1+3, zero_reg;
    3bfc:	19 86       	std	Y+9, r1	; 0x09
	std	Y+sumvolt2, zero_reg;	/* sumvolt2 = 0;	// clear sum of HighPin voltage without current */
    3bfe:	1a 86       	std	Y+10, r1	; 0x0a
	std	Y+sumvolt2+1, zero_reg;
    3c00:	1b 86       	std	Y+11, r1	; 0x0b
	std	Y+sumvolt2+2, zero_reg;
    3c02:	1c 86       	std	Y+12, r1	; 0x0c
	std	Y+sumvolt2+3, zero_reg;
    3c04:	1d 86       	std	Y+13, r1	; 0x0d
	std	Y+LowUpCount, zero_reg;
    3c06:	18 8e       	std	Y+24, r1	; 0x18
	std	Y+HighUpCount, zero_reg;
    3c08:	19 8e       	std	Y+25, r1	; 0x19
	std	Y+HighTooHigh, zero_reg;
    3c0a:	1b 8e       	std	Y+27, r1	; 0x1b
	std	Y+LowTooHigh, zero_reg;
    3c0c:	1a 8e       	std	Y+26, r1	; 0x1a
	call	EntladePins;	/* EntladePins();	// discharge capacitor */
    3c0e:	0e 94 76 14 	call	0x28ec	; 0x28ec <EntladePins>
	ldi	r24, TXD_VAL;
    3c12:	80 e0       	ldi	r24, 0x00	; 0
	AOUT	ADC_PORT, r24; /* ADC_PORT = TXD_VAL;	// switch ADC-Port to GND */
    3c14:	88 b9       	out	0x08, r24	; 8
	sts	ADMUX, SelectLowPin;	/* ADMUX = SelectLowPin;	// set Mux input and Voltage Reference to internal 1.1V */
    3c16:	60 92 7c 00 	sts	0x007C, r6
#ifdef NO_AREF_CAP
	call	wait100us;			/* time for voltage stabilization */
    3c1a:	0e 94 9e 04 	call	0x93c	; 0x93c <wait100us>
#else
	call	wait10ms;    		/* time for voltage stabilization with 100nF */
#endif
	/* start voltage should be negativ */
	ldd	r19, Y+HiADC;		/* ADC_DDR = HiADC;	// switch High Pin to GND */
    3c1e:	3f 85       	ldd	r19, Y+15	; 0x0f
	AOUT	ADC_DDR, r19;		/* switch High Pin to GND */
    3c20:	37 b9       	out	0x07, r19	; 7
	AOUT	R_PORT, LoPinR_L	/* r7 */
    3c22:	75 b8       	out	0x05, r7	; 5
	AOUT	R_DDR, LoPinR_L		/* r7 */
    3c24:	74 b8       	out	0x04, r7	; 4
	ldi	r21, (HALF_PULSE_LENGTH_TICS/3)
    3c26:	52 e0       	ldi	r21, 0x02	; 2

00003c28 <plop1>:
plop1:
	dec	r21
    3c28:	5a 95       	dec	r21
	brne	plop1
    3c2a:	f1 f7       	brne	.-4      	; 0x3c28 <plop1>
#if (HALF_PULSE_LENGTH_TICS % 3) > 1
	nop
    3c2c:	00 00       	nop
#endif
#if (HALF_PULSE_LENGTH_TICS % 3) > 0
	nop
    3c2e:	00 00       	nop
#endif
	AOUT	R_DDR, zero_reg;	/* R_DDR = 0 */
    3c30:	14 b8       	out	0x04, r1	; 4
	AOUT	R_PORT, zero_reg;	/* R_PORT = 0 */
    3c32:	15 b8       	out	0x05, r1	; 5

	   // Measurement frequency is given by sum of ADC-Reads < 1116 Hz for normal ADC speed.
	   // ADC Sample and Hold (SH) is done 1.5 ADC clock number after real start of conversion.
	   // Real ADC-conversion is started with the next ADC-Clock (125kHz) after setting the ADSC bit.
	eor	r13, r13;			/* for(ii=0;ii<MAX_CNT;ii++) { */
    3c34:	dd 24       	eor	r13, r13

00003c36 <esr_loop>:
						// That will cause too high voltage without current.
	//         adcv[0] = ADCW;		// Voltage LowPin with current
	//         ADMUX = SelectHighPin;
	      /* ********* Forward direction, connect Low side with GND *********** */
esr_loop:
	ldd	r19, Y+LoADC;
    3c36:	3e 85       	ldd	r19, Y+14	; 0x0e
	AOUT	ADC_DDR, r19;		/* ADC_DDR = LoADC;	// switch Low-Pin to output (GND) */
    3c38:	37 b9       	out	0x07, r19	; 7
	AOUT	R_PORT, LoPinR_L;	/* R_PORT = LoPinR_L (r7) */
    3c3a:	75 b8       	out	0x05, r7	; 5
	AOUT	R_DDR, LoPinR_L;	/* R_DDR = LoPinR_L (r7) */
    3c3c:	74 b8       	out	0x04, r7	; 4
	sts	ADMUX, SelectLowPin;		/* ADMUX = SelectLowPin; */
    3c3e:	60 92 7c 00 	sts	0x007C, r6

	wdr	;				/* wdt_reset(); */
    3c42:	a8 95       	wdr
;=#=	StartADCwait			/* start ADC and wait */
	StartADCwait			/* start ADC and wait */
    3c44:	a0 92 7a 00 	sts	0x007A, r10
    3c48:	80 91 7a 00 	lds	r24, 0x007A
    3c4c:	86 fd       	sbrc	r24, 6
    3c4e:	fc cf       	rjmp	.-8      	; 0x3c48 <esr_loop+0x12>
	lds	adcv0L, ADCW;			/* adcv[0] = ADCW;	// Voltage LowPin reference */
    3c50:	20 90 78 00 	lds	r2, 0x0078
	lds	adcv0H, ADCW+1;
    3c54:	30 90 79 00 	lds	r3, 0x0079
	sts	ADMUX, SelectHighPin;		/* ADMUX = SelectHighPin; */
    3c58:	b0 92 7c 00 	sts	0x007C, r11

	mov	r20, HiPinR_L
    3c5c:	4c 2d       	mov	r20, r12
	rcall	strtADC_pulse		; start ADC, generate pulse and wait 
    3c5e:	e5 d0       	rcall	.+458    	; 0x3e2a <strtADC_pulse>

	lds	r18, ADCW;		/* adcv[1] = ADCW;	// Voltage HighPin with current */
    3c60:	20 91 78 00 	lds	r18, 0x0078
	lds	r19, ADCW+1;
    3c64:	30 91 79 00 	lds	r19, 0x0079
	sts	ADCSRA, StartADCmsk; 	/*  ADCSRA = StartADCmsk;	// enable ADC and Interrupt */
#endif

;=======

	std	Y+adcvv1, r18;
    3c68:	28 8b       	std	Y+16, r18	; 0x10
	std	Y+adcvv1+1, r19;
    3c6a:	39 8b       	std	Y+17, r19	; 0x11

	      /* ********* Reverse direction, connect High side with GND *********** */
	ldd	r19, Y+HiADC;		/* ADC_DDR = HiADC;	// switch High Pin to GND */
    3c6c:	3f 85       	ldd	r19, Y+15	; 0x0f
	AOUT	ADC_DDR, r19;		/* ADC_DDR = HiADC;	// switch High-Pin to output (GND) */
    3c6e:	37 b9       	out	0x07, r19	; 7
	AOUT	R_PORT, HiPinR_L;	/* R_PORT = HiPinR_L (r12);	// switch R-Port to VCC */
    3c70:	c5 b8       	out	0x05, r12	; 5
	AOUT	R_DDR, HiPinR_L;	/* R_DDR = HiPinR_L (r12);	// switch R_L port for HighPin to output (VCC) */
    3c72:	c4 b8       	out	0x04, r12	; 4

	wdr	;			/* wdt_reset(); */
    3c74:	a8 95       	wdr
	sts	ADMUX, SelectHighPin;	/* ADMUX = SelectHighPin; */
    3c76:	b0 92 7c 00 	sts	0x007C, r11

;=#=	StartADCwait		/* start ADC and wait */
	StartADCwait		/* start ADC and wait */
    3c7a:	a0 92 7a 00 	sts	0x007A, r10
    3c7e:	80 91 7a 00 	lds	r24, 0x007A
    3c82:	86 fd       	sbrc	r24, 6
    3c84:	fc cf       	rjmp	.-8      	; 0x3c7e <esr_loop+0x48>

	lds	r22, ADCW;         	/* adcv[2] = ADCW;	// Reverse Reference Voltage HighPin  */
    3c86:	60 91 78 00 	lds	r22, 0x0078
	lds	r23, ADCW+1;
    3c8a:	70 91 79 00 	lds	r23, 0x0079
	sts	ADMUX, SelectLowPin;	/*  ADMUX = SelectLowPin; */
    3c8e:	60 92 7c 00 	sts	0x007C, r6
	// ****** Polling mode big cap
	mov	r20, LoPinR_L
    3c92:	47 2d       	mov	r20, r7
	rcall	strtADC_pulse		; start ADC, generate pulse and wait 
    3c94:	ca d0       	rcall	.+404    	; 0x3e2a <strtADC_pulse>

	lds	r20, ADCW;		/* adcv[3] = ADCW;	//  Voltage LowPin with current */
    3c96:	40 91 78 00 	lds	r20, 0x0078
	lds	r21, ADCW+1;
    3c9a:	50 91 79 00 	lds	r21, 0x0079
#ifdef ADC_Sleep_Mode
	sts	ADCSRA, StartADCmsk; 	/*  ADCSRA = StartADCmsk;	// enable ADC and Interrupt */
#endif

	AOUT	R_DDR, zero_reg; 	/* R_DDR = 0; // switch current off */
    3c9e:	14 b8       	out	0x04, r1	; 4

	movw	r24, r22;		/*  adcv[2] */
    3ca0:	cb 01       	movw	r24, r22
	add	r24, adcv0L;		/* adcv[0] + adcv[2] // add sum of both LowPin voltages with current */
    3ca2:	82 0d       	add	r24, r2
	adc	r25, adcv0H;
    3ca4:	93 1d       	adc	r25, r3

	add	r14, r24;		/* r14:17 = sumvolt0 += (adcv[0] + adcv[2]); */
    3ca6:	e8 0e       	add	r14, r24
	adc	r15, r25;
    3ca8:	f9 1e       	adc	r15, r25
	adc	r16, zero_reg;
    3caa:	01 1d       	adc	r16, r1
	adc	r17, zero_reg;
    3cac:	11 1d       	adc	r17, r1
	std	Y+sumvolt0, r14;
    3cae:	ea 82       	std	Y+2, r14	; 0x02
	std	Y+sumvolt0+1, r15;
    3cb0:	fb 82       	std	Y+3, r15	; 0x03
	std	Y+sumvolt0+2, r16;
    3cb2:	0c 83       	std	Y+4, r16	; 0x04
	std	Y+sumvolt0+3, r17;
    3cb4:	1d 83       	std	Y+5, r17	; 0x05
	ldd	r24, Y+adcvv1;		/* add HighPin voltages with current */
    3cb6:	88 89       	ldd	r24, Y+16	; 0x10
	ldd	r25, Y+adcvv1+1; 
    3cb8:	99 89       	ldd	r25, Y+17	; 0x11
	add	r24, r20;		/* adcv[1] + adcv[3] */
    3cba:	84 0f       	add	r24, r20
	adc	r25, r21;
    3cbc:	95 1f       	adc	r25, r21
	ldd	r18, Y+sumvolt1;	/* sumvolt1 += (adcv[1] + adcv[3]); */
    3cbe:	2e 81       	ldd	r18, Y+6	; 0x06
	ldd	r19, Y+sumvolt1+1;
    3cc0:	3f 81       	ldd	r19, Y+7	; 0x07
	ldd	r22, Y+sumvolt1+2;
    3cc2:	68 85       	ldd	r22, Y+8	; 0x08
	ldd	r23, Y+sumvolt1+3;
    3cc4:	79 85       	ldd	r23, Y+9	; 0x09
	add	r18, r24;
    3cc6:	28 0f       	add	r18, r24
	adc	r19, r25;
    3cc8:	39 1f       	adc	r19, r25
	adc	r22, zero_reg;
    3cca:	61 1d       	adc	r22, r1
	adc	r23, zero_reg;
    3ccc:	71 1d       	adc	r23, r1
	std	Y+sumvolt1, r18;
    3cce:	2e 83       	std	Y+6, r18	; 0x06
	std	Y+sumvolt1+1, r19;
    3cd0:	3f 83       	std	Y+7, r19	; 0x07
	std	Y+sumvolt1+2, r22;
    3cd2:	68 87       	std	Y+8, r22	; 0x08
	std	Y+sumvolt1+3, r23;
    3cd4:	79 87       	std	Y+9, r23	; 0x09

/*===================================================================================================*/
/*      Range Check for voltages  */
  	/* Y+adcvv1 is still the voltage of forward direction, r20:21 the voltage of reverse direction */
	ldi	r18, lo8(50);
    3cd6:	22 e3       	ldi	r18, 0x32	; 50
	cp	r18, r20;
    3cd8:	24 17       	cp	r18, r20
	cpc	zero_reg, r21;
    3cda:	15 06       	cpc	r1, r21
	brcs	is_ok1;		/* r20:21 >= 50 */
    3cdc:	50 f0       	brcs	.+20     	; 0x3cf2 <is_ok1>
	AOUT	R_PORT, LoPinR_L;	/* R_PORT = LoPinR_L (r7);  */
    3cde:	75 b8       	out	0x05, r7	; 5
	AOUT	R_DDR, LoPinR_L;	/* R_DDR = LoPinR_L (r7);	// switch LowPin with 680 Ohm to VCC */
    3ce0:	74 b8       	out	0x04, r7	; 4
	call	wait1us;			/* additional charge the capacitor */
    3ce2:	0e 94 a8 04 	call	0x950	; 0x950 <wait1us>
	AOUT	R_DDR, zero_reg; 	// switch current off
    3ce6:	14 b8       	out	0x04, r1	; 4
	AOUT	R_PORT, zero_reg; 
    3ce8:	15 b8       	out	0x05, r1	; 5
	ldd	r24, Y+LowUpCount; 	/* count additional load pulses at Low side */
    3cea:	88 8d       	ldd	r24, Y+24	; 0x18
	inc	r24;
    3cec:	83 95       	inc	r24
	std	Y+LowUpCount, r24;
    3cee:	88 8f       	std	Y+24, r24	; 0x18
	rjmp	is_ok1b;
    3cf0:	07 c0       	rjmp	.+14     	; 0x3d00 <is_ok1b>

00003cf2 <is_ok1>:
is_ok1:
	cpi	r20, lo8(1000);
    3cf2:	48 3e       	cpi	r20, 0xE8	; 232
        ldi	r23, hi8(1000);
    3cf4:	73 e0       	ldi	r23, 0x03	; 3
	cpc	r21, r23;
    3cf6:	57 07       	cpc	r21, r23
        brcs	is_ok1b;			/* voltage reverse direction < 1000 */
    3cf8:	18 f0       	brcs	.+6      	; 0x3d00 <is_ok1b>
	ldd	r24, Y+LowTooHigh; 	/* count  pulses with too high voltage at Low side */
    3cfa:	8a 8d       	ldd	r24, Y+26	; 0x1a
	inc	r24;
    3cfc:	83 95       	inc	r24
	std	Y+LowTooHigh, r24;
    3cfe:	8a 8f       	std	Y+26, r24	; 0x1a

00003d00 <is_ok1b>:
is_ok1b:
	ldd	r24, Y+adcvv1;
    3d00:	88 89       	ldd	r24, Y+16	; 0x10
	ldd	r25, Y+adcvv1+1;
    3d02:	99 89       	ldd	r25, Y+17	; 0x11
	cp	r18, r24;
    3d04:	28 17       	cp	r18, r24
	cpc	zero_reg, r25;	/* adcvv1 >= 50 */
    3d06:	19 06       	cpc	r1, r25
	brcs	is_ok2;
    3d08:	60 f0       	brcs	.+24     	; 0x3d22 <is_ok2>
	ldd	r19, Y+LoADC;
    3d0a:	3e 85       	ldd	r19, Y+14	; 0x0e
	AOUT	ADC_DDR, r19;		/* ADC_DDR = LoADC;	// switch Low-Pin to output (GND) */
    3d0c:	37 b9       	out	0x07, r19	; 7
	AOUT	R_PORT, HiPinR_L;	/* R_PORT = HiPinR_L (r12);	// switch R-Port to VCC */
    3d0e:	c5 b8       	out	0x05, r12	; 5
	AOUT	R_DDR, HiPinR_L;	/* R_DDR = HiPinR_L (r12);	// switch R_L port for HighPin to output (VCC) */
    3d10:	c4 b8       	out	0x04, r12	; 4
	call	wait1us;			/* additional charge the capacitor */
    3d12:	0e 94 a8 04 	call	0x950	; 0x950 <wait1us>
;##	DelayBigCap;			/* wait the time defined by macro */
	AOUT	R_DDR, zero_reg;	/* R_DDR = 0; // switch current off,  SH is 1.5 ADC clock behind real start */
    3d16:	14 b8       	out	0x04, r1	; 4
	AOUT	R_PORT, zero_reg;	/* R_PORT = 0; */
    3d18:	15 b8       	out	0x05, r1	; 5
	ldd	r24, Y+HighUpCount;	/* count additional load pulses at High side */
    3d1a:	89 8d       	ldd	r24, Y+25	; 0x19
	inc	r24;
    3d1c:	83 95       	inc	r24
	std	Y+HighUpCount, r24;
    3d1e:	89 8f       	std	Y+25, r24	; 0x19
	rjmp	is_ok2b;
    3d20:	07 c0       	rjmp	.+14     	; 0x3d30 <is_ok2b>

00003d22 <is_ok2>:
is_ok2:
	cpi	r24, lo8(1000);
    3d22:	88 3e       	cpi	r24, 0xE8	; 232
        ldi	r23, hi8(1000);
    3d24:	73 e0       	ldi	r23, 0x03	; 3
	cpc	r25, r23;
    3d26:	97 07       	cpc	r25, r23
        brcs	is_ok2b;			/* voltage forward direction < 1000 */
    3d28:	18 f0       	brcs	.+6      	; 0x3d30 <is_ok2b>
	ldd	r24, Y+HighTooHigh; 	/* count  pulses with too high voltage at High side */
    3d2a:	8b 8d       	ldd	r24, Y+27	; 0x1b
	inc	r24;
    3d2c:	83 95       	inc	r24
	std	Y+HighTooHigh, r24;
    3d2e:	8b 8f       	std	Y+27, r24	; 0x1b

00003d30 <is_ok2b>:
is_ok2b:
/*===================================================================================================*/
	inc	r13;			/* for(    ;ii<MAX_CNT;ii++)  */
    3d30:	d3 94       	inc	r13
	mov	r21, r13;
    3d32:	5d 2d       	mov	r21, r13
	cpi	r21, MAX_CNT;
    3d34:	5f 3f       	cpi	r21, 0xFF	; 255
	breq	ad_38ac;
    3d36:	49 f0       	breq	.+18     	; 0x3d4a <ad_38ac>
#if FLASHEND > 0x3fff
  /* use additional 470k only with processors with more than 16k */
        cpi	r21, MAX_CNT/2;
    3d38:	5f 37       	cpi	r21, 0x7F	; 127
        brne	jesr_loop
    3d3a:	31 f4       	brne	.+12     	; 0x3d48 <jesr_loop>
	add	r30, r21;
	adc	r31, zero_reg;
	lpm	r21, Z+;
	add	LoPinR_L, r21		; enable also the 470k resistor
 #else
	mov	r21, HiPinR_L
    3d3c:	5c 2d       	mov	r21, r12
	add	r21, r21	; quick and dirty: usually is double HiPinR_H
    3d3e:	55 0f       	add	r21, r21
	add	HiPinR_L, r21
    3d40:	c5 0e       	add	r12, r21
	mov	r21, LoPinR_L
    3d42:	57 2d       	mov	r21, r7
	add	r21, r21	; quick and dirty: usually is double LoPinR_H
    3d44:	55 0f       	add	r21, r21
	add	LoPinR_L, r21
    3d46:	75 0e       	add	r7, r21

00003d48 <jesr_loop>:
 #endif
jesr_loop:
#endif
	rjmp	esr_loop;		/* } // end for */
    3d48:	76 cf       	rjmp	.-276    	; 0x3c36 <esr_loop>

00003d4a <ad_38ac>:

#if RRpinMI == PIN_RM
	ldi	r18, lo8(PIN_RM*10);
	ldi	r19, hi8(PIN_RM*10);
#else
	lds	r4, RRpinMI;		/*  pin_rmi */
    3d4a:	40 90 38 01 	lds	r4, 0x0138
	lds	r5, RRpinMI+1;
    3d4e:	50 90 39 01 	lds	r5, 0x0139
	add	r4, r4;		RRpinMI*2
    3d52:	44 0c       	add	r4, r4
	adc	r5, r5;
    3d54:	55 1c       	adc	r5, r5
	movw	r18, r4;
    3d56:	92 01       	movw	r18, r4
	ldi	r30, 4;
    3d58:	e4 e0       	ldi	r30, 0x04	; 4

00003d5a <ad_2r>:
ad_2r:
	add	r18, r4;		+ 4*(2*RRpinMI)
    3d5a:	24 0d       	add	r18, r4
	adc	r19, r5;
    3d5c:	35 1d       	adc	r19, r5
	dec	r30;
    3d5e:	ea 95       	dec	r30
	brne	ad_2r;			add next (2*RRpinMI)
    3d60:	e1 f7       	brne	.-8      	; 0x3d5a <ad_2r>
#endif
	movw	r4, r18;		/* r4:5 = 10 * RRpinMI */
    3d62:	29 01       	movw	r4, r18
	movw	r10, r14;		/* r10:13 = r14:17 = sumvolt0 */
    3d64:	57 01       	movw	r10, r14
	movw	r12, r16;
    3d66:	68 01       	movw	r12, r16

	ldd	r6, Y+sumvolt1;
    3d68:	6e 80       	ldd	r6, Y+6	; 0x06
	ldd	r7, Y+sumvolt1+1;
    3d6a:	7f 80       	ldd	r7, Y+7	; 0x07
	ldd	r8, Y+sumvolt1+2;
    3d6c:	88 84       	ldd	r8, Y+8	; 0x08
	ldd	r9, Y+sumvolt1+3;
    3d6e:	99 84       	ldd	r9, Y+9	; 0x09
/* ############################################################ */
	lds	r18, PartFound;		/* if (PartFound == PART_CAPACITOR) { */
    3d70:	20 91 1a 01 	lds	r18, 0x011A
	cpi	r18, PART_CAPACITOR;	
    3d74:	28 30       	cpi	r18, 0x08	; 8
 	brne	no_sub;			/* it is not a capacitor */
    3d76:	c1 f4       	brne	.+48     	; 0x3da8 <no_sub>
/* Aproximation of 5000*(1 - exp(13.5e-6/(cap_val_nF*1.e-9*(0.1*(PIN_RM+PIN_RP+R_L_VAL)))) - 2500*(1 - exp(-27e-6/(cap_val_nF*1.e-9*(0.1*(PIN_RM+PIN_RP+R_L_VAL))))) */
/*  is done by ((6744116/(PIN_RM+PIN_RP+R_L_VAL))*(6744116/(PIN_RM+PIN_RP+R_L_VAL))) / (cap_val_nF * (cap_val_nF + (137180/(PIN_RM+PIN_RP+R_L_VAL)))) */
/*  is done by 872520 / (cap_val_nF * (cap_val_nF + 19)) */
; #define FAKTOR_ESR (9537620/(PIN_RM+PIN_RP+R_L_VAL))

	ldd	r22, Y+cap_val_nF;	/* sumvolt1 -= (1745098UL*MAX_CNT) / (cap_val_nF * (cap_val_nF + 19)); */
    3d78:	6c 89       	ldd	r22, Y+20	; 0x14
	ldd	r23, Y+cap_val_nF+1;
    3d7a:	7d 89       	ldd	r23, Y+21	; 0x15
;	ldd	r24, Y+cap_val_nF+2;
	mov	r24, r1			/* upper bits of cap_val_nF are allway zero */
    3d7c:	81 2d       	mov	r24, r1
;	ldd	r25, Y+cap_val_nF+3;
	mov	r25, r1			/* upper bits of cap_val_nF are allway zero */
    3d7e:	91 2d       	mov	r25, r1
;#define FAKTOR_ESR (780000/(PIN_RM+PIN_RP+R_L_VAL))	/* 127 */
 #else
;#define FAKTOR_ESR (920000/(PIN_RM+PIN_RP+R_L_VAL))	/* 127 */
;#define CAP_OFFSET (433200/(PIN_RM+PIN_RP+R_L_VAL))	/* 60 nF */
 #endif
      	subi	r22, lo8(CAP_OFFSET); 0xED; 237
    3d80:	65 50       	subi	r22, 0x05	; 5
      	sbci	r23, hi8(CAP_OFFSET); 0xFF; 255
    3d82:	70 40       	sbci	r23, 0x00	; 0
      	sbci	r24, hlo8(CAP_OFFSET); 0xFF; 255
    3d84:	80 40       	sbci	r24, 0x00	; 0
      	sbci	r25, hhi8(CAP_OFFSET); 0xFF; 255
    3d86:	90 40       	sbci	r25, 0x00	; 0
	movw	r18, r22;		/* r18:21 = r22:25 = (cap_val_nF-60); */
    3d88:	9b 01       	movw	r18, r22
	movw	r20, r24;
    3d8a:	ac 01       	movw	r20, r24
	call	__mulsi3;		/* (cap_val_nF - 60) * (cap_val_nF - 60) */
    3d8c:	0e 94 2b 31 	call	0x6256	; 0x6256 <__mulsi3>

       	movw	r18, r22;
    3d90:	9b 01       	movw	r18, r22
       	movw	r20, r24;
    3d92:	ac 01       	movw	r20, r24
       	ldi	r22, lo8(FAKTOR_ESR*FAKTOR_ESR*MAX_CNT); 0x36; 54
    3d94:	60 e7       	ldi	r22, 0x70	; 112
       	ldi	r23, hi8(FAKTOR_ESR*FAKTOR_ESR*MAX_CNT); 0x29; 41
    3d96:	79 e7       	ldi	r23, 0x79	; 121
       	ldi	r24, hlo8(FAKTOR_ESR*FAKTOR_ESR*MAX_CNT); 0x86; 134
    3d98:	86 e1       	ldi	r24, 0x16	; 22
       	ldi	r25, hhi8(FAKTOR_ESR*FAKTOR_ESR*MAX_CNT); 0x1A; 26
    3d9a:	90 e0       	ldi	r25, 0x00	; 0
	call	__udivmodsi4;
    3d9c:	0e 94 6d 31 	call	0x62da	; 0x62da <__udivmodsi4>
	sub	r6, r18
    3da0:	62 1a       	sub	r6, r18
	sbc	r7, r19
    3da2:	73 0a       	sbc	r7, r19
	sbc	r8, r20
    3da4:	84 0a       	sbc	r8, r20
	sbc	r9, r21
    3da6:	95 0a       	sbc	r9, r21

00003da8 <no_sub>:
no_sub:				/* } */
/* ############################################################ */

	cp	r10, r6;		/* if (sumvolt1 > sumvolt0) {  */
    3da8:	a6 14       	cp	r10, r6
	cpc	r11, r7;
    3daa:	b7 04       	cpc	r11, r7
	cpc	r12, r8;
    3dac:	c8 04       	cpc	r12, r8
	cpc	r13, r9;
    3dae:	d9 04       	cpc	r13, r9
	brcc	ad_396c;
    3db0:	28 f4       	brcc	.+10     	; 0x3dbc <ad_396c>
	sub	r6, r10;		/* sumvolt1 -= sumvolt0;	// difference HighPin - LowPin Voltage with current */
    3db2:	6a 18       	sub	r6, r10
	sbc	r7, r11;
    3db4:	7b 08       	sbc	r7, r11
	sbc	r8, r12;
    3db6:	8c 08       	sbc	r8, r12
	sbc	r9, r13;
    3db8:	9d 08       	sbc	r9, r13
	rjmp	ad_3972;		/* } else { */
    3dba:	03 c0       	rjmp	.+6      	; 0x3dc2 <ad_3972>

00003dbc <ad_396c>:
ad_396c:
	eor	r6, r6;			/* sumvolt1 = 0; */
    3dbc:	66 24       	eor	r6, r6
	eor	r7, r7
    3dbe:	77 24       	eor	r7, r7
	movw	r8, r6
    3dc0:	43 01       	movw	r8, r6

00003dc2 <ad_3972>:
	ldi	r20, '#';
	ldi	r18, 4	;
	call	DisplayValue16;
	call	wait2s
#endif
	movw	r22, r4
    3dc2:	b2 01       	movw	r22, r4
	ldi	r24, 0x00;
    3dc4:	80 e0       	ldi	r24, 0x00	; 0
	ldi	r25, 0x00;	/*  r22:25 = 10 * (unsigned long)RRpinMI)  */
    3dc6:	90 e0       	ldi	r25, 0x00	; 0
	      // mean voltage at the capacitor is higher with current
	      // sumvolt0 is the sum of voltages at LowPin, caused by output resistance of Port
	      // RRpinMI is the port output resistance in 0.1 Ohm units.
	      // we scale up the difference voltage with 10 to get 0.01 Ohm units of ESR
		/* esrvalue = (sumvolt1 * 10 * (unsigned long)RRpinMI) / sumvolt0; */
	movw	r18, r6;		/* r18:21 = r6:9 = sumvolt1 */
    3dc8:	93 01       	movw	r18, r6
	movw	r20, r8;
    3dca:	a4 01       	movw	r20, r8
	call	__mulsi3;		/* r22:25 = r22:25 * r18:21 */
    3dcc:	0e 94 2b 31 	call	0x6256	; 0x6256 <__mulsi3>
	movw	r18, r10;	/* r18:21 = r10:13 = sumvolt0 */
    3dd0:	95 01       	movw	r18, r10
	movw	r20, r12;
    3dd2:	a6 01       	movw	r20, r12
	call	__udivmodsi4;		/* r18:21 = r22:25  / r18:21 */
    3dd4:	0e 94 6d 31 	call	0x62da	; 0x62da <__udivmodsi4>
	ldi	r24, lo8(EE_ESR_ZEROtab);	/* esr0 = (int8_t)eeprom_read_byte(&EE_ESR_ZEROtab[lopin+hipin]); */
    3dd8:	87 e1       	ldi	r24, 0x17	; 23
	ldi	r25, hi8(EE_ESR_ZEROtab);
    3dda:	93 e0       	ldi	r25, 0x03	; 3
        ldd	r23, Y+1;
    3ddc:	79 81       	ldd	r23, Y+1	; 0x01
        add	r24, r23;
    3dde:	87 0f       	add	r24, r23
	adc	r25, zero_reg;
    3de0:	91 1d       	adc	r25, r1
	call	eeprom_read_byte;
    3de2:	0e 94 4b 32 	call	0x6496	; 0x6496 <__eerd_byte_m328p>
	mov	r6, r24;
    3de6:	68 2e       	mov	r6, r24
	movw	r24,r18;	/* r24:25 = r18:19 = esrvalue */
    3de8:	c9 01       	movw	r24, r18
	ldi	r22, 16;
    3dea:	60 e1       	ldi	r22, 0x10	; 16
	ldi	r23, 0;
    3dec:	70 e0       	ldi	r23, 0x00	; 0
	call	__udivmodhi4	/* r22:23 = r24:25 / r22:23 */
    3dee:	0e 94 46 31 	call	0x628c	; 0x628c <__udivmodhi4>
	add	r18, r22;	/* esrvalue += esrvalue / 16; */
    3df2:	26 0f       	add	r18, r22
	adc	r19, r23;
    3df4:	37 1f       	adc	r19, r23
	movw	r24,r18;	/* esrvalue */
    3df6:	c9 01       	movw	r24, r18
	cp	r6, r24;		/* if (esrvalue > esr0) esrvalue -= esr0; */
    3df8:	68 16       	cp	r6, r24
	cpc	zero_reg, r25;
    3dfa:	19 06       	cpc	r1, r25
	brcc	esr_too_less;
    3dfc:	18 f4       	brcc	.+6      	; 0x3e04 <esr_too_less>
	sub	r24, r6;		/* - esr0 */ 
    3dfe:	86 19       	sub	r24, r6
	sbc	r25, zero_reg;
    3e00:	91 09       	sbc	r25, r1
	rjmp	ad_exit;
    3e02:	0f c0       	rjmp	.+30     	; 0x3e22 <ad_exit>

00003e04 <esr_too_less>:
esr_too_less:
#ifdef AUTO_CAL
        subi	r24, lo8(-R_LIMIT_TO_UNCALIBRATED);		/* + 0.20 Ohm */
    3e04:	8c 5e       	subi	r24, 0xEC	; 236
        sbci	r25, hi8(-R_LIMIT_TO_UNCALIBRATED);		/* esrvalue + 20 */
    3e06:	9f 4f       	sbci	r25, 0xFF	; 255
	cp	r24, r6;		/* if ((esrvalue+20) < esr0) ; */
    3e08:	86 15       	cp	r24, r6
	cpc	r25, zero_reg;
    3e0a:	91 05       	cpc	r25, r1
	brcc	esr_too_less2;
    3e0c:	40 f4       	brcc	.+16     	; 0x3e1e <esr_too_less2>
	ldd	r24, Y+cap_val_nF;	/* mark only, if cap_val_nF > 4500 */
    3e0e:	8c 89       	ldd	r24, Y+20	; 0x14
	ldd     r25, Y+cap_val_nF+1;
    3e10:	9d 89       	ldd	r25, Y+21	; 0x15
;	ldd	r26, Y+cap_val_nF+2;	/* the upper bits (cap_val_nF+2|3) are always zero */ 
	cpi	r24, lo8(4500);
    3e12:	84 39       	cpi	r24, 0x94	; 148
	ldi	r24, hi8(4500);
    3e14:	81 e1       	ldi	r24, 0x11	; 17
	cpc	r25, r24;
    3e16:	98 07       	cpc	r25, r24
	brcs	esr_too_less2;
    3e18:	10 f0       	brcs	.+4      	; 0x3e1e <esr_too_less2>
	call	mark_as_uncalibrated;
    3e1a:	0e 94 a7 0a 	call	0x154e	; 0x154e <mark_as_uncalibrated>

00003e1e <esr_too_less2>:
/*	ldi	r24,'<'; */
/*	call	lcd_data; */
esr_too_less2:
#endif
	mov	r24, zero_reg;
    3e1e:	81 2d       	mov	r24, r1
	mov	r25, zero_reg;
    3e20:	91 2d       	mov	r25, r1

00003e22 <ad_exit>:
	pop	r4;
	pop	r3;
	pop	r2;
	ret;
#else
	adiw	r28, 30
    3e22:	6e 96       	adiw	r28, 0x1e	; 30
	ldi	r30, 18
    3e24:	e2 e1       	ldi	r30, 0x12	; 18
	jmp	__epilogue_restores__
    3e26:	0c 94 ec 31 	jmp	0x63d8	; 0x63d8 <__epilogue_restores__>

00003e2a <strtADC_pulse>:
    delay to pin high: lds,sbrc,sts and out Instructions are 7 clock tics */
  #define PIN_HIGH_DELAY (6+OUT_DELAY + 3 + (F_CPU_HZ/4000000))
 #endif
 #define WAST_TICS (((TICS_PER_ADC_CLOCK*5)/2) - HALF_PULSE_LENGTH_TICS - PIN_HIGH_DELAY)
#else
	sts	TCCR1B, r1		; stop counter1
    3e2a:	10 92 81 00 	sts	0x0081, r1
	sts	TCCR1A, r1		; TCCR1A = 0 , normal port operation
    3e2e:	10 92 80 00 	sts	0x0080, r1
	sts	TIMSK1, r1		; disable all timer1 interrupts
    3e32:	10 92 6f 00 	sts	0x006F, r1
	sts	OCR1BH, r1		; OCR!B = 0
    3e36:	10 92 8b 00 	sts	0x008B, r1
	sts	OCR1BL, r1
    3e3a:	10 92 8a 00 	sts	0x008A, r1
	ldi	r21, (1<<OCF1B) | (1<<OCF1A) | (1<<TOV1)
    3e3e:	57 e0       	ldi	r21, 0x07	; 7
	AOUT	TIFR1, r21			; clear flags
    3e40:	56 bb       	out	0x16, r21	; 22
	ldi	r21, 0xff
    3e42:	5f ef       	ldi	r21, 0xFF	; 255
	sts	TCNT1H, r21		; TCNT1 = -1
    3e44:	50 93 85 00 	sts	0x0085, r21
	sts	TCNT1L, r21
    3e48:	50 93 84 00 	sts	0x0084, r21
	ldi	r21, (1<<ADTS2) | (1<<ADTS0)	; Start ADC with counter1 compare B
    3e4c:	55 e0       	ldi	r21, 0x05	; 5
	sts	ADCSRB, r21
    3e4e:	50 93 7b 00 	sts	0x007B, r21
	ldi	r21, (1<<ADEN) | (1<<ADATE) | (1<<ADIF) | AUTO_CLOCK_DIV;	/* enable ADC */
    3e52:	56 eb       	ldi	r21, 0xB6	; 182
	sts	ADCSRA, r21;		/* ADCSRA = (1<<ADEN) | (1<<ADSC) | (1<<ADIF) | AUTO_CLOCK_DIV; // enable ADC */
    3e54:	50 93 7a 00 	sts	0x007A, r21

	ldi	r21, (1<<CS10) 
    3e58:	51 e0       	ldi	r21, 0x01	; 1
	sts	TCCR1B, r21		; Start Counter 1 with full speed
    3e5a:	50 93 81 00 	sts	0x0081, r21
 #define PIN_HIGH_DELAY (OUT_DELAY - 5 + (F_CPU_HZ/4000000))
 #define WAST_TICS ((TICS_PER_ADC_CLOCK*2) - HALF_PULSE_LENGTH_TICS - PIN_HIGH_DELAY)
#endif
; additional delay to the start of current pulse
	ldi	r21, (WAST_TICS/3)
    3e5e:	58 e2       	ldi	r21, 0x28	; 40

00003e60 <wlop1>:
wlop1:
	dec	r21
    3e60:	5a 95       	dec	r21
	brne	wlop1
    3e62:	f1 f7       	brne	.-4      	; 0x3e60 <wlop1>
#if (WAST_TICS % 3) > 1
	nop
#endif
#if (WAST_TICS % 3) > 0
	nop
    3e64:	00 00       	nop
#endif
	AOUT	R_PORT, r20;		/* R_PORT = HiPinR_L (r12);	// switch R-Port to VCC */
    3e66:	45 b9       	out	0x05, r20	; 5
	AOUT	R_DDR, r20;		/* R_DDR = HiPinR_L (r12);	// switch R_L port for HighPin to output (VCC) */
    3e68:	44 b9       	out	0x04, r20	; 4
;	AOUT	R_PORT, LoPinR_L;	/* R_PORT = LoPinR_L (r7) ; */
;	AOUT	R_DDR, LoPinR_L;	/* R_DDR = LoPinR_L (r7) ;	// switch LowPin with 680 Ohm to VCC */
#define FULL_PULSE_LENGTH_TICS ((HALF_PULSE_LENGTH_TICS*2)+(MHZ_CPU/14))
	ldi	r21, (FULL_PULSE_LENGTH_TICS/3)
    3e6a:	55 e0       	ldi	r21, 0x05	; 5

00003e6c <plop2>:
plop2:
	dec	r21
    3e6c:	5a 95       	dec	r21
	brne	plop2
    3e6e:	f1 f7       	brne	.-4      	; 0x3e6c <plop2>
#if (FULL_PULSE_LENGTH_TICS % 3) > 1
	nop
#endif
#if (FULL_PULSE_LENGTH_TICS % 3) > 0
	nop
    3e70:	00 00       	nop
#endif
	AOUT	R_DDR, zero_reg;	/* R_DDR = 0; // switch current off,  SH is 1.5 ADC clock behind real start */
    3e72:	14 b8       	out	0x04, r1	; 4
	AOUT	R_PORT, zero_reg;	/* R_PORT = 0; */
    3e74:	15 b8       	out	0x05, r1	; 5
#ifndef WITHOUT_CNT_START
	sts	TCCR1B, r1		; stop counter1
    3e76:	10 92 81 00 	sts	0x0081, r1

00003e7a <wadfin2>:
#endif

wadfin2:
	lds	r24, ADCSRA;		/* while (ADCSRA&(1<<ADSC));	// wait for conversion finished */
    3e7a:	80 91 7a 00 	lds	r24, 0x007A
	sbrs	r24, ADIF;
    3e7e:	84 ff       	sbrs	r24, 4
	rjmp	wadfin2;
    3e80:	fc cf       	rjmp	.-8      	; 0x3e7a <wadfin2>
	sts	ADCSRA, r24		; clear flags
    3e82:	80 93 7a 00 	sts	0x007A, r24
	ret
    3e86:	08 95       	ret

00003e88 <GetVloss>:
#include <stdlib.h>
#include "Transistortester.h"


//=================================================================
void GetVloss() {
    3e88:	a4 e0       	ldi	r26, 0x04	; 4
    3e8a:	b0 e0       	ldi	r27, 0x00	; 0
    3e8c:	ea e4       	ldi	r30, 0x4A	; 74
    3e8e:	ff e1       	ldi	r31, 0x1F	; 31
    3e90:	0c 94 d8 31 	jmp	0x63b0	; 0x63b0 <__prologue_saves__+0x10>
  } lval;
  uint8_t ii;
  uint8_t HiPinR_L;
  uint8_t LoADC;

  if (cap.v_loss > 0) {
    3e94:	80 91 81 01 	lds	r24, 0x0181
    3e98:	90 91 82 01 	lds	r25, 0x0182
    3e9c:	89 2b       	or	r24, r25
    3e9e:	09 f0       	breq	.+2      	; 0x3ea2 <GetVloss+0x1a>
    3ea0:	b2 c0       	rjmp	.+356    	; 0x4006 <GetVloss+0x17e>
     return;		// Voltage loss is already known (big Capacitor)
  }
#if (((PIN_RL1 + 1) != PIN_RH1) || ((PIN_RL2 + 1) != PIN_RH2) || ((PIN_RL3 + 1) != PIN_RH3))
  LoADC = pgm_read_byte((&PinRLRHADCtab[6])+cap.ca-TP_MIN) | TXD_MSK;
#else
  LoADC = pgm_read_byte((&PinRLRHADCtab[3])+cap.ca-TP_MIN) | TXD_MSK;
    3ea2:	e0 91 83 01 	lds	r30, 0x0183
    3ea6:	f0 e0       	ldi	r31, 0x00	; 0
    3ea8:	ed 56       	subi	r30, 0x6D	; 109
    3eaa:	fe 4f       	sbci	r31, 0xFE	; 254
    3eac:	04 91       	lpm	r16, Z
#endif
  HiPinR_L = pgm_read_byte(&PinRLRHADCtab[cap.cb-TP_MIN]);	//R_L mask for HighPin R_L load
    3eae:	e0 91 84 01 	lds	r30, 0x0184
    3eb2:	f0 e0       	ldi	r31, 0x00	; 0
    3eb4:	e0 57       	subi	r30, 0x70	; 112
    3eb6:	fe 4f       	sbci	r31, 0xFE	; 254
    3eb8:	14 91       	lpm	r17, Z

  EntladePins();			// discharge capacitor
    3eba:	0e 94 76 14 	call	0x28ec	; 0x28ec <EntladePins>
  ADC_PORT = TXD_VAL;			// switch ADC-Port to GND
    3ebe:	18 b8       	out	0x08, r1	; 8
  R_PORT = 0;				// switch R-Port to GND
    3ec0:	15 b8       	out	0x05, r1	; 5
  ADC_DDR = LoADC;			// switch Low-Pin to output (GND)
    3ec2:	07 b9       	out	0x07, r16	; 7
  R_DDR = HiPinR_L;			// switch R_L port for HighPin to output (GND)
    3ec4:	14 b9       	out	0x04, r17	; 4
  adcv[0] = ReadADC(cap.cb);		// voltage before any load 
    3ec6:	80 91 84 01 	lds	r24, 0x0184
    3eca:	0e 94 e2 04 	call	0x9c4	; 0x9c4 <ReadADC>
    3ece:	5c 01       	movw	r10, r24
// ******** should adcv[0] be measured without current???
  if ((cap.cpre_max > -9) || (cap.cpre_max < -12)) return;	// too much or too less capacity
    3ed0:	00 91 86 01 	lds	r16, 0x0186
    3ed4:	8c e0       	ldi	r24, 0x0C	; 12
    3ed6:	80 0f       	add	r24, r16
    3ed8:	84 30       	cpi	r24, 0x04	; 4
    3eda:	08 f0       	brcs	.+2      	; 0x3ede <GetVloss+0x56>
    3edc:	94 c0       	rjmp	.+296    	; 0x4006 <GetVloss+0x17e>
  lval.dw = cap.cval_max;
  for (ii=cap.cpre_max+15;ii<7;ii++) {
    3ede:	01 5f       	subi	r16, 0xF1	; 241
    3ee0:	80 91 77 01 	lds	r24, 0x0177
    3ee4:	90 91 78 01 	lds	r25, 0x0178
    3ee8:	a0 91 79 01 	lds	r26, 0x0179
    3eec:	b0 91 7a 01 	lds	r27, 0x017A
     lval.dw = (lval.dw + 5) / 10;
    3ef0:	2a e0       	ldi	r18, 0x0A	; 10
    3ef2:	c2 2e       	mov	r12, r18
    3ef4:	d1 2c       	mov	r13, r1
    3ef6:	e1 2c       	mov	r14, r1
    3ef8:	f1 2c       	mov	r15, r1
    3efa:	bc 01       	movw	r22, r24
    3efc:	cd 01       	movw	r24, r26
    3efe:	6b 5f       	subi	r22, 0xFB	; 251
    3f00:	7f 4f       	sbci	r23, 0xFF	; 255
    3f02:	8f 4f       	sbci	r24, 0xFF	; 255
    3f04:	9f 4f       	sbci	r25, 0xFF	; 255
    3f06:	a7 01       	movw	r20, r14
    3f08:	96 01       	movw	r18, r12
    3f0a:	0e 94 6d 31 	call	0x62da	; 0x62da <__udivmodsi4>
  R_DDR = HiPinR_L;			// switch R_L port for HighPin to output (GND)
  adcv[0] = ReadADC(cap.cb);		// voltage before any load 
// ******** should adcv[0] be measured without current???
  if ((cap.cpre_max > -9) || (cap.cpre_max < -12)) return;	// too much or too less capacity
  lval.dw = cap.cval_max;
  for (ii=cap.cpre_max+15;ii<7;ii++) {
    3f0e:	0f 5f       	subi	r16, 0xFF	; 255
    3f10:	07 30       	cpi	r16, 0x07	; 7
    3f12:	19 f0       	breq	.+6      	; 0x3f1a <GetVloss+0x92>
     lval.dw = (lval.dw + 5) / 10;
    3f14:	da 01       	movw	r26, r20
    3f16:	c9 01       	movw	r24, r18
    3f18:	f0 cf       	rjmp	.-32     	; 0x3efa <GetVloss+0x72>
  }
  if (lval.dw > 5000) {
    3f1a:	29 38       	cpi	r18, 0x89	; 137
    3f1c:	83 e1       	ldi	r24, 0x13	; 19
    3f1e:	38 07       	cpc	r19, r24
    3f20:	41 05       	cpc	r20, r1
    3f22:	51 05       	cpc	r21, r1
    3f24:	08 f0       	brcs	.+2      	; 0x3f28 <GetVloss+0xa0>
    3f26:	6f c0       	rjmp	.+222    	; 0x4006 <GetVloss+0x17e>
     /* capacity more than 50uF, Voltage loss is already measured  */
     return;
  }
  if (lval.w[0] < 5) return;		// Capacity below 5nF
    3f28:	25 30       	cpi	r18, 0x05	; 5
    3f2a:	31 05       	cpc	r19, r1
    3f2c:	08 f4       	brcc	.+2      	; 0x3f30 <GetVloss+0xa8>
    3f2e:	6b c0       	rjmp	.+214    	; 0x4006 <GetVloss+0x17e>
  R_PORT = HiPinR_L;			//R_L to 1 (VCC) 
    3f30:	15 b9       	out	0x05, r17	; 5
  R_DDR = HiPinR_L;			//switch Pin to output, across R to GND or VCC
    3f32:	14 b9       	out	0x04, r17	; 4
  for (tmpint=0;tmpint<lval.w[0];tmpint+=2) {
    3f34:	00 e0       	ldi	r16, 0x00	; 0
    3f36:	10 e0       	ldi	r17, 0x00	; 0
    3f38:	02 17       	cp	r16, r18
    3f3a:	13 07       	cpc	r17, r19
    3f3c:	68 f4       	brcc	.+26     	; 0x3f58 <GetVloss+0xd0>
//     wait50us();			// wait exactly 50us
     wait5us();			// wait exactly 5us
    3f3e:	29 83       	std	Y+1, r18	; 0x01
    3f40:	3a 83       	std	Y+2, r19	; 0x02
    3f42:	4b 83       	std	Y+3, r20	; 0x03
    3f44:	5c 83       	std	Y+4, r21	; 0x04
    3f46:	0e 94 a4 04 	call	0x948	; 0x948 <wait5us>
     return;
  }
  if (lval.w[0] < 5) return;		// Capacity below 5nF
  R_PORT = HiPinR_L;			//R_L to 1 (VCC) 
  R_DDR = HiPinR_L;			//switch Pin to output, across R to GND or VCC
  for (tmpint=0;tmpint<lval.w[0];tmpint+=2) {
    3f4a:	0e 5f       	subi	r16, 0xFE	; 254
    3f4c:	1f 4f       	sbci	r17, 0xFF	; 255
    3f4e:	5c 81       	ldd	r21, Y+4	; 0x04
    3f50:	4b 81       	ldd	r20, Y+3	; 0x03
    3f52:	3a 81       	ldd	r19, Y+2	; 0x02
    3f54:	29 81       	ldd	r18, Y+1	; 0x01
    3f56:	f0 cf       	rjmp	.-32     	; 0x3f38 <GetVloss+0xb0>
//     wait50us();			// wait exactly 50us
     wait5us();			// wait exactly 5us
  }
  R_DDR = 0;				// switch back to input
    3f58:	14 b8       	out	0x04, r1	; 4
  R_PORT = 0;			// no Pull up
    3f5a:	15 b8       	out	0x05, r1	; 5
 // wait10us();			//wait a little time
  wdt_reset();
    3f5c:	a8 95       	wdr
  // read voltage without current
  ADCconfig.Samples = 5;		// set ADC to only 5 samples
    3f5e:	85 e0       	ldi	r24, 0x05	; 5
    3f60:	80 93 2b 01 	sts	0x012B, r24
  adcv[2] = ReadADC(cap.cb);
    3f64:	80 91 84 01 	lds	r24, 0x0184
    3f68:	29 83       	std	Y+1, r18	; 0x01
    3f6a:	3a 83       	std	Y+2, r19	; 0x02
    3f6c:	4b 83       	std	Y+3, r20	; 0x03
    3f6e:	5c 83       	std	Y+4, r21	; 0x04
    3f70:	0e 94 e2 04 	call	0x9c4	; 0x9c4 <ReadADC>
  if (adcv[2] > adcv[0]) {
    3f74:	29 81       	ldd	r18, Y+1	; 0x01
    3f76:	3a 81       	ldd	r19, Y+2	; 0x02
    3f78:	4b 81       	ldd	r20, Y+3	; 0x03
    3f7a:	5c 81       	ldd	r21, Y+4	; 0x04
    3f7c:	a8 16       	cp	r10, r24
    3f7e:	b9 06       	cpc	r11, r25
    3f80:	20 f4       	brcc	.+8      	; 0x3f8a <GetVloss+0x102>
     adcv[2] -= adcv[0];		//difference to beginning voltage
    3f82:	7c 01       	movw	r14, r24
    3f84:	ea 18       	sub	r14, r10
    3f86:	fb 08       	sbc	r15, r11
    3f88:	02 c0       	rjmp	.+4      	; 0x3f8e <GetVloss+0x106>
  } else {
     adcv[2] = 0;			// voltage is lower or same as beginning voltage
    3f8a:	e1 2c       	mov	r14, r1
    3f8c:	f1 2c       	mov	r15, r1
  }
  // wait 2x the time which was required for loading
  for (tmpint=0;tmpint<lval.w[0];tmpint++) {
    3f8e:	00 e0       	ldi	r16, 0x00	; 0
    3f90:	10 e0       	ldi	r17, 0x00	; 0
    3f92:	02 17       	cp	r16, r18
    3f94:	13 07       	cpc	r17, r19
    3f96:	68 f4       	brcc	.+26     	; 0x3fb2 <GetVloss+0x12a>
//     wait50us();
     wait5us();
    3f98:	29 83       	std	Y+1, r18	; 0x01
    3f9a:	3a 83       	std	Y+2, r19	; 0x02
    3f9c:	4b 83       	std	Y+3, r20	; 0x03
    3f9e:	5c 83       	std	Y+4, r21	; 0x04
    3fa0:	0e 94 a4 04 	call	0x948	; 0x948 <wait5us>
     adcv[2] -= adcv[0];		//difference to beginning voltage
  } else {
     adcv[2] = 0;			// voltage is lower or same as beginning voltage
  }
  // wait 2x the time which was required for loading
  for (tmpint=0;tmpint<lval.w[0];tmpint++) {
    3fa4:	0f 5f       	subi	r16, 0xFF	; 255
    3fa6:	1f 4f       	sbci	r17, 0xFF	; 255
    3fa8:	5c 81       	ldd	r21, Y+4	; 0x04
    3faa:	4b 81       	ldd	r20, Y+3	; 0x03
    3fac:	3a 81       	ldd	r19, Y+2	; 0x02
    3fae:	29 81       	ldd	r18, Y+1	; 0x01
    3fb0:	f0 cf       	rjmp	.-32     	; 0x3f92 <GetVloss+0x10a>
//     wait50us();
     wait5us();
  }
  adcv[3] = ReadADC(cap.cb);	// read voltage again, is discharged only a little bit ?
    3fb2:	80 91 84 01 	lds	r24, 0x0184
    3fb6:	0e 94 e2 04 	call	0x9c4	; 0x9c4 <ReadADC>
  ADCconfig.Samples = ANZ_MESS;		// set ADC back to configured No. of samples
    3fba:	2e e1       	ldi	r18, 0x1E	; 30
    3fbc:	20 93 2b 01 	sts	0x012B, r18
  wdt_reset();
    3fc0:	a8 95       	wdr
  if (adcv[3] > adcv[0]) {
    3fc2:	a8 16       	cp	r10, r24
    3fc4:	b9 06       	cpc	r11, r25
    3fc6:	18 f4       	brcc	.+6      	; 0x3fce <GetVloss+0x146>
     adcv[3] -= adcv[0];		// difference to beginning voltage
    3fc8:	8a 19       	sub	r24, r10
    3fca:	9b 09       	sbc	r25, r11
    3fcc:	02 c0       	rjmp	.+4      	; 0x3fd2 <GetVloss+0x14a>
  } else {
     adcv[3] = 0;			// voltage is lower or same as beginning voltage
    3fce:	80 e0       	ldi	r24, 0x00	; 0
    3fd0:	90 e0       	ldi	r25, 0x00	; 0
  }
  if (adcv[2] > adcv[3]) {
    3fd2:	8e 15       	cp	r24, r14
    3fd4:	9f 05       	cpc	r25, r15
    3fd6:	88 f4       	brcc	.+34     	; 0x3ffa <GetVloss+0x172>
     // build difference to load voltage
     adcv[1] = adcv[2] - adcv[3];	// lost voltage during load time wait
    3fd8:	97 01       	movw	r18, r14
    3fda:	28 1b       	sub	r18, r24
    3fdc:	39 0b       	sbc	r19, r25
  } else {
     adcv[1] = 0;			// no lost voltage
  }
  // compute voltage drop as part from loaded voltage
  if (adcv[1] > 0) {
    3fde:	69 f0       	breq	.+26     	; 0x3ffa <GetVloss+0x172>
     // there is any voltage drop (adcv[1]) !
     // adcv[2] is the loaded voltage.
     cap.v_loss = (unsigned long)(adcv[1] * 500UL) / adcv[2];
    3fe0:	a4 ef       	ldi	r26, 0xF4	; 244
    3fe2:	b1 e0       	ldi	r27, 0x01	; 1
    3fe4:	0e 94 ab 31 	call	0x6356	; 0x6356 <__umulhisi3>
    3fe8:	97 01       	movw	r18, r14
    3fea:	40 e0       	ldi	r20, 0x00	; 0
    3fec:	50 e0       	ldi	r21, 0x00	; 0
    3fee:	0e 94 6d 31 	call	0x62da	; 0x62da <__udivmodsi4>
    3ff2:	30 93 82 01 	sts	0x0182, r19
    3ff6:	20 93 81 01 	sts	0x0181, r18
  lcd_line4();
  DisplayValue16(lval.w[0],0,'x',4);
#endif

  // discharge capacitor again
  EntladePins();		// discharge capacitors
    3ffa:	0e 94 76 14 	call	0x28ec	; 0x28ec <EntladePins>
  //ready
  // switch all ports to input
  ADC_DDR =  TXD_MSK;		// switch all ADC ports to input
    3ffe:	17 b8       	out	0x07, r1	; 7
  ADC_PORT = TXD_VAL;		// switch all ADC outputs to GND, no pull up
    4000:	18 b8       	out	0x08, r1	; 8
  R_DDR = 0;			// switch all resistor ports to input
    4002:	14 b8       	out	0x04, r1	; 4
  R_PORT = 0; 			// switch all resistor outputs to GND, no pull up
    4004:	15 b8       	out	0x05, r1	; 5
#endif
  return;
 } // end GetVloss()
    4006:	24 96       	adiw	r28, 0x04	; 4
    4008:	ea e0       	ldi	r30, 0x0A	; 10
    400a:	0c 94 f4 31 	jmp	0x63e8	; 0x63e8 <__epilogue_restores__+0x10>

0000400e <__vector_11>:
/* ************************************************************ */
/* Timer 1 Compare A interrupts with count 1 to start counter 0 */
/* This is defined as start of the measurement second.          */
/* ************************************************************ */
// this handler is also used by SamplingADC.S, where simply any dummy interrupt handler is usable; but if timing of this handler changes, need to adapt SamplingADC.S as well
ISR(TIMER1_COMPA_vect, ISR_BLOCK) {
    400e:	1f 92       	push	r1
    4010:	0f 92       	push	r0
    4012:	0f b6       	in	r0, 0x3f	; 63
    4014:	0f 92       	push	r0
    4016:	11 24       	eor	r1, r1
    4018:	8f 93       	push	r24
#if PROCESSOR_TYP == 1280
  TCCR3B = (1<<CS32) | (1<<CS31) | (0<<CS30);	// start the counter 3 with external input T3
#else
  TCCR0B = (1<<CS02) | (1<<CS01) | (0<<CS00);	// now start the counter 0 with external input T0
    401a:	86 e0       	ldi	r24, 0x06	; 6
    401c:	85 bd       	out	0x25, r24	; 37
#endif
}
    401e:	8f 91       	pop	r24
    4020:	0f 90       	pop	r0
    4022:	0f be       	out	0x3f, r0	; 63
    4024:	0f 90       	pop	r0
    4026:	1f 90       	pop	r1
    4028:	18 95       	reti

0000402a <__vector_12>:

#ifdef WITH_MENU
/* ************************************************************ */
/* Timer 1 Compare B interrupt after 1 second to stop counter 0 */
/* ************************************************************ */
ISR(TIMER1_COMPB_vect, ISR_BLOCK) {
    402a:	1f 92       	push	r1
    402c:	0f 92       	push	r0
    402e:	0f b6       	in	r0, 0x3f	; 63
    4030:	0f 92       	push	r0
    4032:	11 24       	eor	r1, r1
  // The TIMER1_COMPB_vect uses one push and one ldi more than this interrupt.
  // Therefore we stop timer 1 first and ajust to same time with wdt_reset();
  wdt_reset();			// for adjusting to same time as TIMER1_COMPB_vect
    4034:	a8 95       	wdr
  TCCR1B = 0;			// stop counter 1
    4036:	10 92 81 00 	sts	0x0081, r1
#if PROCESSOR_TYP == 1280
  TCCR3B = 0;			// stop counter 3
#else
  TCCR0B = 0;			// stop counter 0
    403a:	15 bc       	out	0x25, r1	; 37
#endif
}
    403c:	0f 90       	pop	r0
    403e:	0f be       	out	0x3f, r0	; 63
    4040:	0f 90       	pop	r0
    4042:	1f 90       	pop	r1
    4044:	18 95       	reti

00004046 <__vector_5>:
/* full periods  (no half period)				*/
/* ************************************************************ */


ISR(PCINTx_vect, ISR_BLOCK)
{
    4046:	1f 92       	push	r1
    4048:	0f 92       	push	r0
    404a:	0f b6       	in	r0, 0x3f	; 63
    404c:	0f 92       	push	r0
    404e:	11 24       	eor	r1, r1
    4050:	2f 93       	push	r18
    4052:	3f 93       	push	r19
    4054:	8f 93       	push	r24
    4056:	9f 93       	push	r25
  if (pinchange_count == 0) {
    4058:	80 91 6b 01 	lds	r24, 0x016B
    405c:	90 91 6c 01 	lds	r25, 0x016C
    4060:	89 2b       	or	r24, r25
    4062:	11 f4       	brne	.+4      	; 0x4068 <__vector_5+0x22>
#if PROCESSOR_TYP == 1280
     TCCR3B = (1<<CS30);	// start the counter 3 with full CPU clock
#else
     TCCR0B = (1<<CS00);	// start the counter 0 with full CPU clock
    4064:	81 e0       	ldi	r24, 0x01	; 1
    4066:	85 bd       	out	0x25, r24	; 37
#endif
  }
  if (pinchange_count >= pinchange_max) {
    4068:	20 91 6b 01 	lds	r18, 0x016B
    406c:	30 91 6c 01 	lds	r19, 0x016C
    4070:	80 91 69 01 	lds	r24, 0x0169
    4074:	90 91 6a 01 	lds	r25, 0x016A
    4078:	28 17       	cp	r18, r24
    407a:	39 07       	cpc	r19, r25
    407c:	30 f0       	brcs	.+12     	; 0x408a <__vector_5+0x44>
     // stop the counter 3, when maximum value has reached.
     TCCR3B = 0;		// stop counter 3
     PCMSK_FREQ &= ~(1<<PCINT_FREQ);	// disable int6
#else
     // stop the counter 0, when maximum value has reached.
     TCCR0B = 0;		// stop counter 0
    407e:	15 bc       	out	0x25, r1	; 37
     PCMSK_FREQ &= ~(1<<PCINT_FREQ);	// disable monitoring of PD4 PCINT20 or PB0 PCINT8 pin change
    4080:	80 91 6d 00 	lds	r24, 0x006D
    4084:	8f 7e       	andi	r24, 0xEF	; 239
    4086:	80 93 6d 00 	sts	0x006D, r24
#endif
//     PCICR &= ~(1<<PCI_ENABLE_BIT);	// disable the interrupt
  }
  pinchange_count++;
    408a:	80 91 6b 01 	lds	r24, 0x016B
    408e:	90 91 6c 01 	lds	r25, 0x016C
    4092:	01 96       	adiw	r24, 0x01	; 1
    4094:	90 93 6c 01 	sts	0x016C, r25
    4098:	80 93 6b 01 	sts	0x016B, r24
}
    409c:	9f 91       	pop	r25
    409e:	8f 91       	pop	r24
    40a0:	3f 91       	pop	r19
    40a2:	2f 91       	pop	r18
    40a4:	0f 90       	pop	r0
    40a6:	0f be       	out	0x3f, r0	; 63
    40a8:	0f 90       	pop	r0
    40aa:	1f 90       	pop	r1
    40ac:	18 95       	reti

000040ae <message2line>:

/* ****************************************************************** */
/* message2line writes the message corresponding to the number to LCD */
/* ****************************************************************** */
void message2line(uint8_t number) { 
     if (number > MODE_LAST) number -= (MODE_LAST + 1);
    40ae:	8a 30       	cpi	r24, 0x0A	; 10
    40b0:	08 f0       	brcs	.+2      	; 0x40b4 <message2line+0x6>
    40b2:	8a 50       	subi	r24, 0x0A	; 10
     if (number == MODE_TRANS) lcd_MEM2_string(TESTER_str);
    40b4:	81 11       	cpse	r24, r1
    40b6:	03 c0       	rjmp	.+6      	; 0x40be <message2line+0x10>
    40b8:	80 e2       	ldi	r24, 0x20	; 32
    40ba:	92 e0       	ldi	r25, 0x02	; 2
    40bc:	2c c0       	rjmp	.+88     	; 0x4116 <message2line+0x68>
 #if PROCESSOR_TYP == 644
     if (number == MODE_HFREQ) lcd_MEM2_string(HFREQ_str);
     if (number == MODE_H_CRYSTAL) lcd_MEM2_string(H_CRYSTAL_str);
     if (number == MODE_L_CRYSTAL) lcd_MEM2_string(L_CRYSTAL_str);
 #endif
     if (number == MODE_FGEN) lcd_MEM2_string(F_GEN_str);
    40be:	81 30       	cpi	r24, 0x01	; 1
    40c0:	19 f4       	brne	.+6      	; 0x40c8 <message2line+0x1a>
    40c2:	87 ef       	ldi	r24, 0xF7	; 247
    40c4:	91 e0       	ldi	r25, 0x01	; 1
    40c6:	27 c0       	rjmp	.+78     	; 0x4116 <message2line+0x68>
     if (number == MODE_PWM) lcd_MEM2_string(PWM_10bit_str);
    40c8:	82 30       	cpi	r24, 0x02	; 2
    40ca:	19 f4       	brne	.+6      	; 0x40d2 <message2line+0x24>
    40cc:	8c ee       	ldi	r24, 0xEC	; 236
    40ce:	91 e0       	ldi	r25, 0x01	; 1
    40d0:	22 c0       	rjmp	.+68     	; 0x4116 <message2line+0x68>
     if (number == MODE_ESR) lcd_MEM2_string(C_ESR_str);
    40d2:	83 30       	cpi	r24, 0x03	; 3
    40d4:	19 f4       	brne	.+6      	; 0x40dc <message2line+0x2e>
    40d6:	8d e9       	ldi	r24, 0x9D	; 157
    40d8:	90 e0       	ldi	r25, 0x00	; 0
    40da:	1d c0       	rjmp	.+58     	; 0x4116 <message2line+0x68>
     if (number == MODE_RESIS) lcd_MEM_string(RESIS_13_str);
    40dc:	84 30       	cpi	r24, 0x04	; 4
    40de:	19 f4       	brne	.+6      	; 0x40e6 <message2line+0x38>
    40e0:	82 e9       	ldi	r24, 0x92	; 146
    40e2:	90 e0       	ldi	r25, 0x00	; 0
    40e4:	18 c0       	rjmp	.+48     	; 0x4116 <message2line+0x68>
     if (number == MODE_CAP13) lcd_MEM_string(CAP_13_str);
    40e6:	85 30       	cpi	r24, 0x05	; 5
    40e8:	19 f4       	brne	.+6      	; 0x40f0 <message2line+0x42>
    40ea:	8b e8       	ldi	r24, 0x8B	; 139
    40ec:	90 e0       	ldi	r25, 0x00	; 0
    40ee:	13 c0       	rjmp	.+38     	; 0x4116 <message2line+0x68>
 #ifdef WITH_ROTARY_CHECK
     if (number == MODE_ROTARY) lcd_MEM2_string(RotaryEncoder_str);
 #endif
     if (number == MODE_BIG_CAP_CORR) lcd_MEM2_string(SetCapCorr_str);
    40f0:	86 30       	cpi	r24, 0x06	; 6
    40f2:	19 f4       	brne	.+6      	; 0x40fa <message2line+0x4c>
    40f4:	8b ed       	ldi	r24, 0xDB	; 219
    40f6:	91 e0       	ldi	r25, 0x01	; 1
    40f8:	0e c0       	rjmp	.+28     	; 0x4116 <message2line+0x68>
 #ifdef WITH_SELFTEST
     if (number == MODE_SELFTEST) lcd_MEM2_string(FULLCHECK_str);
    40fa:	87 30       	cpi	r24, 0x07	; 7
    40fc:	19 f4       	brne	.+6      	; 0x4104 <message2line+0x56>
    40fe:	8c ec       	ldi	r24, 0xCC	; 204
    4100:	91 e0       	ldi	r25, 0x01	; 1
    4102:	09 c0       	rjmp	.+18     	; 0x4116 <message2line+0x68>
 #endif
 #ifdef LCD_CHANGE_COLOR
     if (number == MODE_SELECT_FG) lcd_MEM_string(FrontColor_str); 
     if (number == MODE_SELECT_BG) lcd_MEM_string(BackColor_str); 
 #endif
     if (number == MODE_SHOW) {
    4104:	88 30       	cpi	r24, 0x08	; 8
    4106:	19 f4       	brne	.+6      	; 0x410e <message2line+0x60>
        lcd_MEM2_string(SHOW_str);
    4108:	8e e0       	ldi	r24, 0x0E	; 14
    410a:	92 e0       	ldi	r25, 0x02	; 2
    410c:	04 c0       	rjmp	.+8      	; 0x4116 <message2line+0x68>
     }
     if (number == MODE_OFF) {
    410e:	89 30       	cpi	r24, 0x09	; 9
    4110:	21 f4       	brne	.+8      	; 0x411a <message2line+0x6c>
        lcd_MEM2_string(OFF_str);
    4112:	83 e0       	ldi	r24, 0x03	; 3
    4114:	92 e0       	ldi	r25, 0x02	; 2
    4116:	0e 94 d1 01 	call	0x3a2	; 0x3a2 <lcd_fix_string>
     }
 lcd_clear_line();
    411a:	0c 94 4e 02 	jmp	0x49c	; 0x49c <lcd_clear_line>
    411e:	08 95       	ret

00004120 <show_C_ESR>:
} /* end message2line() */

/* ****************************************************************** */
/* show_C_ESR measures the capacity and ESR of a capacitor connected to TP1 and TP3 */
/* ****************************************************************** */
void show_C_ESR() {
    4120:	0f 93       	push	r16
    4122:	cf 93       	push	r28
  uint8_t key_pressed;
  message_key_released(C_ESR_str);
    4124:	8d e9       	ldi	r24, 0x9D	; 157
    4126:	90 e0       	ldi	r25, 0x00	; 0
    4128:	1f d3       	rcall	.+1598   	; 0x4768 <message_key_released>
    412a:	c0 e0       	ldi	r28, 0x00	; 0
#ifdef POWER_OFF
  uint8_t times;
  for (times=0;times<250;) 
    412c:	10 92 1a 01 	sts	0x011A, r1
#else
  while (1)		/* wait endless without the POWER_OFF option */
#endif
  {
        PartFound = PART_NONE;
    4130:	60 e0       	ldi	r22, 0x00	; 0
        ReadBigCap(TP3,TP1);
    4132:	82 e0       	ldi	r24, 0x02	; 2
    4134:	35 d3       	rcall	.+1642   	; 0x47a0 <ReadBigCap>
    4136:	80 91 1a 01 	lds	r24, 0x011A
        if (PartFound == PART_CAPACITOR) {
    413a:	88 30       	cpi	r24, 0x08	; 8
    413c:	d1 f5       	brne	.+116    	; 0x41b2 <show_C_ESR+0x92>
    413e:	0e 94 83 01 	call	0x306	; 0x306 <lcd_line1>
#if LCD_LINES > 2
           lcd_line2(); 	// set to line2 
#else
           lcd_line1(); 	// set to line1 
    4142:	83 e4       	ldi	r24, 0x43	; 67
    4144:	0e 94 59 01 	call	0x2b2	; 0x2b2 <lcd_data>
#endif
           lcd_data('C');
    4148:	0e 94 7b 01 	call	0x2f6	; 0x2f6 <lcd_equal>
           lcd_equal();		// lcd_data('=');
    414c:	60 91 77 01 	lds	r22, 0x0177
           DisplayValue(cap.cval_max,cap.cpre_max,'F',3);
    4150:	70 91 78 01 	lds	r23, 0x0178
    4154:	80 91 79 01 	lds	r24, 0x0179
    4158:	90 91 7a 01 	lds	r25, 0x017A
    415c:	03 e0       	ldi	r16, 0x03	; 3
    415e:	26 e4       	ldi	r18, 0x46	; 70
    4160:	40 91 86 01 	lds	r20, 0x0186
    4164:	0e 94 76 03 	call	0x6ec	; 0x6ec <DisplayValue>
    4168:	0e 94 4e 02 	call	0x49c	; 0x49c <lcd_clear_line>
           lcd_clear_line();	// clear to end of line 1
    416c:	60 91 83 01 	lds	r22, 0x0183
           cap.esr = GetESR(cap.cb,cap.ca);
    4170:	80 91 84 01 	lds	r24, 0x0184
    4174:	e1 dc       	rcall	.-1598   	; 0x3b38 <GetESR>
    4176:	90 93 80 01 	sts	0x0180, r25
    417a:	80 93 7f 01 	sts	0x017F, r24
    417e:	0e 94 8a 01 	call	0x314	; 0x314 <lcd_line2>
    4182:	8b e5       	ldi	r24, 0x5B	; 91
#if LCD_LINES > 2
	   lcd_line3();		// use line 3 
#else
           lcd_line2();		// use line 2 
    4184:	91 e0       	ldi	r25, 0x01	; 1
    4186:	0e 94 d1 01 	call	0x3a2	; 0x3a2 <lcd_fix_string>
#endif
           lcd_MEM_string(&ESR_str[1]);
    418a:	80 91 7f 01 	lds	r24, 0x017F
    418e:	90 91 80 01 	lds	r25, 0x0180
           if (cap.esr < 65530) {
    4192:	8a 3f       	cpi	r24, 0xFA	; 250
    4194:	2f ef       	ldi	r18, 0xFF	; 255
    4196:	92 07       	cpc	r25, r18
    4198:	30 f4       	brcc	.+12     	; 0x41a6 <show_C_ESR+0x86>
    419a:	22 e0       	ldi	r18, 0x02	; 2
    419c:	44 e0       	ldi	r20, 0x04	; 4
    419e:	6e ef       	ldi	r22, 0xFE	; 254
              DisplayValue16(cap.esr,-2,LCD_CHAR_OMEGA,2);
    41a0:	0e 94 65 04 	call	0x8ca	; 0x8ca <DisplayValue16>
    41a4:	03 c0       	rjmp	.+6      	; 0x41ac <show_C_ESR+0x8c>
    41a6:	8f e3       	ldi	r24, 0x3F	; 63
    41a8:	0e 94 59 01 	call	0x2b2	; 0x2b2 <lcd_data>
           } else {
              lcd_data('?');		// too big
    41ac:	0e 94 4e 02 	call	0x49c	; 0x49c <lcd_clear_line>
    41b0:	0a c0       	rjmp	.+20     	; 0x41c6 <show_C_ESR+0xa6>
           }
           lcd_clear_line();		// clear to end of line
    41b2:	0e 94 83 01 	call	0x306	; 0x306 <lcd_line1>
    41b6:	8d e9       	ldi	r24, 0x9D	; 157
#if LCD_LINES > 2
           lcd_clear_line2(); 	// clear C value 
           lcd_line3();
	   lcd_clear_line();	// clear old ESR value
#else
           lcd_line1();	//  
    41b8:	90 e0       	ldi	r25, 0x00	; 0
    41ba:	0e 94 d1 01 	call	0x3a2	; 0x3a2 <lcd_fix_string>
           lcd_MEM2_string(C_ESR_str);
    41be:	0e 94 4e 02 	call	0x49c	; 0x49c <lcd_clear_line>
    41c2:	0e 94 7b 02 	call	0x4f6	; 0x4f6 <lcd_clear_line2>
           lcd_clear_line();
    41c6:	8c 2f       	mov	r24, r28
           lcd_clear_line2(); 	// clear old ESR value 
    41c8:	c5 d9       	rcall	.-3190   	; 0x3554 <Bat_update>
    41ca:	88 ee       	ldi	r24, 0xE8	; 232
#endif
        }
#if defined(POWER_OFF) && defined(BAT_CHECK)
     Bat_update(times);
    41cc:	93 e0       	ldi	r25, 0x03	; 3
    41ce:	0e 94 54 05 	call	0xaa8	; 0xaa8 <wait_for_key_ms>
#endif
     key_pressed = wait_for_key_ms(1000);
    41d2:	81 11       	cpse	r24, r1
    41d4:	06 c0       	rjmp	.+12     	; 0x41e2 <show_C_ESR+0xc2>
    41d6:	8c 2f       	mov	r24, r28
    41d8:	ca d9       	rcall	.-3180   	; 0x356e <Pwr_mode_check>
#ifdef WITH_ROTARY_SWITCH
     if ((key_pressed != 0) || (rotary.incre > 3)) break;
#else
     if (key_pressed != 0) break;
    41da:	c8 2f       	mov	r28, r24
    41dc:	8a 3f       	cpi	r24, 0xFA	; 250
#endif
#ifdef POWER_OFF
     times = Pwr_mode_check(times);	// no time limit with DC_Pwr_mode
    41de:	08 f4       	brcc	.+2      	; 0x41e2 <show_C_ESR+0xc2>
    41e0:	a5 cf       	rjmp	.-182    	; 0x412c <show_C_ESR+0xc>
    41e2:	cf 91       	pop	r28
    41e4:	0f 91       	pop	r16
void show_C_ESR() {
  uint8_t key_pressed;
  message_key_released(C_ESR_str);
#ifdef POWER_OFF
  uint8_t times;
  for (times=0;times<250;) 
    41e6:	08 95       	ret

000041e8 <show_vext>:
    41e8:	08 95       	ret

000041ea <make_frequency>:
    41ea:	a5 e0       	ldi	r26, 0x05	; 5
#endif
#ifdef POWER_OFF
     times = Pwr_mode_check(times);	// no time limit with DC_Pwr_mode
#endif
  }  /* end for times */
} /* end show_C_ESR() */
    41ec:	b0 e0       	ldi	r27, 0x00	; 0
    41ee:	eb ef       	ldi	r30, 0xFB	; 251
    41f0:	f0 e2       	ldi	r31, 0x20	; 32
/* *************************************************** */
/* show_vext() read one or two input voltages from     */
/* ADC input channel(s) TPext or (TPext and TPex2).    */
/* For both inputs a 10:1 voltage divider is required. */
/* *************************************************** */
void show_vext() {
    41f2:	0c 94 d0 31 	jmp	0x63a0	; 0x63a0 <__prologue_saves__>
/* *************************************************** */
/* make frequency starts a frequency generator at TP2 with 680 Ohm resistor */
/* some predefined frequencies can be switched with the key */
/* a long key press returns to the selection menu */
/* *************************************************** */
void make_frequency() {
    41f6:	87 ef       	ldi	r24, 0xF7	; 247
    41f8:	91 e0       	ldi	r25, 0x01	; 1
    41fa:	b6 d2       	rcall	.+1388   	; 0x4768 <message_key_released>
    41fc:	80 e1       	ldi	r24, 0x10	; 16
    41fe:	80 93 80 00 	sts	0x0080, r24
  unsigned long  f_incre;	// frequency increment 1, 10, 100, 1000, 10000, 100000
  uint8_t f_digit;		// digit for f_incre, 0-10 or 0-20
  uint8_t Max_Digit;		// 10 or 20 , the last digit is for 
  uint8_t right;		// logical expression 

  message_key_released(F_GEN_str);	// display f-Generator and wait for key released
    4202:	10 92 6f 00 	sts	0x006F, r1
    4206:	81 e0       	ldi	r24, 0x01	; 1
  // OC1B is connected with 680 Ohm resistor to TP2 (middle test pin) 
  TCCR1A = (0<<COM1B1) | (1<<COM1B0) | (0<<WGM11) | (0<<WGM10); // CTC mode, count to OCR1A
    4208:	90 e0       	ldi	r25, 0x00	; 0
    420a:	90 93 89 00 	sts	0x0089, r25
  TIMSK1 = 0;		// no interrupt used
    420e:	80 93 88 00 	sts	0x0088, r24
  OCR1A = 1;		// highest frequency
    4212:	10 92 8b 00 	sts	0x008B, r1
    4216:	10 92 8a 00 	sts	0x008A, r1
    421a:	83 e0       	ldi	r24, 0x03	; 3
    421c:	86 bb       	out	0x16, r24	; 22
  OCR1B	= 0;		// toggle OC1B at this count
    421e:	10 92 82 00 	sts	0x0082, r1
    4222:	88 e0       	ldi	r24, 0x08	; 8
    4224:	80 93 81 00 	sts	0x0081, r24
  TIFR1 = (1<<OCF1A) | (1<<OCF1A) | (1<<TOV1);	// reset interrupt flags
    4228:	15 b8       	out	0x05, r1	; 5
  TCCR1C = 0;
    422a:	81 e1       	ldi	r24, 0x11	; 17
    422c:	84 b9       	out	0x04, r24	; 4
  TCCR1B = (0<<WGM13) | (1<<WGM12) | (0<<CS12) | (0<<CS11) | (0<<CS10); // set counter mode 
    422e:	18 b8       	out	0x08, r1	; 8
    4230:	81 e0       	ldi	r24, 0x01	; 1
    4232:	87 b9       	out	0x07, r24	; 7
  R_PORT = 0;		// set all resistor port outputs to GND
    4234:	22 9a       	sbi	0x04, 2	; 4
#if PROCESSOR_TYP == 644
  R_DDR = (1<<PIN_RL1) | (1<<PIN_RL2) | (1<<PIN_RL3);		// set TP1, DDD4(TP2) and TP3 to output
#else
  R_DDR = (1<<PIN_RL1) | (1<<PIN_RL3);		// set TP1 and TP3 to output
    4236:	89 e0       	ldi	r24, 0x09	; 9
    4238:	80 93 81 00 	sts	0x0081, r24
#endif
  ADC_PORT = TXD_VAL;
  ADC_DDR = (1<<TP1) | TXD_MSK;			//connect TP1 to GND
    423c:	21 2c       	mov	r2, r1
    423e:	1b 82       	std	Y+3, r1	; 0x03
#if PROCESSOR_TYP == 1280
  DDRB  |= (1<<DDB6);	// set output enable for OC1B
#else
  DDRB  |= (1<<DDB2);	// set output enable for OC1B
    4240:	2a e0       	ldi	r18, 0x0A	; 10
#endif
  TCCR1B = (0<<WGM13) | (1<<WGM12) | (0<<CS12) | (0<<CS11) | (1<<CS10); // no clock divide
    4242:	29 83       	std	Y+1, r18	; 0x01
    4244:	33 24       	eor	r3, r3
    4246:	33 94       	inc	r3
#ifdef POWER_OFF
  uint8_t new_points;		// one point for every 30 seconds wait time
  uint8_t shown_points;		// one point for every 30 seconds wait time
  uint8_t times;		// total wait time
  shown_points = 0;
  for (times=0; times<240;) 
    4248:	81 2c       	mov	r8, r1
  significant = 16+1;	// only one significant frequency digit (Hz resolution)
#ifdef POWER_OFF
  uint8_t new_points;		// one point for every 30 seconds wait time
  uint8_t shown_points;		// one point for every 30 seconds wait time
  uint8_t times;		// total wait time
  shown_points = 0;
    424a:	91 2c       	mov	r9, r1
#endif
  TCCR1B = (0<<WGM13) | (1<<WGM12) | (0<<CS12) | (0<<CS11) | (1<<CS10); // no clock divide
//  wish_freq = 1;		// start with 1 Hz
  f_incre = 1;		// increment with 1 Hz
  f_digit = 1;			// start value
  Max_Digit = 10;	// normally 10, only for 100kHz steps 20
    424c:	54 01       	movw	r10, r8
    424e:	83 94       	inc	r8
  DDRB  |= (1<<DDB2);	// set output enable for OC1B
#endif
  TCCR1B = (0<<WGM13) | (1<<WGM12) | (0<<CS12) | (0<<CS11) | (1<<CS10); // no clock divide
//  wish_freq = 1;		// start with 1 Hz
  f_incre = 1;		// increment with 1 Hz
  f_digit = 1;			// start value
    4250:	11 e1       	ldi	r17, 0x11	; 17
    4252:	82 2d       	mov	r24, r2
#else
  DDRB  |= (1<<DDB2);	// set output enable for OC1B
#endif
  TCCR1B = (0<<WGM13) | (1<<WGM12) | (0<<CS12) | (0<<CS11) | (1<<CS10); // no clock divide
//  wish_freq = 1;		// start with 1 Hz
  f_incre = 1;		// increment with 1 Hz
    4254:	90 e0       	ldi	r25, 0x00	; 0
    4256:	0a 96       	adiw	r24, 0x0a	; 10
    4258:	6e e1       	ldi	r22, 0x1E	; 30
    425a:	70 e0       	ldi	r23, 0x00	; 0
  f_digit = 1;			// start value
  Max_Digit = 10;	// normally 10, only for 100kHz steps 20
  significant = 16+1;	// only one significant frequency digit (Hz resolution)
    425c:	0e 94 5a 31 	call	0x62b4	; 0x62b4 <__divmodhi4>
#else
  while (1)			/* wait endless without option POWER_OFF */
#endif
  {
#ifdef POWER_OFF
     new_points = (times+10) / 30;
    4260:	66 2e       	mov	r6, r22
    4262:	56 2e       	mov	r5, r22
    4264:	3b 81       	ldd	r19, Y+3	; 0x03
    4266:	63 17       	cp	r22, r19
    4268:	89 f0       	breq	.+34     	; 0x428c <make_frequency+0xa2>
    426a:	0e 94 83 01 	call	0x306	; 0x306 <lcd_line1>
    426e:	87 ef       	ldi	r24, 0xF7	; 247
     if (new_points != shown_points) {
    4270:	91 e0       	ldi	r25, 0x01	; 1
    4272:	0e 94 d1 01 	call	0x3a2	; 0x3a2 <lcd_fix_string>
        // count of points has changed, build LCD line1 new
        lcd_line1();	// position to line 1 
    4276:	71 2c       	mov	r7, r1
    4278:	75 14       	cp	r7, r5
        lcd_MEM2_string(F_GEN_str);	// display f-Generator
    427a:	28 f4       	brcc	.+10     	; 0x4286 <make_frequency+0x9c>
    427c:	8e e2       	ldi	r24, 0x2E	; 46
    427e:	0e 94 59 01 	call	0x2b2	; 0x2b2 <lcd_data>
        shown_points = new_points;
        for (new_points=0; new_points<shown_points ;new_points++) {
    4282:	73 94       	inc	r7
    4284:	f9 cf       	rjmp	.-14     	; 0x4278 <make_frequency+0x8e>
    4286:	0e 94 4e 02 	call	0x49c	; 0x49c <lcd_clear_line>
           lcd_data('.');		// show elapsed time, one point is 60 seconds
    428a:	6b 82       	std	Y+3, r6	; 0x03
    428c:	12 31       	cpi	r17, 0x12	; 18
     if (new_points != shown_points) {
        // count of points has changed, build LCD line1 new
        lcd_line1();	// position to line 1 
        lcd_MEM2_string(F_GEN_str);	// display f-Generator
        shown_points = new_points;
        for (new_points=0; new_points<shown_points ;new_points++) {
    428e:	c8 f0       	brcs	.+50     	; 0x42c2 <make_frequency+0xd8>
    4290:	c7 01       	movw	r24, r14
           lcd_data('.');		// show elapsed time, one point is 60 seconds
        }
        lcd_clear_line();	// clear remainder of line1
    4292:	b6 01       	movw	r22, r12
    4294:	a5 01       	movw	r20, r10
    4296:	94 01       	movw	r18, r8
     }
#endif
     // Generate frequency
     if (significant > (16+1)) {
    4298:	0e 94 6d 31 	call	0x62da	; 0x62da <__udivmodsi4>
        // use lower significant digits and the frequency selection digit f_digit
        wish_freq = (wish_freq % f_incre) + ((f_digit%Max_Digit) * f_incre);
    429c:	2b 01       	movw	r4, r22
    429e:	3c 01       	movw	r6, r24
    42a0:	83 2d       	mov	r24, r3
    42a2:	69 81       	ldd	r22, Y+1	; 0x01
    42a4:	0e 94 3a 31 	call	0x6274	; 0x6274 <__udivmodqi4>
    42a8:	a9 2f       	mov	r26, r25
    42aa:	b0 e0       	ldi	r27, 0x00	; 0
    42ac:	a5 01       	movw	r20, r10
    42ae:	94 01       	movw	r18, r8
    42b0:	0e 94 c0 31 	call	0x6380	; 0x6380 <__muluhisi3>
    42b4:	6b 01       	movw	r12, r22
    42b6:	7c 01       	movw	r14, r24
    42b8:	c4 0c       	add	r12, r4
    42ba:	d5 1c       	adc	r13, r5
    42bc:	e6 1c       	adc	r14, r6
    42be:	f7 1c       	adc	r15, r7
    42c0:	0c c0       	rjmp	.+24     	; 0x42da <make_frequency+0xf0>
    42c2:	83 2d       	mov	r24, r3
    42c4:	69 81       	ldd	r22, Y+1	; 0x01
    42c6:	0e 94 3a 31 	call	0x6274	; 0x6274 <__udivmodqi4>
    42ca:	a9 2f       	mov	r26, r25
    42cc:	b0 e0       	ldi	r27, 0x00	; 0
     } else {
	// with only one significant there are no lower significant digits
        wish_freq = ((f_digit%Max_Digit) * f_incre);
    42ce:	a5 01       	movw	r20, r10
    42d0:	94 01       	movw	r18, r8
    42d2:	0e 94 c0 31 	call	0x6380	; 0x6380 <__muluhisi3>
    42d6:	6b 01       	movw	r12, r22
    42d8:	7c 01       	movw	r14, r24
    42da:	0e 94 8a 01 	call	0x314	; 0x314 <lcd_line2>
    42de:	89 81       	ldd	r24, Y+1	; 0x01
    42e0:	38 12       	cpse	r3, r24
    42e2:	08 c0       	rjmp	.+16     	; 0x42f4 <make_frequency+0x10a>
    42e4:	81 e0       	ldi	r24, 0x01	; 1
     }
     lcd_line2();
    42e6:	12 31       	cpi	r17, 0x12	; 18
    42e8:	08 f4       	brcc	.+2      	; 0x42ec <make_frequency+0x102>
     right = ((f_digit == Max_Digit) && (significant > 17));
    42ea:	80 e0       	ldi	r24, 0x00	; 0
    42ec:	8a 83       	std	Y+2, r24	; 0x02
    42ee:	81 11       	cpse	r24, r1
    42f0:	06 c0       	rjmp	.+12     	; 0x42fe <make_frequency+0x114>
    42f2:	01 c0       	rjmp	.+2      	; 0x42f6 <make_frequency+0x10c>
    42f4:	1a 82       	std	Y+2, r1	; 0x02
    42f6:	16 31       	cpi	r17, 0x16	; 22
    42f8:	20 f4       	brcc	.+8      	; 0x4302 <make_frequency+0x118>
     uint8_t long_key_char;
     if (right) {
    42fa:	8e e3       	ldi	r24, 0x3E	; 62
    42fc:	03 c0       	rjmp	.+6      	; 0x4304 <make_frequency+0x11a>
    42fe:	8c e3       	ldi	r24, 0x3C	; 60
     } else {
	// with only one significant there are no lower significant digits
        wish_freq = ((f_digit%Max_Digit) * f_incre);
     }
     lcd_line2();
     right = ((f_digit == Max_Digit) && (significant > 17));
    4300:	01 c0       	rjmp	.+2      	; 0x4304 <make_frequency+0x11a>
     uint8_t long_key_char;
     if (right) {
        long_key_char = '<';	// the frequency string will move to the left by long key press
     } else {
        if (significant < (16+6)) {
    4302:	82 e5       	ldi	r24, 0x52	; 82
    4304:	0e 94 59 01 	call	0x2b2	; 0x2b2 <lcd_data>
           long_key_char = '>';		// move the frequency string to the right with one leading zero
    4308:	41 2f       	mov	r20, r17
     }
     lcd_line2();
     right = ((f_digit == Max_Digit) && (significant > 17));
     uint8_t long_key_char;
     if (right) {
        long_key_char = '<';	// the frequency string will move to the left by long key press
    430a:	c7 01       	movw	r24, r14
    430c:	b6 01       	movw	r22, r12
     } else {
        if (significant < (16+6)) {
           long_key_char = '>';		// move the frequency string to the right with one leading zero
        } else {
           long_key_char = 'R';		// i100kHz is the last position, Reset to 1 by long key press
    430e:	0e 94 7a 04 	call	0x8f4	; 0x8f4 <Display_Hz>
        }
     }
     lcd_data(long_key_char);		// show the selected character for long key action
    4312:	c7 01       	movw	r24, r14
#if (LCD_LINES > 2)
     lcd_space();
#endif
     Display_Hz(wish_freq, significant);	// show the selected frequuency
    4314:	b6 01       	movw	r22, r12
    4316:	7e 5e       	subi	r23, 0xEE	; 238
    4318:	85 48       	sbci	r24, 0x85	; 133
    431a:	9f 4f       	sbci	r25, 0xFF	; 255
    431c:	a7 01       	movw	r20, r14
     hperiod.dw = (F_CPU + wish_freq) / (wish_freq * 2);  // total divider for selected frequenx
    431e:	96 01       	movw	r18, r12
    4320:	22 0f       	add	r18, r18
    4322:	33 1f       	adc	r19, r19
    4324:	44 1f       	adc	r20, r20
    4326:	55 1f       	adc	r21, r21
    4328:	0e 94 6d 31 	call	0x62da	; 0x62da <__udivmodsi4>
    432c:	ca 01       	movw	r24, r20
    432e:	4f 3f       	cpi	r20, 0xFF	; 255
    4330:	51 05       	cpc	r21, r1
    4332:	39 f0       	breq	.+14     	; 0x4342 <make_frequency+0x158>
    4334:	30 f0       	brcs	.+12     	; 0x4342 <make_frequency+0x158>
    4336:	8d e0       	ldi	r24, 0x0D	; 13
     divider = 1;
     if (hperiod.w[1] >= 256) {
    4338:	80 93 81 00 	sts	0x0081, r24
    433c:	80 e0       	ldi	r24, 0x00	; 0
    433e:	94 e0       	ldi	r25, 0x04	; 4
    4340:	1f c0       	rjmp	.+62     	; 0x4380 <make_frequency+0x196>
        // divide by 1024
        TCCR1B = (0<<WGM13) | (1<<WGM12) | (1<<CS12) | (0<<CS11) | (1<<CS10); // divide clock by 1024
    4342:	40 34       	cpi	r20, 0x40	; 64
    4344:	51 05       	cpc	r21, r1
    4346:	30 f0       	brcs	.+12     	; 0x4354 <make_frequency+0x16a>
        divider = 1024;
    4348:	8c e0       	ldi	r24, 0x0C	; 12
    434a:	80 93 81 00 	sts	0x0081, r24
     } else if (hperiod.w[1] >= 64) {
    434e:	80 e0       	ldi	r24, 0x00	; 0
    4350:	91 e0       	ldi	r25, 0x01	; 1
    4352:	16 c0       	rjmp	.+44     	; 0x4380 <make_frequency+0x196>
        // divide by 256
        TCCR1B = (0<<WGM13) | (1<<WGM12) | (1<<CS12) | (0<<CS11) | (0<<CS10); // divide clock by 256
    4354:	48 30       	cpi	r20, 0x08	; 8
    4356:	51 05       	cpc	r21, r1
    4358:	30 f0       	brcs	.+12     	; 0x4366 <make_frequency+0x17c>
        divider = 256;
    435a:	9b e0       	ldi	r25, 0x0B	; 11
    435c:	90 93 81 00 	sts	0x0081, r25
     } else if (hperiod.w[1] >= 8) {
    4360:	80 e4       	ldi	r24, 0x40	; 64
    4362:	90 e0       	ldi	r25, 0x00	; 0
    4364:	0d c0       	rjmp	.+26     	; 0x4380 <make_frequency+0x196>
        // divide by 64
        TCCR1B = (0<<WGM13) | (1<<WGM12) | (0<<CS12) | (1<<CS11) | (1<<CS10); // divide clock by 64
    4366:	89 2b       	or	r24, r25
    4368:	31 f0       	breq	.+12     	; 0x4376 <make_frequency+0x18c>
    436a:	ea e0       	ldi	r30, 0x0A	; 10
        divider = 64;
    436c:	e0 93 81 00 	sts	0x0081, r30
    4370:	88 e0       	ldi	r24, 0x08	; 8
     } else if (hperiod.w[1] >= 1) {
    4372:	90 e0       	ldi	r25, 0x00	; 0
    4374:	05 c0       	rjmp	.+10     	; 0x4380 <make_frequency+0x196>
        // divide by 8
        TCCR1B = (0<<WGM13) | (1<<WGM12) | (0<<CS12) | (1<<CS11) | (0<<CS10); // divide clock by 8
    4376:	f9 e0       	ldi	r31, 0x09	; 9
    4378:	f0 93 81 00 	sts	0x0081, r31
        divider = 8;
    437c:	81 e0       	ldi	r24, 0x01	; 1
    437e:	90 e0       	ldi	r25, 0x00	; 0
    4380:	2c 01       	movw	r4, r24
     } else {
        // no divide
        TCCR1B = (0<<WGM13) | (1<<WGM12) | (0<<CS12) | (0<<CS11) | (1<<CS10); // no clock divide
    4382:	61 2c       	mov	r6, r1
    4384:	71 2c       	mov	r7, r1
    4386:	ca 01       	movw	r24, r20
#if (LCD_LINES > 2)
     lcd_space();
#endif
     Display_Hz(wish_freq, significant);	// show the selected frequuency
     hperiod.dw = (F_CPU + wish_freq) / (wish_freq * 2);  // total divider for selected frequenx
     divider = 1;
    4388:	b9 01       	movw	r22, r18
    438a:	a3 01       	movw	r20, r6
        divider = 8;
     } else {
        // no divide
        TCCR1B = (0<<WGM13) | (1<<WGM12) | (0<<CS12) | (0<<CS11) | (1<<CS10); // no clock divide
     }
     OCR1A = (hperiod.dw / divider) - 1;	// the remainder divider  match to 16-bit counter 
    438c:	92 01       	movw	r18, r4
    438e:	0e 94 6d 31 	call	0x62da	; 0x62da <__udivmodsi4>
    4392:	21 50       	subi	r18, 0x01	; 1
    4394:	31 09       	sbc	r19, r1
    4396:	30 93 89 00 	sts	0x0089, r19
    439a:	20 93 88 00 	sts	0x0088, r18
    439e:	80 91 88 00 	lds	r24, 0x0088
    43a2:	90 91 89 00 	lds	r25, 0x0089
    43a6:	89 2b       	or	r24, r25
    43a8:	31 f4       	brne	.+12     	; 0x43b6 <make_frequency+0x1cc>
     if (OCR1A == 0) OCR1A = 1;
    43aa:	21 e0       	ldi	r18, 0x01	; 1
    43ac:	30 e0       	ldi	r19, 0x00	; 0
    43ae:	30 93 89 00 	sts	0x0089, r19
    43b2:	20 93 88 00 	sts	0x0088, r18
    43b6:	80 91 88 00 	lds	r24, 0x0088
    43ba:	90 91 89 00 	lds	r25, 0x0089
    43be:	9d 83       	std	Y+5, r25	; 0x05
    43c0:	8c 83       	std	Y+4, r24	; 0x04
//     }
//     lcd_data('z');
//     lcd_clear_line();
#endif
     long int diff_freq;
     diff_freq = (((F_CPU/2) / divider) * 100) / (OCR1A + 1) - (wish_freq * 100);
    43c2:	60 e0       	ldi	r22, 0x00	; 0
    43c4:	79 e0       	ldi	r23, 0x09	; 9
    43c6:	8d e3       	ldi	r24, 0x3D	; 61
    43c8:	90 e0       	ldi	r25, 0x00	; 0
    43ca:	a3 01       	movw	r20, r6
    43cc:	92 01       	movw	r18, r4
    43ce:	0e 94 6d 31 	call	0x62da	; 0x62da <__udivmodsi4>
    43d2:	a4 e6       	ldi	r26, 0x64	; 100
    43d4:	b0 e0       	ldi	r27, 0x00	; 0
    43d6:	0e 94 c0 31 	call	0x6380	; 0x6380 <__muluhisi3>
    43da:	ec 81       	ldd	r30, Y+4	; 0x04
    43dc:	fd 81       	ldd	r31, Y+5	; 0x05
    43de:	31 96       	adiw	r30, 0x01	; 1
    43e0:	9f 01       	movw	r18, r30
    43e2:	40 e0       	ldi	r20, 0x00	; 0
    43e4:	50 e0       	ldi	r21, 0x00	; 0
    43e6:	0e 94 6d 31 	call	0x62da	; 0x62da <__udivmodsi4>
    43ea:	29 01       	movw	r4, r18
    43ec:	3a 01       	movw	r6, r20
    43ee:	a4 e6       	ldi	r26, 0x64	; 100
    43f0:	b0 e0       	ldi	r27, 0x00	; 0
    43f2:	a7 01       	movw	r20, r14
    43f4:	96 01       	movw	r18, r12
    43f6:	0e 94 c0 31 	call	0x6380	; 0x6380 <__muluhisi3>
    43fa:	46 1a       	sub	r4, r22
    43fc:	57 0a       	sbc	r5, r23
    43fe:	68 0a       	sbc	r6, r24
    4400:	79 0a       	sbc	r7, r25
    4402:	02 e2       	ldi	r16, 0x22	; 34
    4404:	28 e4       	ldi	r18, 0x48	; 72
    4406:	4e ef       	ldi	r20, 0xFE	; 254
    4408:	c3 01       	movw	r24, r6
    440a:	b2 01       	movw	r22, r4
    440c:	0e 94 76 03 	call	0x6ec	; 0x6ec <DisplayValue>
#if (LCD_LINES > 2)
     DisplayValue(diff_freq,-2,'H',32+5);
#else
     DisplayValue(diff_freq,-2,'H',32+2);
    4410:	8a e7       	ldi	r24, 0x7A	; 122
    4412:	0e 94 59 01 	call	0x2b2	; 0x2b2 <lcd_data>
    4416:	0e 94 4e 02 	call	0x49c	; 0x49c <lcd_clear_line>
    441a:	80 ed       	ldi	r24, 0xD0	; 208
#endif
     lcd_data('z');
    441c:	97 e0       	ldi	r25, 0x07	; 7
    441e:	0e 94 54 05 	call	0xaa8	; 0xaa8 <wait_for_key_ms>
     lcd_clear_line();
    4422:	88 23       	and	r24, r24
    4424:	09 f4       	brne	.+2      	; 0x4428 <make_frequency+0x23e>
     key_pressed = wait_for_key_ms(2000);	// check key and rotary encoder
    4426:	42 c0       	rjmp	.+132    	; 0x44ac <make_frequency+0x2c2>
    4428:	88 3c       	cpi	r24, 0xC8	; 200
    442a:	58 f0       	brcs	.+22     	; 0x4442 <make_frequency+0x258>
    442c:	10 92 81 00 	sts	0x0081, r1
#ifdef POWER_OFF
 #ifdef WITH_ROTARY_SWITCH
     if ((key_pressed != 0) || (rotary.incre > 0)) times = 0;	// reset counter, operator is active
 #else
     if (key_pressed != 0)  times = 0;	// reset counter, operator is active
    4430:	10 92 80 00 	sts	0x0080, r1
 #endif
#endif
     if(key_pressed >= 200) break;	// more than 2.0 seconds
    4434:	17 b8       	out	0x07, r1	; 7
    4436:	14 b8       	out	0x04, r1	; 4
     f_digit = f_digit % (Max_Digit + 1);
#ifdef POWER_OFF
     times = Pwr_mode_check(times);	// no time limit with DC_Pwr_mode
#endif
  } /* end for times */
  TCCR1B = 0;		// stop counter
    4438:	22 98       	cbi	0x04, 2	; 4
    443a:	25 96       	adiw	r28, 0x05	; 5
  TCCR1A = 0;		// stop counter
    443c:	e2 e1       	ldi	r30, 0x12	; 18
    443e:	0c 94 ec 31 	jmp	0x63d8	; 0x63d8 <__epilogue_restores__>
  ADC_DDR =  TXD_MSK;	// disconnect TP1 
  R_DDR = 0;		// switch resistor ports to Input
    4442:	81 35       	cpi	r24, 0x51	; 81
#if PROCESSOR_TYP == 1280
  DDRB  &= ~(1<<DDB6);	// disable output 
#else
  DDRB  &= ~(1<<DDB2);	// disable output 
    4444:	78 f1       	brcs	.+94     	; 0x44a4 <make_frequency+0x2ba>
#endif

} /* end make frequency */
    4446:	fa 81       	ldd	r31, Y+2	; 0x02
    4448:	ff 23       	and	r31, r31
    444a:	d9 f0       	breq	.+54     	; 0x4482 <make_frequency+0x298>
    444c:	11 50       	subi	r17, 0x01	; 1
 #else
     if (key_pressed != 0)  times = 0;	// reset counter, operator is active
 #endif
#endif
     if(key_pressed >= 200) break;	// more than 2.0 seconds
     if (key_pressed > 80) {	/* more than 0.8 seconds key press */
    444e:	c5 01       	movw	r24, r10
    4450:	b4 01       	movw	r22, r8
        // change of f_incre
        if (right) {
    4452:	2a e0       	ldi	r18, 0x0A	; 10
    4454:	30 e0       	ldi	r19, 0x00	; 0
    4456:	40 e0       	ldi	r20, 0x00	; 0
           // frequency string will move to the left, upper digit will move to the next lower digit
           Max_Digit = 10;		// f_incre will be 10kHz or less, allways 0-9
           significant--;		// diplay one digit less
    4458:	50 e0       	ldi	r21, 0x00	; 0
           f_incre /= 10;		// 
    445a:	0e 94 6d 31 	call	0x62da	; 0x62da <__udivmodsi4>
    445e:	49 01       	movw	r8, r18
    4460:	5a 01       	movw	r10, r20
    4462:	c7 01       	movw	r24, r14
    4464:	b6 01       	movw	r22, r12
    4466:	0e 94 6d 31 	call	0x62da	; 0x62da <__udivmodsi4>
    446a:	ca 01       	movw	r24, r20
    446c:	b9 01       	movw	r22, r18
           f_digit = (wish_freq / f_incre) % 10; // start with last digit
    446e:	2a e0       	ldi	r18, 0x0A	; 10
    4470:	30 e0       	ldi	r19, 0x00	; 0
    4472:	40 e0       	ldi	r20, 0x00	; 0
    4474:	50 e0       	ldi	r21, 0x00	; 0
    4476:	0e 94 6d 31 	call	0x62da	; 0x62da <__udivmodsi4>
    447a:	36 2e       	mov	r3, r22
    447c:	2a e0       	ldi	r18, 0x0A	; 10
    447e:	29 83       	std	Y+1, r18	; 0x01
    4480:	30 c0       	rjmp	.+96     	; 0x44e2 <make_frequency+0x2f8>
    4482:	16 31       	cpi	r17, 0x16	; 22
    4484:	28 f5       	brcc	.+74     	; 0x44d0 <make_frequency+0x2e6>
    4486:	1f 5f       	subi	r17, 0xFF	; 255
     if(key_pressed >= 200) break;	// more than 2.0 seconds
     if (key_pressed > 80) {	/* more than 0.8 seconds key press */
        // change of f_incre
        if (right) {
           // frequency string will move to the left, upper digit will move to the next lower digit
           Max_Digit = 10;		// f_incre will be 10kHz or less, allways 0-9
    4488:	16 31       	cpi	r17, 0x16	; 22
    448a:	11 f4       	brne	.+4      	; 0x4490 <make_frequency+0x2a6>
           significant--;		// diplay one digit less
           f_incre /= 10;		// 
           f_digit = (wish_freq / f_incre) % 10; // start with last digit
           continue;
    448c:	35 e1       	ldi	r19, 0x15	; 21
        } else {
           if (significant >= (16+6)) {
    448e:	39 83       	std	Y+1, r19	; 0x01
    4490:	aa e0       	ldi	r26, 0x0A	; 10
              f_incre = 1;		// increment with 1 Hz
              f_digit = 1;		// start value = 1 Hz
              significant = 16+1;	// only one significant digit
              continue;
           }
           significant++;		// display one digit more
    4492:	b0 e0       	ldi	r27, 0x00	; 0
           if (significant == (16+6)) Max_Digit = 21;
    4494:	a5 01       	movw	r20, r10
    4496:	94 01       	movw	r18, r8
    4498:	0e 94 c0 31 	call	0x6380	; 0x6380 <__muluhisi3>
           f_incre *= 10;		// change next digit to the left
    449c:	4b 01       	movw	r8, r22
    449e:	5c 01       	movw	r10, r24
    44a0:	31 2c       	mov	r3, r1
    44a2:	1f c0       	rjmp	.+62     	; 0x44e2 <make_frequency+0x2f8>
    44a4:	8b 30       	cpi	r24, 0x0B	; 11
    44a6:	08 f0       	brcs	.+2      	; 0x44aa <make_frequency+0x2c0>
    44a8:	33 94       	inc	r3
    44aa:	21 2c       	mov	r2, r1
           f_digit = 0;			// start new digit with zero
    44ac:	83 2d       	mov	r24, r3
           continue;
    44ae:	90 e0       	ldi	r25, 0x00	; 0
        }
     } else {
        if (key_pressed > KEYPRESS_LENGTH_10ms) f_digit++; // longer key press select next frequency
    44b0:	e9 81       	ldd	r30, Y+1	; 0x01
    44b2:	6e 2f       	mov	r22, r30
    44b4:	70 e0       	ldi	r23, 0x00	; 0
     key_pressed = wait_for_key_ms(2000);	// check key and rotary encoder
#ifdef POWER_OFF
 #ifdef WITH_ROTARY_SWITCH
     if ((key_pressed != 0) || (rotary.incre > 0)) times = 0;	// reset counter, operator is active
 #else
     if (key_pressed != 0)  times = 0;	// reset counter, operator is active
    44b6:	6f 5f       	subi	r22, 0xFF	; 255
        f_digit += rotary.count;		// increase the frequency number by rotary.count
     } else {
        f_digit += (Max_Digit + 1 + rotary.count);	// decrease the frequency by rotary.count
     }
#endif
     f_digit = f_digit % (Max_Digit + 1);
    44b8:	7f 4f       	sbci	r23, 0xFF	; 255
    44ba:	0e 94 5a 31 	call	0x62b4	; 0x62b4 <__divmodhi4>
    44be:	38 2e       	mov	r3, r24
    44c0:	82 2d       	mov	r24, r2
    44c2:	55 d8       	rcall	.-3926   	; 0x356e <Pwr_mode_check>
    44c4:	28 2e       	mov	r2, r24
    44c6:	ff ee       	ldi	r31, 0xEF	; 239
    44c8:	f8 17       	cp	r31, r24
    44ca:	08 f0       	brcs	.+2      	; 0x44ce <make_frequency+0x2e4>
#ifdef POWER_OFF
     times = Pwr_mode_check(times);	// no time limit with DC_Pwr_mode
    44cc:	c2 ce       	rjmp	.-636    	; 0x4252 <make_frequency+0x68>
    44ce:	ae cf       	rjmp	.-164    	; 0x442c <make_frequency+0x242>
    44d0:	2a e0       	ldi	r18, 0x0A	; 10
    44d2:	29 83       	std	Y+1, r18	; 0x01
#ifdef POWER_OFF
  uint8_t new_points;		// one point for every 30 seconds wait time
  uint8_t shown_points;		// one point for every 30 seconds wait time
  uint8_t times;		// total wait time
  shown_points = 0;
  for (times=0; times<240;) 
    44d4:	33 24       	eor	r3, r3
    44d6:	33 94       	inc	r3
    44d8:	81 2c       	mov	r8, r1
    44da:	91 2c       	mov	r9, r1
    44dc:	54 01       	movw	r10, r8
           continue;
        } else {
           if (significant >= (16+6)) {
              // reset to begin
//              wish_freq = 1;		// start with 1 Hz
              Max_Digit = 10;
    44de:	83 94       	inc	r8
    44e0:	11 e1       	ldi	r17, 0x11	; 17
              f_incre = 1;		// increment with 1 Hz
              f_digit = 1;		// start value = 1 Hz
    44e2:	21 2c       	mov	r2, r1
    44e4:	b6 ce       	rjmp	.-660    	; 0x4252 <make_frequency+0x68>

000044e6 <do_10bit_PWM>:
        } else {
           if (significant >= (16+6)) {
              // reset to begin
//              wish_freq = 1;		// start with 1 Hz
              Max_Digit = 10;
              f_incre = 1;		// increment with 1 Hz
    44e6:	a4 e0       	ldi	r26, 0x04	; 4
    44e8:	b0 e0       	ldi	r27, 0x00	; 0
    44ea:	e9 e7       	ldi	r30, 0x79	; 121
    44ec:	f2 e2       	ldi	r31, 0x22	; 34
              f_digit = 1;		// start value = 1 Hz
              significant = 16+1;	// only one significant digit
    44ee:	0c 94 d4 31 	jmp	0x63a8	; 0x63a8 <__prologue_saves__+0x8>
     key_pressed = wait_for_key_ms(2000);	// check key and rotary encoder
#ifdef POWER_OFF
 #ifdef WITH_ROTARY_SWITCH
     if ((key_pressed != 0) || (rotary.incre > 0)) times = 0;	// reset counter, operator is active
 #else
     if (key_pressed != 0)  times = 0;	// reset counter, operator is active
    44f2:	8c ee       	ldi	r24, 0xEC	; 236
/* do_10bit PWM                                        */
/* a short key press increase the duty cycle with 1%   */
/* a longer key press incrrase with 10%                */
/* a very long key press returns to menue              */
/* *************************************************** */
void do_10bit_PWM() {
    44f4:	91 e0       	ldi	r25, 0x01	; 1
    44f6:	38 d1       	rcall	.+624    	; 0x4768 <message_key_released>
    44f8:	83 e2       	ldi	r24, 0x23	; 35
    44fa:	80 93 80 00 	sts	0x0080, r24
    44fe:	10 92 6f 00 	sts	0x006F, r1
  uint8_t key_pressed;
  uint8_t percent;		// requestet duty-cycle in %
  uint8_t old_perc;		// old duty-cycle in %
  unsigned int pwm_flip;	// value for counter to flip the state
  message_key_released(PWM_10bit_str);	// display PWM-Generator and wait for key released
    4502:	8f ef       	ldi	r24, 0xFF	; 255
    4504:	90 e0       	ldi	r25, 0x00	; 0
    4506:	90 93 8b 00 	sts	0x008B, r25
  // OC1B is connected with 680 Ohm resistor to TP2 (middle test pin) 
  TCCR1A = (1<<COM1B1) | (0<<COM1B0) | (1<<WGM11) | (1<<WGM10); // fast PWM mode, mode 7: count to 10 bit
    450a:	80 93 8a 00 	sts	0x008A, r24
  TIMSK1 = 0;		// no interrupt used
    450e:	83 e0       	ldi	r24, 0x03	; 3
    4510:	86 bb       	out	0x16, r24	; 22
  OCR1B	= 0xff;		// toggle OC1B at this count
    4512:	10 92 82 00 	sts	0x0082, r1
    4516:	15 b8       	out	0x05, r1	; 5
    4518:	81 e1       	ldi	r24, 0x11	; 17
    451a:	84 b9       	out	0x04, r24	; 4
    451c:	18 b8       	out	0x08, r1	; 8
  TIFR1 = (1<<OCF1A) | (1<<OCF1A) | (1<<TOV1);	// reset interrupt flags
    451e:	81 e0       	ldi	r24, 0x01	; 1
    4520:	87 b9       	out	0x07, r24	; 7
  TCCR1C = 0;
    4522:	22 9a       	sbi	0x04, 2	; 4
    4524:	81 e0       	ldi	r24, 0x01	; 1

  R_PORT = 0;		// set all resistor port outputs to GND
    4526:	90 e0       	ldi	r25, 0x00	; 0
#if PROCESSOR_TYP == 644
  R_DDR = (1<<PIN_RL1) | (1<<PIN_RL2) | (1<<PIN_RL3);		// set TP1, DDD4(TP2) and TP3 to output
#else
  R_DDR = (1<<PIN_RL1) | (1<<PIN_RL3);		// set TP1 and TP3 to output
    4528:	90 93 89 00 	sts	0x0089, r25
#endif
  ADC_PORT = TXD_VAL;
    452c:	80 93 88 00 	sts	0x0088, r24
  ADC_DDR = (1<<TP1) | TXD_MSK;			//connect TP1 to GND
    4530:	89 e0       	ldi	r24, 0x09	; 9
#if PROCESSOR_TYP == 1280
  DDRB  |= (1<<DDB6);	// set output enable for OC1B
#else
  DDRB  |= (1<<DDB2);	// set output enable
    4532:	80 93 81 00 	sts	0x0081, r24
#endif
#ifdef PWM_SERVO
  TCCR1B = (1<<WGM13) | (1<<WGM12) | SERVO_START; // mode 15, clock divide by 8 or 64
  OCR1A = PWM_MAX_COUNT - 1;	// clock tics for 20 ms
#else
  OCR1A = 1;		// highest frequency
    4536:	10 e0       	ldi	r17, 0x00	; 0
    4538:	00 e0       	ldi	r16, 0x00	; 0
    453a:	a2 e3       	ldi	r26, 0x32	; 50
    453c:	7a 2e       	mov	r7, r26
    453e:	61 2c       	mov	r6, r1
  TCCR1B = (0<<WGM13) | (1<<WGM12) | (0<<CS12) | (0<<CS11) | (1<<CS10); // mode 7, no clock divide
    4540:	b4 e6       	ldi	r27, 0x64	; 100
    4542:	cb 2e       	mov	r12, r27
    4544:	d1 2c       	mov	r13, r1
  key_pressed = 0;
  old_perc = 0;
  percent = (SERVO_MAX + SERVO_MIN) / 2;	// set to middle
#ifdef POWER_OFF
  uint8_t times;		// time limit
  for (times=0; times<240; ) 
    4546:	e1 2c       	mov	r14, r1
#else
  OCR1A = 1;		// highest frequency
  TCCR1B = (0<<WGM13) | (1<<WGM12) | (0<<CS12) | (0<<CS11) | (1<<CS10); // mode 7, no clock divide
#endif
  key_pressed = 0;
  old_perc = 0;
    4548:	f1 2c       	mov	r15, r1
  percent = (SERVO_MAX + SERVO_MIN) / 2;	// set to middle
    454a:	88 24       	eor	r8, r8
    454c:	8a 94       	dec	r8
  OCR1A = PWM_MAX_COUNT - 1;	// clock tics for 20 ms
#else
  OCR1A = 1;		// highest frequency
  TCCR1B = (0<<WGM13) | (1<<WGM12) | (0<<CS12) | (0<<CS11) | (1<<CS10); // mode 7, no clock divide
#endif
  key_pressed = 0;
    454e:	83 e0       	ldi	r24, 0x03	; 3
	   percent -= (SERVO_MAX - SERVO_MIN);		// reset near to mininum value
        }
#ifdef PWM_SERVO
        pwm_flip = (((unsigned long)PWM_MAX_COUNT * percent) + 500) / 1000;
#else
        pwm_flip = (((unsigned long)PWM_MAX_COUNT * percent) + 50) / 100;
    4550:	98 2e       	mov	r9, r24
    4552:	a1 2c       	mov	r10, r1
    4554:	b1 2c       	mov	r11, r1
    4556:	70 16       	cp	r7, r16
    4558:	e9 f1       	breq	.+122    	; 0x45d4 <do_10bit_PWM+0xee>
	lcd_space();
	lcd_data('/');
	lcd_space();
	DisplayValue16(((unsigned long)PWM_MAX_COUNT * SERVO_DIV)/MHZ_CPU, -6,'s',3);
#else
        DisplayValue16((((unsigned long)pwm_flip * 1000) + (PWM_MAX_COUNT/2)) / PWM_MAX_COUNT,-1,'%',5);
    455a:	83 e6       	ldi	r24, 0x63	; 99
    455c:	87 15       	cp	r24, r7
    455e:	10 f4       	brcc	.+4      	; 0x4564 <do_10bit_PWM+0x7e>
    4560:	ec e9       	ldi	r30, 0x9C	; 156
    4562:	7e 0e       	add	r7, r30
    4564:	27 2d       	mov	r18, r7
  for (times=0; times<240; ) 
#else
  while (1)			/* wait endless without option POWER_OFF */
#endif
  {
     if (percent != old_perc) {
    4566:	30 e0       	ldi	r19, 0x00	; 0
    4568:	af ef       	ldi	r26, 0xFF	; 255
        // new duty cycle is requested
        if (percent >= SERVO_MAX) {
    456a:	b3 e0       	ldi	r27, 0x03	; 3
    456c:	0e 94 ab 31 	call	0x6356	; 0x6356 <__umulhisi3>
	   percent -= (SERVO_MAX - SERVO_MIN);		// reset near to mininum value
    4570:	6e 5c       	subi	r22, 0xCE	; 206
    4572:	7f 4f       	sbci	r23, 0xFF	; 255
        }
#ifdef PWM_SERVO
        pwm_flip = (((unsigned long)PWM_MAX_COUNT * percent) + 500) / 1000;
#else
        pwm_flip = (((unsigned long)PWM_MAX_COUNT * percent) + 50) / 100;
    4574:	8f 4f       	sbci	r24, 0xFF	; 255
    4576:	9f 4f       	sbci	r25, 0xFF	; 255
    4578:	a7 01       	movw	r20, r14
    457a:	96 01       	movw	r18, r12
    457c:	0e 94 6d 31 	call	0x62da	; 0x62da <__udivmodsi4>
    4580:	30 93 8b 00 	sts	0x008B, r19
    4584:	20 93 8a 00 	sts	0x008A, r18
    4588:	29 83       	std	Y+1, r18	; 0x01
    458a:	3a 83       	std	Y+2, r19	; 0x02
    458c:	4b 83       	std	Y+3, r20	; 0x03
    458e:	5c 83       	std	Y+4, r21	; 0x04
#endif
        OCR1B = pwm_flip;		// new percentage
    4590:	0e 94 8a 01 	call	0x314	; 0x314 <lcd_line2>
    4594:	a8 ee       	ldi	r26, 0xE8	; 232
    4596:	b3 e0       	ldi	r27, 0x03	; 3
        lcd_line2();		// goto line 2
    4598:	29 81       	ldd	r18, Y+1	; 0x01
    459a:	3a 81       	ldd	r19, Y+2	; 0x02
    459c:	4b 81       	ldd	r20, Y+3	; 0x03
    459e:	5c 81       	ldd	r21, Y+4	; 0x04
    45a0:	0e 94 c0 31 	call	0x6380	; 0x6380 <__muluhisi3>
	lcd_space();
	lcd_data('/');
	lcd_space();
	DisplayValue16(((unsigned long)PWM_MAX_COUNT * SERVO_DIV)/MHZ_CPU, -6,'s',3);
#else
        DisplayValue16((((unsigned long)pwm_flip * 1000) + (PWM_MAX_COUNT/2)) / PWM_MAX_COUNT,-1,'%',5);
    45a4:	61 50       	subi	r22, 0x01	; 1
    45a6:	7e 4f       	sbci	r23, 0xFE	; 254
    45a8:	8f 4f       	sbci	r24, 0xFF	; 255
    45aa:	9f 4f       	sbci	r25, 0xFF	; 255
    45ac:	a5 01       	movw	r20, r10
    45ae:	94 01       	movw	r18, r8
    45b0:	0e 94 6d 31 	call	0x62da	; 0x62da <__udivmodsi4>
    45b4:	da 01       	movw	r26, r20
    45b6:	c9 01       	movw	r24, r18
    45b8:	25 e0       	ldi	r18, 0x05	; 5
    45ba:	45 e2       	ldi	r20, 0x25	; 37
    45bc:	6f ef       	ldi	r22, 0xFF	; 255
    45be:	0e 94 65 04 	call	0x8ca	; 0x8ca <DisplayValue16>
    45c2:	0e 94 4e 02 	call	0x49c	; 0x49c <lcd_clear_line>
    45c6:	f8 e2       	ldi	r31, 0x28	; 40
    45c8:	f6 15       	cp	r31, r6
    45ca:	18 f4       	brcc	.+6      	; 0x45d2 <do_10bit_PWM+0xec>
    45cc:	8c e3       	ldi	r24, 0x3C	; 60
    45ce:	0e 94 aa 04 	call	0x954	; 0x954 <sleep_5ms>
#endif
        lcd_clear_line();
    45d2:	07 2d       	mov	r16, r7
    45d4:	80 e4       	ldi	r24, 0x40	; 64
        old_perc = percent;	// update the old duty cycle
        if (key_pressed > 40) {
    45d6:	96 e0       	ldi	r25, 0x06	; 6
    45d8:	0e 94 54 05 	call	0xaa8	; 0xaa8 <wait_for_key_ms>
           wait_about300ms();	// wait some time to release the button
    45dc:	68 2e       	mov	r6, r24
    45de:	82 e8       	ldi	r24, 0x82	; 130
    45e0:	86 15       	cp	r24, r6
	DisplayValue16(((unsigned long)PWM_MAX_COUNT * SERVO_DIV)/MHZ_CPU, -6,'s',3);
#else
        DisplayValue16((((unsigned long)pwm_flip * 1000) + (PWM_MAX_COUNT/2)) / PWM_MAX_COUNT,-1,'%',5);
#endif
        lcd_clear_line();
        old_perc = percent;	// update the old duty cycle
    45e2:	58 f4       	brcc	.+22     	; 0x45fa <do_10bit_PWM+0x114>
        if (key_pressed > 40) {
           wait_about300ms();	// wait some time to release the button
        }
     } /* end if percent != old_perc */
     key_pressed = wait_for_key_ms(1600);
    45e4:	17 b8       	out	0x07, r1	; 7
    45e6:	10 92 81 00 	sts	0x0081, r1
    45ea:	10 92 80 00 	sts	0x0080, r1
     if(key_pressed > 130) break;	// more than 1.3 seconds
    45ee:	14 b8       	out	0x04, r1	; 4
    45f0:	22 98       	cbi	0x04, 2	; 4
    45f2:	24 96       	adiw	r28, 0x04	; 4
#ifdef POWER_OFF
     times = Pwr_mode_check(times);	// no time limit with DC_Pwr_mode
#endif
  } /* end for times */

  ADC_DDR =  TXD_MSK;	// disconnect TP1 
    45f4:	ee e0       	ldi	r30, 0x0E	; 14
  TCCR1B = 0;		// stop counter
    45f6:	0c 94 f0 31 	jmp	0x63e0	; 0x63e0 <__epilogue_restores__+0x8>
  TCCR1A = 0;		// stop counter
    45fa:	e2 e3       	ldi	r30, 0x32	; 50
    45fc:	e6 15       	cp	r30, r6
  R_DDR = 0;		// switch resistor ports to Input
    45fe:	18 f4       	brcc	.+6      	; 0x4606 <do_10bit_PWM+0x120>
#if PROCESSOR_TYP == 1280
  DDRB  &= ~(1<<DDB6);	// disable output 
#else
  DDRB  &= ~(1<<DDB2);	// disable output 
    4600:	fa e0       	ldi	r31, 0x0A	; 10
#endif
} /* end do_10bit_PWM */
    4602:	7f 0e       	add	r7, r31
    4604:	03 c0       	rjmp	.+6      	; 0x460c <do_10bit_PWM+0x126>
    4606:	66 20       	and	r6, r6
    4608:	11 f0       	breq	.+4      	; 0x460e <do_10bit_PWM+0x128>
        percent += rotary.count;		// increase the duty cycle by rotary.count
     } else {
        percent += ((SERVO_MAX-SERVO_MIN) + rotary.count);	// decrease the duty cycle by rotary.count
     }
#endif
     if (key_pressed > 50) {
    460a:	73 94       	inc	r7
    460c:	10 e0       	ldi	r17, 0x00	; 0
    460e:	81 2f       	mov	r24, r17
        percent += 10;		// duty cycle will be increased with 10
    4610:	0e 94 b7 1a 	call	0x356e	; 0x356e <Pwr_mode_check>
    4614:	18 2f       	mov	r17, r24
     } else {
        if (key_pressed > 0) percent += 1;	// duty cycle will be increased with 1
    4616:	80 3f       	cpi	r24, 0xF0	; 240
    4618:	08 f4       	brcc	.+2      	; 0x461c <do_10bit_PWM+0x136>
    461a:	9d cf       	rjmp	.-198    	; 0x4556 <do_10bit_PWM+0x70>
     }
#ifdef POWER_OFF
 #ifdef WITH_ROTARY_SWITCH
     if ((key_pressed > 0) || (rotary.incre > 0)) times = 0;	// reset the loop counter, operator is active
 #else
     if (key_pressed > 0) times = 0;		//reset the loop counter, operator is active
    461c:	e3 cf       	rjmp	.-58     	; 0x45e4 <do_10bit_PWM+0xfe>

0000461e <set_big_cap_corr>:
 #endif
#endif
#ifdef POWER_OFF
     times = Pwr_mode_check(times);	// no time limit with DC_Pwr_mode
    461e:	0f 93       	push	r16
    4620:	1f 93       	push	r17
    4622:	cf 93       	push	r28
    4624:	df 93       	push	r29
  key_pressed = 0;
  old_perc = 0;
  percent = (SERVO_MAX + SERVO_MIN) / 2;	// set to middle
#ifdef POWER_OFF
  uint8_t times;		// time limit
  for (times=0; times<240; ) 
    4626:	8b ed       	ldi	r24, 0xDB	; 219
    4628:	91 e0       	ldi	r25, 0x01	; 1
    462a:	9e d0       	rcall	.+316    	; 0x4768 <message_key_released>
    462c:	8b e1       	ldi	r24, 0x1B	; 27
/* *************************************************** */
/* set the correction value for big capacitor measurement */
/* *************************************************** */
#define MIN_KORR (-20)
#define MAX_KORR 80
void set_big_cap_corr(void) {
    462e:	93 e0       	ldi	r25, 0x03	; 3
    4630:	0e 94 4b 32 	call	0x6496	; 0x6496 <__eerd_byte_m328p>
    4634:	18 2f       	mov	r17, r24
uint8_t key_pressed;
int8_t korr;
  // set the contrast value
  message_key_released(SetCapCorr_str);	// display Capacity correction and wait for key released
    4636:	00 e0       	ldi	r16, 0x00	; 0
    4638:	0e 94 8a 01 	call	0x314	; 0x314 <lcd_line2>
    463c:	c1 2f       	mov	r28, r17
  korr = eeprom_read_byte((uint8_t *)&big_cap_corr);
    463e:	dd 27       	eor	r29, r29
    4640:	c7 fd       	sbrc	r28, 7
    4642:	d0 95       	com	r29
    4644:	17 ff       	sbrs	r17, 7
    4646:	0b c0       	rjmp	.+22     	; 0x465e <set_big_cap_corr+0x40>
  #ifdef POWER_OFF
  uint8_t times;
  for (times=0;times<240;)
    4648:	8d e2       	ldi	r24, 0x2D	; 45
  #else
  while (1)                     /* wait endless without option POWER_OFF */
  #endif
  {
     lcd_line2();
    464a:	0e 94 59 01 	call	0x2b2	; 0x2b2 <lcd_data>
    464e:	23 e0       	ldi	r18, 0x03	; 3
    4650:	45 e2       	ldi	r20, 0x25	; 37
    4652:	6f ef       	ldi	r22, 0xFF	; 255
    4654:	88 27       	eor	r24, r24
     if (korr < 0) {
    4656:	99 27       	eor	r25, r25
    4658:	8c 1b       	sub	r24, r28
       lcd_data('-');
    465a:	9d 0b       	sbc	r25, r29
    465c:	04 c0       	rjmp	.+8      	; 0x4666 <set_big_cap_corr+0x48>
    465e:	23 e0       	ldi	r18, 0x03	; 3
       DisplayValue16(-korr,-1,'%',3);
    4660:	45 e2       	ldi	r20, 0x25	; 37
    4662:	6f ef       	ldi	r22, 0xFF	; 255
    4664:	ce 01       	movw	r24, r28
    4666:	0e 94 65 04 	call	0x8ca	; 0x8ca <DisplayValue16>
    466a:	0e 94 4e 02 	call	0x49c	; 0x49c <lcd_clear_line>
    466e:	80 e4       	ldi	r24, 0x40	; 64
     } else {
       DisplayValue16(korr,-1,'%',3);
    4670:	96 e0       	ldi	r25, 0x06	; 6
    4672:	0e 94 54 05 	call	0xaa8	; 0xaa8 <wait_for_key_ms>
    4676:	88 23       	and	r24, r24
    4678:	31 f0       	breq	.+12     	; 0x4686 <set_big_cap_corr+0x68>
    467a:	82 38       	cpi	r24, 0x82	; 130
     }
     lcd_clear_line();		// clear to end of line
    467c:	88 f4       	brcc	.+34     	; 0x46a0 <set_big_cap_corr+0x82>
    467e:	89 32       	cpi	r24, 0x29	; 41
     key_pressed = wait_for_key_ms(1600);
    4680:	c8 f0       	brcs	.+50     	; 0x46b4 <set_big_cap_corr+0x96>
    4682:	1f 5f       	subi	r17, 0xFF	; 255
    4684:	00 e0       	ldi	r16, 0x00	; 0
    4686:	11 35       	cpi	r17, 0x51	; 81
#ifdef POWER_OFF
 #ifdef WITH_ROTARY_SWITCH
     if ((key_pressed != 0) || (rotary.incre > 0)) times = 0;	// reset counter, operator is active
 #else
     if (key_pressed != 0)  times = 0;	// reset counter, operator is active
    4688:	14 f0       	brlt	.+4      	; 0x468e <set_big_cap_corr+0x70>
    468a:	15 56       	subi	r17, 0x65	; 101
 #endif
#endif
     if(key_pressed >= 130) break;	// more than 1.3 seconds
    468c:	03 c0       	rjmp	.+6      	; 0x4694 <set_big_cap_corr+0x76>
    468e:	1c 3e       	cpi	r17, 0xEC	; 236
#ifdef WITH_ROTARY_SWITCH
     if (rotary.incre > FAST_ROTATION) break;		// fast rotation ends setting of korr
     korr += rotary.count;		// increase or decrease the korr by rotary.count
#endif
     if (key_pressed > 0) {
        if (key_pressed > 40) {
    4690:	0c f4       	brge	.+2      	; 0x4694 <set_big_cap_corr+0x76>
    4692:	1b 59       	subi	r17, 0x9B	; 155
           korr++; // longer key press select higher korr value
    4694:	80 2f       	mov	r24, r16
     key_pressed = wait_for_key_ms(1600);
#ifdef POWER_OFF
 #ifdef WITH_ROTARY_SWITCH
     if ((key_pressed != 0) || (rotary.incre > 0)) times = 0;	// reset counter, operator is active
 #else
     if (key_pressed != 0)  times = 0;	// reset counter, operator is active
    4696:	0e 94 b7 1a 	call	0x356e	; 0x356e <Pwr_mode_check>
           korr++; // longer key press select higher korr value
        } else {
           korr--;	// decrease the korr 
        }
     }
     if (korr > MAX_KORR) korr -= (MAX_KORR - MIN_KORR + 1);
    469a:	08 2f       	mov	r16, r24
    469c:	80 3f       	cpi	r24, 0xF0	; 240
    469e:	60 f2       	brcs	.-104    	; 0x4638 <set_big_cap_corr+0x1a>
     if (korr < MIN_KORR) korr += (MAX_KORR - MIN_KORR + 1);
    46a0:	61 2f       	mov	r22, r17
    46a2:	8b e1       	ldi	r24, 0x1B	; 27
    46a4:	93 e0       	ldi	r25, 0x03	; 3
#ifdef POWER_OFF
     times = Pwr_mode_check(times);	// no time limit with DC_Pwr_mode
    46a6:	0e 94 58 32 	call	0x64b0	; 0x64b0 <__eewr_byte_m328p>
    46aa:	df 91       	pop	r29
    46ac:	cf 91       	pop	r28
  // set the contrast value
  message_key_released(SetCapCorr_str);	// display Capacity correction and wait for key released
  korr = eeprom_read_byte((uint8_t *)&big_cap_corr);
  #ifdef POWER_OFF
  uint8_t times;
  for (times=0;times<240;)
    46ae:	1f 91       	pop	r17
    46b0:	0f 91       	pop	r16
#ifdef POWER_OFF
     times = Pwr_mode_check(times);	// no time limit with DC_Pwr_mode
#endif
  } /* end for times */

  eeprom_write_byte((uint8_t *)(&big_cap_corr), (int8_t)korr);	// save korr value
    46b2:	08 95       	ret
    46b4:	11 50       	subi	r17, 0x01	; 1
    46b6:	e6 cf       	rjmp	.-52     	; 0x4684 <set_big_cap_corr+0x66>

000046b8 <do_menu>:
    46b8:	81 30       	cpi	r24, 0x01	; 1
    46ba:	11 f4       	brne	.+4      	; 0x46c0 <do_menu+0x8>
}	/* end set_big_cap_corr() */
    46bc:	96 cd       	rjmp	.-1236   	; 0x41ea <make_frequency>
    46be:	08 95       	ret
    46c0:	82 30       	cpi	r24, 0x02	; 2
    46c2:	11 f4       	brne	.+4      	; 0x46c8 <do_menu+0x10>
    46c4:	10 cf       	rjmp	.-480    	; 0x44e6 <do_10bit_PWM>
#endif
     if (key_pressed > 0) {
        if (key_pressed > 40) {
           korr++; // longer key press select higher korr value
        } else {
           korr--;	// decrease the korr 
    46c6:	08 95       	ret
    46c8:	83 30       	cpi	r24, 0x03	; 3
#if PROCESSOR_TYP == 644
    if (func_number == MODE_HFREQ) GetFrequency(1);	// measure high frequency with 16:1 divider
    if (func_number == MODE_H_CRYSTAL) GetFrequency(5); // HF crystal input + 16:1 divider
    if (func_number == MODE_L_CRYSTAL) GetFrequency(6); // LF crystal input, 1:1 divider
#endif
    if (func_number == MODE_FGEN) {
    46ca:	11 f4       	brne	.+4      	; 0x46d0 <do_menu+0x18>
    46cc:	29 cd       	rjmp	.-1454   	; 0x4120 <show_C_ESR>
       make_frequency();		// make some sample frequencies
    46ce:	08 95       	ret
    46d0:	84 30       	cpi	r24, 0x04	; 4
    46d2:	19 f4       	brne	.+6      	; 0x46da <do_menu+0x22>
    }
    if (func_number == MODE_PWM) {
    46d4:	0c 94 c1 1a 	jmp	0x3582	; 0x3582 <show_Resis13>
       do_10bit_PWM();		// generate 10bit PWM
    46d8:	08 95       	ret
    46da:	85 30       	cpi	r24, 0x05	; 5
    46dc:	29 f4       	brne	.+10     	; 0x46e8 <do_menu+0x30>
    }
    if (func_number == MODE_ESR) {
    46de:	0e 94 b2 01 	call	0x364	; 0x364 <lcd_clear>
       show_C_ESR();		// measure capacity and ESR at TP1 and TP3
    46e2:	0c 94 fc 1a 	jmp	0x35f8	; 0x35f8 <show_Cap13>
    46e6:	08 95       	ret
    }
    if (func_number == MODE_RESIS) {
    46e8:	86 30       	cpi	r24, 0x06	; 6
    46ea:	11 f4       	brne	.+4      	; 0x46f0 <do_menu+0x38>
       show_Resis13();		// measure resistor at TP1 and TP3
    46ec:	98 cf       	rjmp	.-208    	; 0x461e <set_big_cap_corr>
    46ee:	08 95       	ret
    46f0:	87 30       	cpi	r24, 0x07	; 7
    }
    if (func_number == MODE_CAP13) {
    46f2:	21 f4       	brne	.+8      	; 0x46fc <do_menu+0x44>
    46f4:	81 e1       	ldi	r24, 0x11	; 17
   lcd_clear();
    46f6:	0c 94 dc 06 	jmp	0xdb8	; 0xdb8 <AutoCheck>
       show_Cap13();		// measure capacitor at TP1 and TP3
    46fa:	08 95       	ret
    46fc:	88 30       	cpi	r24, 0x08	; 8
    46fe:	11 f4       	brne	.+4      	; 0x4704 <do_menu+0x4c>
#ifdef WITH_ROTARY_CHECK
    if (func_number == MODE_ROTARY) {
       CheckRotaryEncoder();		// check rotary encoder
    }
#endif
    if (func_number == MODE_BIG_CAP_CORR) {
    4700:	8e c1       	rjmp	.+796    	; 0x4a1e <ShowData>
    4702:	08 95       	ret
       set_big_cap_corr();
    4704:	89 30       	cpi	r24, 0x09	; 9
    4706:	11 f4       	brne	.+4      	; 0x470c <do_menu+0x54>
    4708:	0c 94 85 06 	jmp	0xd0a	; 0xd0a <switch_tester_off>
    }
#ifdef WITH_SELFTEST
    if (func_number == MODE_SELFTEST) AutoCheck(0x11);	// Full selftest with calibration
    470c:	08 95       	ret

0000470e <function_menu>:
    470e:	cf 93       	push	r28
    4710:	df 93       	push	r29
    4712:	8b e2       	ldi	r24, 0x2B	; 43
    4714:	92 e0       	ldi	r25, 0x02	; 2
#endif
#ifdef LCD_CHANGE_COLOR
    if (func_number == MODE_SELECT_FG) select_color(0);		// select foreground color
    if (func_number == MODE_SELECT_BG) select_color(1);		// select background color
#endif
    if (func_number == MODE_SHOW) {
    4716:	28 d0       	rcall	.+80     	; 0x4768 <message_key_released>
    4718:	d0 e0       	ldi	r29, 0x00	; 0
       ShowData();			// Show Calibration Data
    471a:	c0 e0       	ldi	r28, 0x00	; 0
    471c:	0e 94 8a 01 	call	0x314	; 0x314 <lcd_line2>
    }
    if (func_number == MODE_OFF) {
    4720:	8c 2f       	mov	r24, r28
    4722:	c5 dc       	rcall	.-1654   	; 0x40ae <message2line>
       switch_tester_off();		//switch off power
    4724:	80 e4       	ldi	r24, 0x40	; 64
    4726:	9f e1       	ldi	r25, 0x1F	; 31
    4728:	0e 94 54 05 	call	0xaa8	; 0xaa8 <wait_for_key_ms>
  }
}

#else // !WITH_HARDWARE_SERIAL

uint8_t function_menu() {
    472c:	81 11       	cpse	r24, r1
  rotary.count = 0;
 #endif
#endif

  func_number = 0;
  message_key_released(SELECTION_str);
    472e:	d0 e0       	ldi	r29, 0x00	; 0
    4730:	90 91 35 01 	lds	r25, 0x0135
    4734:	91 30       	cpi	r25, 0x01	; 1
 #ifdef POWER_OFF
  uint8_t ll;
  for (ll=0;ll<((MODE_LAST+1)*10);ll++) 
    4736:	09 f4       	brne	.+2      	; 0x473a <function_menu+0x2c>
 #ifdef WITH_ROTARY_SWITCH
  rotary.count = 0;
 #endif
#endif

  func_number = 0;
    4738:	d0 e0       	ldi	r29, 0x00	; 0
        message2line(f_nr);	// show function for this line
     } while (++mm < MENU_LINES);

 #endif         /* PAGE_MODE */
#else	/* not LCD_LINES > 3 */
     lcd_line2();
    473a:	82 33       	cpi	r24, 0x32	; 50
    473c:	40 f0       	brcs	.+16     	; 0x474e <function_menu+0x40>
     message2line(func_number);
    473e:	cc 23       	and	r28, r28
    4740:	79 f0       	breq	.+30     	; 0x4760 <function_menu+0x52>
    4742:	8c 2f       	mov	r24, r28
#endif /* (LCD_LINES > 3) */
#ifdef POWER_OFF
     ii = wait_for_key_ms(SHORT_WAIT_TIME);	// wait about 5 seconds
    4744:	b9 df       	rcall	.-142    	; 0x46b8 <do_menu>
    4746:	8b e2       	ldi	r24, 0x2B	; 43
    4748:	92 e0       	ldi	r25, 0x02	; 2
    474a:	0e d0       	rcall	.+28     	; 0x4768 <message_key_released>
     if (ii > 0) ll = 0;			// reset timer, operator present
    474c:	02 c0       	rjmp	.+4      	; 0x4752 <function_menu+0x44>
    474e:	81 11       	cpse	r24, r1
     if (DC_Pwr_mode == 1) ll = 0;
    4750:	cf 5f       	subi	r28, 0xFF	; 255
    4752:	df 5f       	subi	r29, 0xFF	; 255
    4754:	d4 36       	cpi	r29, 0x64	; 100
    4756:	20 f4       	brcc	.+8      	; 0x4760 <function_menu+0x52>
    4758:	ca 30       	cpi	r28, 0x0A	; 10
     ii = wait_for_key_ms(0);			// wait endless
#endif
#ifdef WITH_ROTARY_SWITCH
     if ((ii >= MIN_SELECT_TIME) || ((rotary_switch_present != 0) && (ii > 0)))
#else
     if (ii >= MIN_SELECT_TIME)
    475a:	00 f3       	brcs	.-64     	; 0x471c <function_menu+0xe>
    475c:	ca 50       	subi	r28, 0x0A	; 10
#endif
     {
        // selection only with key-press
        if (func_number == MODE_TRANS) return 0;		// return to TransistorTester
    475e:	de cf       	rjmp	.-68     	; 0x471c <function_menu+0xe>
    4760:	80 e0       	ldi	r24, 0x00	; 0
        do_menu(func_number);
    4762:	df 91       	pop	r29
    4764:	cf 91       	pop	r28
    4766:	08 95       	ret

00004768 <message_key_released>:

//=================================================================
// Clear display, show Message XX_str and wait for key release

#if FLASHEND > 0x3fff
void message_key_released(const unsigned char XX_str[]) {
    4768:	a2 e0       	ldi	r26, 0x02	; 2
    476a:	b0 e0       	ldi	r27, 0x00	; 0
    476c:	ea eb       	ldi	r30, 0xBA	; 186
    476e:	f3 e2       	ldi	r31, 0x23	; 35
    4770:	0c 94 df 31 	jmp	0x63be	; 0x63be <__prologue_saves__+0x1e>
//  lcd_clear_line();
//  lcd_line2();
//  lcd_clear_line();
//  lcd_line1();
//#else
  lcd_clear();
    4774:	89 83       	std	Y+1, r24	; 0x01
    4776:	9a 83       	std	Y+2, r25	; 0x02
    4778:	0e 94 b2 01 	call	0x364	; 0x364 <lcd_clear>
//#endif
  lcd_MEM2_string(XX_str);		// display MEM2_str in row 1
    477c:	89 81       	ldd	r24, Y+1	; 0x01
    477e:	9a 81       	ldd	r25, Y+2	; 0x02
    4780:	0e 94 d1 01 	call	0x3a2	; 0x3a2 <lcd_fix_string>
    4784:	14 e6       	ldi	r17, 0x64	; 100
  for (times=0;times<100;times++) {
     wait_about10ms();
    4786:	82 e0       	ldi	r24, 0x02	; 2
    4788:	0e 94 aa 04 	call	0x954	; 0x954 <sleep_5ms>
    if((RST_PIN_REG & (1<<RST_PIN))) break;	// key is released
    478c:	4f 99       	sbic	0x09, 7	; 9
    478e:	02 c0       	rjmp	.+4      	; 0x4794 <message_key_released+0x2c>
    4790:	11 50       	subi	r17, 0x01	; 1
//  lcd_line1();
//#else
  lcd_clear();
//#endif
  lcd_MEM2_string(XX_str);		// display MEM2_str in row 1
  for (times=0;times<100;times++) {
    4792:	c9 f7       	brne	.-14     	; 0x4786 <message_key_released+0x1e>
     wait_about10ms();
    if((RST_PIN_REG & (1<<RST_PIN))) break;	// key is released
  }
  lcd_line2();
    4794:	0e 94 8a 01 	call	0x314	; 0x314 <lcd_line2>
  return;
} /* end message_key_released() */
    4798:	22 96       	adiw	r28, 0x02	; 2
    479a:	e3 e0       	ldi	r30, 0x03	; 3
    479c:	0c 94 fb 31 	jmp	0x63f6	; 0x63f6 <__epilogue_restores__+0x1e>

000047a0 <ReadBigCap>:
#include "Transistortester.h"


#ifdef WITH_MENU
//=================================================================
void ReadBigCap(uint8_t HighPin, uint8_t LowPin) {
    47a0:	a4 e0       	ldi	r26, 0x04	; 4
    47a2:	b0 e0       	ldi	r27, 0x00	; 0
    47a4:	e6 ed       	ldi	r30, 0xD6	; 214
    47a6:	f3 e2       	ldi	r31, 0x23	; 35
    47a8:	0c 94 d5 31 	jmp	0x63aa	; 0x63aa <__prologue_saves__+0xa>
    47ac:	88 2e       	mov	r8, r24
    47ae:	76 2e       	mov	r7, r22
//#endif

#if (((PIN_RL1 + 1) != PIN_RH1) || ((PIN_RL2 + 1) != PIN_RH2) || ((PIN_RL3 + 1) != PIN_RH3))
  LoADC = pgm_read_byte((&PinRLRHADCtab[6])+LowPin-TP_MIN) | TXD_MSK;
#else
  LoADC = pgm_read_byte((&PinRLRHADCtab[3])+LowPin-TP_MIN) | TXD_MSK;
    47b0:	e6 2f       	mov	r30, r22
    47b2:	f0 e0       	ldi	r31, 0x00	; 0
    47b4:	ed 56       	subi	r30, 0x6D	; 109
    47b6:	fe 4f       	sbci	r31, 0xFE	; 254
    47b8:	04 91       	lpm	r16, Z
#endif
  HiPinR_L = pgm_read_byte(&PinRLRHADCtab[HighPin-TP_MIN]);	//R_L mask for HighPin R_L load
    47ba:	e8 2f       	mov	r30, r24
    47bc:	f0 e0       	ldi	r31, 0x00	; 0
    47be:	e0 57       	subi	r30, 0x70	; 112
    47c0:	fe 4f       	sbci	r31, 0xFE	; 254
    47c2:	b4 90       	lpm	r11, Z
  LoPinR_L = pgm_read_byte(&PinRLRHADCtab[LowPin-TP_MIN]);	//R_L mask for LowPin R_L load
    47c4:	e6 2f       	mov	r30, r22
    47c6:	f0 e0       	ldi	r31, 0x00	; 0
    47c8:	e0 57       	subi	r30, 0x70	; 112
    47ca:	fe 4f       	sbci	r31, 0xFE	; 254
    47cc:	14 91       	lpm	r17, Z

#if FLASHEND > 0x1fff
  cap.esr = 0;				// set ESR of capacitor to zero
    47ce:	10 92 80 01 	sts	0x0180, r1
    47d2:	10 92 7f 01 	sts	0x017F, r1
#endif
  cap.cval = 0;				// set capacity value to zero
    47d6:	10 92 73 01 	sts	0x0173, r1
    47da:	10 92 74 01 	sts	0x0174, r1
    47de:	10 92 75 01 	sts	0x0175, r1
    47e2:	10 92 76 01 	sts	0x0176, r1
  cap.cpre = -9;			//default unit is nF
    47e6:	87 ef       	ldi	r24, 0xF7	; 247
    47e8:	80 93 85 01 	sts	0x0185, r24
  EntladePins();			// discharge capacitor
    47ec:	0e 94 76 14 	call	0x28ec	; 0x28ec <EntladePins>
  ADC_PORT = TXD_VAL;			// switch ADC-Port to GND
    47f0:	18 b8       	out	0x08, r1	; 8
// The polarity of residual voltage of the capacitor depends on the measurement
// history.   Because the ADC can not measure a negative Voltage,
// the LowPin voltage is shifted to 139mV with the R_L resistor.
// The voltage of the capacitor is build as difference between HighPin and LowPin voltage.
  ADC_DDR = LoADC;			// switch Low-Pin to output (GND)
    47f2:	07 b9       	out	0x07, r16	; 7
  R_DDR = LoPinR_L;			// switch R_L Port of LoPin to VCC
    47f4:	14 b9       	out	0x04, r17	; 4
  R_PORT = LoPinR_L;			// switch R_L Port of LoPin to VCC
    47f6:	15 b9       	out	0x05, r17	; 5
  residual_voltage = ReadADC(HighPin) - ReadADC(LowPin);	// capacitor voltage before any load 
    47f8:	88 2d       	mov	r24, r8
    47fa:	0e 94 e2 04 	call	0x9c4	; 0x9c4 <ReadADC>
    47fe:	8c 01       	movw	r16, r24
    4800:	87 2d       	mov	r24, r7
    4802:	0e 94 e2 04 	call	0x9c4	; 0x9c4 <ReadADC>
    4806:	08 1b       	sub	r16, r24
    4808:	19 0b       	sbc	r17, r25
  R_DDR = 0;				// switch all R_L Port to input
    480a:	14 b8       	out	0x04, r1	; 4
  cap_voltage1 = 0;			// preset to prevent compiler warning
  
  ovcnt16 = 0;
    480c:	10 92 52 01 	sts	0x0152, r1
    4810:	10 92 51 01 	sts	0x0151, r1
  ADC_DDR = LoADC;			// switch Low-Pin to output (GND)
  R_DDR = LoPinR_L;			// switch R_L Port of LoPin to VCC
  R_PORT = LoPinR_L;			// switch R_L Port of LoPin to VCC
  residual_voltage = ReadADC(HighPin) - ReadADC(LowPin);	// capacitor voltage before any load 
  R_DDR = 0;				// switch all R_L Port to input
  cap_voltage1 = 0;			// preset to prevent compiler warning
    4814:	20 e0       	ldi	r18, 0x00	; 0
    4816:	30 e0       	ldi	r19, 0x00	; 0
  ovcnt16 = 0;
#define MAX_LOAD_TIME 12500
#define MIN_VOLTAGE 300
  while (ovcnt16 < MAX_LOAD_TIME) {
     R_PORT = HiPinR_L;			//R_L to 1 (VCC) 
     if ((ovcnt16 == 0) || ((MIN_VOLTAGE-cap_voltage1) < (cap_voltage1*10/ovcnt16))) {
    4818:	9c e2       	ldi	r25, 0x2C	; 44
    481a:	e9 2e       	mov	r14, r25
    481c:	ff 24       	eor	r15, r15
    481e:	f3 94       	inc	r15
    4820:	4a e0       	ldi	r20, 0x0A	; 10
    4822:	a4 2e       	mov	r10, r20
        R_DDR = HiPinR_L;		//switch Pin to output, across R to VCC
        wait200us();			// wait exactly 0.2ms, do not sleep
        R_DDR = 0;			// switch back to input
        ovcnt16++;
     } else if ((ovcnt16 > 10) && ((MIN_VOLTAGE-cap_voltage1) > ((cap_voltage1*100)/ovcnt16))){
    4824:	54 e6       	ldi	r21, 0x64	; 100
    4826:	95 2e       	mov	r9, r21
  cap_voltage1 = 0;			// preset to prevent compiler warning
  
  ovcnt16 = 0;
#define MAX_LOAD_TIME 12500
#define MIN_VOLTAGE 300
  while (ovcnt16 < MAX_LOAD_TIME) {
    4828:	80 91 51 01 	lds	r24, 0x0151
    482c:	90 91 52 01 	lds	r25, 0x0152
    4830:	84 3d       	cpi	r24, 0xD4	; 212
    4832:	90 43       	sbci	r25, 0x30	; 48
    4834:	08 f0       	brcs	.+2      	; 0x4838 <ReadBigCap+0x98>
    4836:	69 c0       	rjmp	.+210    	; 0x490a <ReadBigCap+0x16a>
     R_PORT = HiPinR_L;			//R_L to 1 (VCC) 
    4838:	b5 b8       	out	0x05, r11	; 5
     if ((ovcnt16 == 0) || ((MIN_VOLTAGE-cap_voltage1) < (cap_voltage1*10/ovcnt16))) {
    483a:	80 91 51 01 	lds	r24, 0x0151
    483e:	90 91 52 01 	lds	r25, 0x0152
    4842:	89 2b       	or	r24, r25
    4844:	89 f0       	breq	.+34     	; 0x4868 <ReadBigCap+0xc8>
    4846:	67 01       	movw	r12, r14
    4848:	c2 1a       	sub	r12, r18
    484a:	d3 0a       	sbc	r13, r19
    484c:	60 91 51 01 	lds	r22, 0x0151
    4850:	70 91 52 01 	lds	r23, 0x0152
    4854:	a2 9e       	mul	r10, r18
    4856:	c0 01       	movw	r24, r0
    4858:	a3 9e       	mul	r10, r19
    485a:	90 0d       	add	r25, r0
    485c:	11 24       	eor	r1, r1
    485e:	0e 94 46 31 	call	0x628c	; 0x628c <__udivmodhi4>
    4862:	c6 16       	cp	r12, r22
    4864:	d7 06       	cpc	r13, r23
    4866:	50 f4       	brcc	.+20     	; 0x487c <ReadBigCap+0xdc>
        R_DDR = HiPinR_L;		//switch Pin to output, across R to VCC
    4868:	b4 b8       	out	0x04, r11	; 4
        wait200us();			// wait exactly 0.2ms, do not sleep
    486a:	0e 94 9d 04 	call	0x93a	; 0x93a <wait200us>
        R_DDR = 0;			// switch back to input
    486e:	14 b8       	out	0x04, r1	; 4
        ovcnt16++;
    4870:	80 91 51 01 	lds	r24, 0x0151
    4874:	90 91 52 01 	lds	r25, 0x0152
    4878:	01 96       	adiw	r24, 0x01	; 1
    487a:	28 c0       	rjmp	.+80     	; 0x48cc <ReadBigCap+0x12c>
     } else if ((ovcnt16 > 10) && ((MIN_VOLTAGE-cap_voltage1) > ((cap_voltage1*100)/ovcnt16))){
    487c:	80 91 51 01 	lds	r24, 0x0151
    4880:	90 91 52 01 	lds	r25, 0x0152
    4884:	0b 97       	sbiw	r24, 0x0b	; 11
    4886:	c8 f0       	brcs	.+50     	; 0x48ba <ReadBigCap+0x11a>
    4888:	60 91 51 01 	lds	r22, 0x0151
    488c:	70 91 52 01 	lds	r23, 0x0152
    4890:	92 9e       	mul	r9, r18
    4892:	c0 01       	movw	r24, r0
    4894:	93 9e       	mul	r9, r19
    4896:	90 0d       	add	r25, r0
    4898:	11 24       	eor	r1, r1
    489a:	0e 94 46 31 	call	0x628c	; 0x628c <__udivmodhi4>
    489e:	6c 15       	cp	r22, r12
    48a0:	7d 05       	cpc	r23, r13
    48a2:	58 f4       	brcc	.+22     	; 0x48ba <ReadBigCap+0x11a>
        R_DDR = HiPinR_L;		//switch Pin to output, across R to VCC
    48a4:	b4 b8       	out	0x04, r11	; 4
        wait20ms();			// wait exactly 20ms, do not sleep
    48a6:	0e 94 92 04 	call	0x924	; 0x924 <wait20ms>
        R_DDR = 0;			// switch back to input
    48aa:	14 b8       	out	0x04, r1	; 4
        ovcnt16 += 100;
    48ac:	80 91 51 01 	lds	r24, 0x0151
    48b0:	90 91 52 01 	lds	r25, 0x0152
    48b4:	8c 59       	subi	r24, 0x9C	; 156
    48b6:	9f 4f       	sbci	r25, 0xFF	; 255
    48b8:	09 c0       	rjmp	.+18     	; 0x48cc <ReadBigCap+0x12c>
     } else {
        R_DDR = HiPinR_L;		//switch Pin to output, across R to VCC
    48ba:	b4 b8       	out	0x04, r11	; 4
        wait2ms();			// wait exactly 2ms, do not sleep
    48bc:	0e 94 98 04 	call	0x930	; 0x930 <wait2ms>
        R_DDR = 0;			// switch back to input
    48c0:	14 b8       	out	0x04, r1	; 4
        ovcnt16 += 10;
    48c2:	80 91 51 01 	lds	r24, 0x0151
    48c6:	90 91 52 01 	lds	r25, 0x0152
    48ca:	0a 96       	adiw	r24, 0x0a	; 10
    48cc:	90 93 52 01 	sts	0x0152, r25
    48d0:	80 93 51 01 	sts	0x0151, r24
     }
     R_PORT = 0;			// no Pull up
    48d4:	15 b8       	out	0x05, r1	; 5
     wait50us();			//wait a little time
    48d6:	0e 94 9f 04 	call	0x93e	; 0x93e <wait50us>
     wdt_reset();
    48da:	a8 95       	wdr
     // read voltage without current, is already charged enough?
     cap_voltage1 = ReadADC(HighPin) - residual_voltage;	// voltage loaded to capacitor
    48dc:	88 2d       	mov	r24, r8
    48de:	0e 94 e2 04 	call	0x9c4	; 0x9c4 <ReadADC>
    48e2:	9c 01       	movw	r18, r24
    48e4:	20 1b       	sub	r18, r16
    48e6:	31 0b       	sbc	r19, r17
     if ((ovcnt16 > (MAX_LOAD_TIME/8)) && (cap_voltage1 < (MIN_VOLTAGE/8))) {
    48e8:	80 91 51 01 	lds	r24, 0x0151
    48ec:	90 91 52 01 	lds	r25, 0x0152
    48f0:	8b 31       	cpi	r24, 0x1B	; 27
    48f2:	96 40       	sbci	r25, 0x06	; 6
    48f4:	20 f0       	brcs	.+8      	; 0x48fe <ReadBigCap+0x15e>
    48f6:	25 32       	cpi	r18, 0x25	; 37
    48f8:	31 05       	cpc	r19, r1
    48fa:	0c f4       	brge	.+2      	; 0x48fe <ReadBigCap+0x15e>
    48fc:	88 c0       	rjmp	.+272    	; 0x4a0e <ReadBigCap+0x26e>
        // 300mV can not be reached well-timed 
        break;		// don't try to load any more
     }
     // probably 50mF can be charged well-timed 
     if (cap_voltage1 > MIN_VOLTAGE) {
    48fe:	2d 32       	cpi	r18, 0x2D	; 45
    4900:	81 e0       	ldi	r24, 0x01	; 1
    4902:	38 07       	cpc	r19, r24
    4904:	0c f4       	brge	.+2      	; 0x4908 <ReadBigCap+0x168>
    4906:	90 cf       	rjmp	.-224    	; 0x4828 <ReadBigCap+0x88>
    4908:	05 c0       	rjmp	.+10     	; 0x4914 <ReadBigCap+0x174>
     }
  }
  // wait 5ms and read voltage again, does the capacitor keep the voltage?
//  adcv[1] = W5msReadADC(HighPin) - adcv[0];
//  wdt_reset();
  if (cap_voltage1 <= MIN_VOLTAGE) {
    490a:	2d 32       	cpi	r18, 0x2D	; 45
    490c:	f1 e0       	ldi	r31, 0x01	; 1
    490e:	3f 07       	cpc	r19, r31
    4910:	0c f4       	brge	.+2      	; 0x4914 <ReadBigCap+0x174>
    4912:	7d c0       	rjmp	.+250    	; 0x4a0e <ReadBigCap+0x26e>
     goto keinC;		// was never charged enough, >20mF or shorted
  }
  //voltage is rised properly and keeps the voltage enough
  if ((ovcnt16 == 1 ) && (cap_voltage1 > 1300)) {
    4914:	80 91 51 01 	lds	r24, 0x0151
    4918:	90 91 52 01 	lds	r25, 0x0152
    491c:	01 97       	sbiw	r24, 0x01	; 1
    491e:	29 f4       	brne	.+10     	; 0x492a <ReadBigCap+0x18a>
    4920:	25 31       	cpi	r18, 0x15	; 21
    4922:	45 e0       	ldi	r20, 0x05	; 5
    4924:	34 07       	cpc	r19, r20
    4926:	0c f0       	brlt	.+2      	; 0x492a <ReadBigCap+0x18a>
    4928:	72 c0       	rjmp	.+228    	; 0x4a0e <ReadBigCap+0x26e>
     goto keinC;		// Voltage of more than 1300mV is reached in one pulse, too fast loaded
  }
  // Capacity is more than about 50µF
  cap.cval_uncorrected.dw = ovcnt16*2;
    492a:	00 91 51 01 	lds	r16, 0x0151
    492e:	10 91 52 01 	lds	r17, 0x0152
    4932:	00 0f       	add	r16, r16
    4934:	11 1f       	adc	r17, r17
    4936:	a8 01       	movw	r20, r16
    4938:	60 e0       	ldi	r22, 0x00	; 0
    493a:	70 e0       	ldi	r23, 0x00	; 0
    493c:	40 93 7b 01 	sts	0x017B, r20
    4940:	50 93 7c 01 	sts	0x017C, r21
    4944:	60 93 7d 01 	sts	0x017D, r22
    4948:	70 93 7e 01 	sts	0x017E, r23
  // compute factor with load voltage + lost voltage during the voltage load time
//  cap.cval_uncorrected.dw *= GetRLmultip(cap_voltage1);	// get factor to convert time to capacity from table
  cap.cval_uncorrected.dw *= GetRLmultip(cap_voltage1 + cap_voltage1/40);	// get factor to convert time to capacity from table
    494c:	c9 01       	movw	r24, r18
    494e:	68 e2       	ldi	r22, 0x28	; 40
    4950:	70 e0       	ldi	r23, 0x00	; 0
    4952:	0e 94 5a 31 	call	0x62b4	; 0x62b4 <__divmodhi4>
    4956:	c9 01       	movw	r24, r18
    4958:	86 0f       	add	r24, r22
    495a:	97 1f       	adc	r25, r23
    495c:	0e 94 56 18 	call	0x30ac	; 0x30ac <GetRLmultip>
    4960:	9c 01       	movw	r18, r24
    4962:	d8 01       	movw	r26, r16
    4964:	0e 94 ab 31 	call	0x6356	; 0x6356 <__umulhisi3>
    4968:	60 93 7b 01 	sts	0x017B, r22
    496c:	70 93 7c 01 	sts	0x017C, r23
    4970:	80 93 7d 01 	sts	0x017D, r24
    4974:	90 93 7e 01 	sts	0x017E, r25
   cap.cval = cap.cval_uncorrected.dw;	// set result to uncorrected
    4978:	60 93 73 01 	sts	0x0173, r22
    497c:	70 93 74 01 	sts	0x0174, r23
    4980:	80 93 75 01 	sts	0x0175, r24
    4984:	90 93 76 01 	sts	0x0176, r25
   Scale_C_with_vcc();
    4988:	0e 94 ff 14 	call	0x29fe	; 0x29fe <Scale_C_with_vcc>
   // cap.cval for this type is at least 40000nF, so the last digit will be never shown
//   cap.cval -= ((cap.cval * C_H_KORR) / 1000);	// correct with C_H_KORR with 0.1% resolution, but prevent overflow
//   cap.cval /= 10;
#ifdef WITH_MENU
   cap.cval *= (1000 - (int8_t)eeprom_read_byte((uint8_t *)&big_cap_corr));	// correct with actual big_cap_korr at 0.1% resolution
    498c:	20 91 73 01 	lds	r18, 0x0173
    4990:	30 91 74 01 	lds	r19, 0x0174
    4994:	40 91 75 01 	lds	r20, 0x0175
    4998:	50 91 76 01 	lds	r21, 0x0176
    499c:	8b e1       	ldi	r24, 0x1B	; 27
    499e:	93 e0       	ldi	r25, 0x03	; 3
    49a0:	29 83       	std	Y+1, r18	; 0x01
    49a2:	3a 83       	std	Y+2, r19	; 0x02
    49a4:	4b 83       	std	Y+3, r20	; 0x03
    49a6:	5c 83       	std	Y+4, r21	; 0x04
    49a8:	0e 94 4b 32 	call	0x6496	; 0x6496 <__eerd_byte_m328p>
    49ac:	a8 ee       	ldi	r26, 0xE8	; 232
    49ae:	b3 e0       	ldi	r27, 0x03	; 3
    49b0:	a8 1b       	sub	r26, r24
    49b2:	b1 09       	sbc	r27, r1
    49b4:	87 fd       	sbrc	r24, 7
    49b6:	b3 95       	inc	r27
    49b8:	29 81       	ldd	r18, Y+1	; 0x01
    49ba:	3a 81       	ldd	r19, Y+2	; 0x02
    49bc:	4b 81       	ldd	r20, Y+3	; 0x03
    49be:	5c 81       	ldd	r21, Y+4	; 0x04
    49c0:	0e 94 ca 31 	call	0x6394	; 0x6394 <__mulshisi3>
#else
   cap.cval *= (1000 - C_H_KORR);	// correct with C_H_KORR at 0.1% resolution
#endif
   cap.cval /= 10000;
    49c4:	20 e1       	ldi	r18, 0x10	; 16
    49c6:	37 e2       	ldi	r19, 0x27	; 39
    49c8:	40 e0       	ldi	r20, 0x00	; 0
    49ca:	50 e0       	ldi	r21, 0x00	; 0
    49cc:	0e 94 6d 31 	call	0x62da	; 0x62da <__udivmodsi4>
    49d0:	20 93 73 01 	sts	0x0173, r18
    49d4:	30 93 74 01 	sts	0x0174, r19
    49d8:	40 93 75 01 	sts	0x0175, r20
    49dc:	50 93 76 01 	sts	0x0176, r21

//==================================================================================

   PartFound = PART_CAPACITOR;	//capacitor is found
    49e0:	88 e0       	ldi	r24, 0x08	; 8
    49e2:	80 93 1a 01 	sts	0x011A, r24
      cap.cval_max = cap.cval;
    49e6:	20 93 77 01 	sts	0x0177, r18
    49ea:	30 93 78 01 	sts	0x0178, r19
    49ee:	40 93 79 01 	sts	0x0179, r20
    49f2:	50 93 7a 01 	sts	0x017A, r21
      cap.cpre_max = cap.cpre;
    49f6:	80 91 85 01 	lds	r24, 0x0185
    49fa:	80 93 86 01 	sts	0x0186, r24
#if FLASHEND > 0x1fff
      cap.v_loss = 0;			// set lost voltage to zero
    49fe:	10 92 82 01 	sts	0x0182, r1
    4a02:	10 92 81 01 	sts	0x0181, r1
#endif
      cap.ca = LowPin;		// save LowPin
    4a06:	70 92 83 01 	sts	0x0183, r7
      cap.cb = HighPin;		// save HighPin
    4a0a:	80 92 84 01 	sts	0x0184, r8
keinC:
  // discharge capacitor again
//  EntladePins();		// discharge capacitors
  //ready
  // switch all ports to input
  ADC_DDR =  TXD_MSK;		// switch all ADC ports to input
    4a0e:	17 b8       	out	0x07, r1	; 7
  ADC_PORT = TXD_VAL;		// switch all ADC outputs to GND, no pull up
    4a10:	18 b8       	out	0x08, r1	; 8
  R_DDR = 0;			// switch all resistor ports to input
    4a12:	14 b8       	out	0x04, r1	; 4
  R_PORT = 0; 			// switch all resistor outputs to GND, no pull up
    4a14:	15 b8       	out	0x05, r1	; 5
  return;
 } // end ReadBigCap()
    4a16:	24 96       	adiw	r28, 0x04	; 4
    4a18:	ed e0       	ldi	r30, 0x0D	; 13
    4a1a:	0c 94 f1 31 	jmp	0x63e2	; 0x63e2 <__epilogue_restores__+0xa>

00004a1e <ShowData>:
#include "Transistortester.h"
/*  ShowData shows the Software version number and */
/*  the calibration data at the 2-line or 4-line LCD */
#ifdef WITH_MENU
void ShowData(void) {
    4a1e:	a0 e0       	ldi	r26, 0x00	; 0
    4a20:	b0 e0       	ldi	r27, 0x00	; 0
    4a22:	e5 e1       	ldi	r30, 0x15	; 21
    4a24:	f5 e2       	ldi	r31, 0x25	; 37
    4a26:	0c 94 db 31 	jmp	0x63b6	; 0x63b6 <__prologue_saves__+0x16>
#endif

#ifdef WITH_ROTARY_SWITCH
show_page_1:
#endif
  lcd_clear();
    4a2a:	0e 94 b2 01 	call	0x364	; 0x364 <lcd_clear>
  lcd_MEM_string(VERSION_str);	// "Version x.xxk"
    4a2e:	83 e1       	ldi	r24, 0x13	; 19
    4a30:	91 e0       	ldi	r25, 0x01	; 1
    4a32:	0e 94 d1 01 	call	0x3a2	; 0x3a2 <lcd_fix_string>
  lcd_line2();
    4a36:	0e 94 8a 01 	call	0x314	; 0x314 <lcd_line2>
  lcd_MEM2_string(R0_str);	// "R0="
    4a3a:	8f ec       	ldi	r24, 0xCF	; 207
    4a3c:	90 e0       	ldi	r25, 0x00	; 0
    4a3e:	0e 94 d1 01 	call	0x3a2	; 0x3a2 <lcd_fix_string>
  DisplayValue16(eeprom_read_byte(&EE_ESR_ZEROtab[2]),-2,' ',3);
    4a42:	89 e1       	ldi	r24, 0x19	; 25
    4a44:	93 e0       	ldi	r25, 0x03	; 3
    4a46:	0e 94 4b 32 	call	0x6496	; 0x6496 <__eerd_byte_m328p>
    4a4a:	23 e0       	ldi	r18, 0x03	; 3
    4a4c:	40 e2       	ldi	r20, 0x20	; 32
    4a4e:	6e ef       	ldi	r22, 0xFE	; 254
    4a50:	90 e0       	ldi	r25, 0x00	; 0
    4a52:	0e 94 65 04 	call	0x8ca	; 0x8ca <DisplayValue16>
  DisplayValue16(eeprom_read_byte(&EE_ESR_ZEROtab[3]),-2,' ',3);
    4a56:	8a e1       	ldi	r24, 0x1A	; 26
    4a58:	93 e0       	ldi	r25, 0x03	; 3
    4a5a:	0e 94 4b 32 	call	0x6496	; 0x6496 <__eerd_byte_m328p>
    4a5e:	23 e0       	ldi	r18, 0x03	; 3
    4a60:	40 e2       	ldi	r20, 0x20	; 32
    4a62:	6e ef       	ldi	r22, 0xFE	; 254
    4a64:	90 e0       	ldi	r25, 0x00	; 0
    4a66:	0e 94 65 04 	call	0x8ca	; 0x8ca <DisplayValue16>
  DisplayValue16(eeprom_read_byte(&EE_ESR_ZEROtab[1]),-2,LCD_CHAR_OMEGA,3);
    4a6a:	88 e1       	ldi	r24, 0x18	; 24
    4a6c:	93 e0       	ldi	r25, 0x03	; 3
    4a6e:	0e 94 4b 32 	call	0x6496	; 0x6496 <__eerd_byte_m328p>
    4a72:	23 e0       	ldi	r18, 0x03	; 3
    4a74:	44 e0       	ldi	r20, 0x04	; 4
    4a76:	6e ef       	ldi	r22, 0xFE	; 254
    4a78:	90 e0       	ldi	r25, 0x00	; 0
    4a7a:	0e 94 65 04 	call	0x8ca	; 0x8ca <DisplayValue16>
#if (LCD_LINES > 3)
  lcd_line3();
#else
  wait_for_key_ms(MIDDLE_WAIT_TIME);
    4a7e:	88 e9       	ldi	r24, 0x98	; 152
    4a80:	9a e3       	ldi	r25, 0x3A	; 58
    4a82:	0e 94 54 05 	call	0xaa8	; 0xaa8 <wait_for_key_ms>
 #ifdef WITH_ROTARY_SWITCH
  if (rotary.incre > FAST_ROTATION) return;	// fast rotation ends the function
  if (rotary.count < 0) goto show_page_1;
show_page_2:
 #endif
  lcd_clear();
    4a86:	0e 94 b2 01 	call	0x364	; 0x364 <lcd_clear>
#endif
  /* output line 3 */
  lcd_MEM_string(RIHI_str); // "RiHi="
    4a8a:	88 ec       	ldi	r24, 0xC8	; 200
    4a8c:	90 e0       	ldi	r25, 0x00	; 0
    4a8e:	0e 94 d1 01 	call	0x3a2	; 0x3a2 <lcd_fix_string>
  DisplayValue16(RRpinPL,-1,LCD_CHAR_OMEGA,3);
    4a92:	23 e0       	ldi	r18, 0x03	; 3
    4a94:	44 e0       	ldi	r20, 0x04	; 4
    4a96:	6f ef       	ldi	r22, 0xFF	; 255
    4a98:	80 91 31 01 	lds	r24, 0x0131
    4a9c:	90 91 32 01 	lds	r25, 0x0132
    4aa0:	0e 94 65 04 	call	0x8ca	; 0x8ca <DisplayValue16>
#if (LCD_LINES > 3)
  lcd_line4();
#else
  lcd_line2();
    4aa4:	0e 94 8a 01 	call	0x314	; 0x314 <lcd_line2>
#endif
  /* output line 4 */
  lcd_MEM_string(RILO_str); // "RiLo="
    4aa8:	81 ec       	ldi	r24, 0xC1	; 193
    4aaa:	90 e0       	ldi	r25, 0x00	; 0
    4aac:	0e 94 d1 01 	call	0x3a2	; 0x3a2 <lcd_fix_string>
  DisplayValue16(RRpinMI,-1,LCD_CHAR_OMEGA,3);
    4ab0:	23 e0       	ldi	r18, 0x03	; 3
    4ab2:	44 e0       	ldi	r20, 0x04	; 4
    4ab4:	6f ef       	ldi	r22, 0xFF	; 255
    4ab6:	80 91 38 01 	lds	r24, 0x0138
    4aba:	90 91 39 01 	lds	r25, 0x0139
    4abe:	0e 94 65 04 	call	0x8ca	; 0x8ca <DisplayValue16>

  wait_for_key_ms(MIDDLE_WAIT_TIME);
    4ac2:	88 e9       	ldi	r24, 0x98	; 152
    4ac4:	9a e3       	ldi	r25, 0x3A	; 58
    4ac6:	0e 94 54 05 	call	0xaa8	; 0xaa8 <wait_for_key_ms>
  if (rotary.count < -1) goto show_page_1;
  if (rotary.count < 0) goto show_page_2;
 #endif
show_page_3:
#endif
  lcd_clear();
    4aca:	0e 94 b2 01 	call	0x364	; 0x364 <lcd_clear>
  lcd_MEM_string(C0_str);                       //output "C0 "
    4ace:	8d eb       	ldi	r24, 0xBD	; 189
    4ad0:	90 e0       	ldi	r25, 0x00	; 0
    4ad2:	0e 94 d1 01 	call	0x3a2	; 0x3a2 <lcd_fix_string>
  u2lcd_space(eeprom_read_byte(&c_zero_tab[5]) -(COMP_SLEW1 / (CC0 + CABLE_CAP + COMP_SLEW2)));		//output cap0 1:3
    4ad6:	8d e3       	ldi	r24, 0x3D	; 61
    4ad8:	93 e0       	ldi	r25, 0x03	; 3
    4ada:	0e 94 4b 32 	call	0x6496	; 0x6496 <__eerd_byte_m328p>
    4ade:	90 e0       	ldi	r25, 0x00	; 0
    4ae0:	42 97       	sbiw	r24, 0x12	; 18
    4ae2:	0e 94 c0 02 	call	0x580	; 0x580 <u2lcd_space>
  u2lcd_space(eeprom_read_byte(&c_zero_tab[6]) -(COMP_SLEW1 / (CC0 + CABLE_CAP + COMP_SLEW2)));		//output cap0 2:3
    4ae6:	8e e3       	ldi	r24, 0x3E	; 62
    4ae8:	93 e0       	ldi	r25, 0x03	; 3
    4aea:	0e 94 4b 32 	call	0x6496	; 0x6496 <__eerd_byte_m328p>
    4aee:	90 e0       	ldi	r25, 0x00	; 0
    4af0:	42 97       	sbiw	r24, 0x12	; 18
    4af2:	0e 94 c0 02 	call	0x580	; 0x580 <u2lcd_space>
  DisplayValue16(eeprom_read_byte(&c_zero_tab[2]) -(COMP_SLEW1 / (CC0 + CABLE_CAP + COMP_SLEW2)) ,-12,'F',3);		//output cap0 1:2
    4af6:	8a e3       	ldi	r24, 0x3A	; 58
    4af8:	93 e0       	ldi	r25, 0x03	; 3
    4afa:	0e 94 4b 32 	call	0x6496	; 0x6496 <__eerd_byte_m328p>
    4afe:	90 e0       	ldi	r25, 0x00	; 0
    4b00:	23 e0       	ldi	r18, 0x03	; 3
    4b02:	46 e4       	ldi	r20, 0x46	; 70
    4b04:	64 ef       	ldi	r22, 0xF4	; 244
    4b06:	42 97       	sbiw	r24, 0x12	; 18
    4b08:	0e 94 65 04 	call	0x8ca	; 0x8ca <DisplayValue16>
  lcd_line2();
    4b0c:	0e 94 8a 01 	call	0x314	; 0x314 <lcd_line2>
  lcd_spaces(3);
    4b10:	83 e0       	ldi	r24, 0x03	; 3
    4b12:	0e 94 6a 01 	call	0x2d4	; 0x2d4 <lcd_spaces>
  u2lcd_space(eeprom_read_byte(&c_zero_tab[1]) -(COMP_SLEW1 / (CC0 + CABLE_CAP + COMP_SLEW2)));		//output cap0 3:1
    4b16:	89 e3       	ldi	r24, 0x39	; 57
    4b18:	93 e0       	ldi	r25, 0x03	; 3
    4b1a:	0e 94 4b 32 	call	0x6496	; 0x6496 <__eerd_byte_m328p>
    4b1e:	90 e0       	ldi	r25, 0x00	; 0
    4b20:	42 97       	sbiw	r24, 0x12	; 18
    4b22:	0e 94 c0 02 	call	0x580	; 0x580 <u2lcd_space>
  u2lcd_space(eeprom_read_byte(&c_zero_tab[4]) -(COMP_SLEW1 / (CC0 + CABLE_CAP + COMP_SLEW2)));		//output cap0 3:2
    4b26:	8c e3       	ldi	r24, 0x3C	; 60
    4b28:	93 e0       	ldi	r25, 0x03	; 3
    4b2a:	0e 94 4b 32 	call	0x6496	; 0x6496 <__eerd_byte_m328p>
    4b2e:	90 e0       	ldi	r25, 0x00	; 0
    4b30:	42 97       	sbiw	r24, 0x12	; 18
    4b32:	0e 94 c0 02 	call	0x580	; 0x580 <u2lcd_space>
  DisplayValue16(eeprom_read_byte(&c_zero_tab[0]) -(COMP_SLEW1 / (CC0 + CABLE_CAP + COMP_SLEW2)) ,-12,'F',3);		//output cap0 2:1
    4b36:	88 e3       	ldi	r24, 0x38	; 56
    4b38:	93 e0       	ldi	r25, 0x03	; 3
    4b3a:	0e 94 4b 32 	call	0x6496	; 0x6496 <__eerd_byte_m328p>
    4b3e:	90 e0       	ldi	r25, 0x00	; 0
    4b40:	23 e0       	ldi	r18, 0x03	; 3
    4b42:	46 e4       	ldi	r20, 0x46	; 70
    4b44:	64 ef       	ldi	r22, 0xF4	; 244
    4b46:	42 97       	sbiw	r24, 0x12	; 18
    4b48:	0e 94 65 04 	call	0x8ca	; 0x8ca <DisplayValue16>
#if (LCD_LINES > 3)
  lcd_line3();
#else
  wait_for_key_ms(MIDDLE_WAIT_TIME);
    4b4c:	88 e9       	ldi	r24, 0x98	; 152
    4b4e:	9a e3       	ldi	r25, 0x3A	; 58
    4b50:	0e 94 54 05 	call	0xaa8	; 0xaa8 <wait_for_key_ms>
  if (rotary.count < -2) goto show_page_1;
  if (rotary.count < -1) goto show_page_2;
  if (rotary.count < 0) goto show_page_3;
show_page_4:
 #endif
  lcd_clear();
    4b54:	0e 94 b2 01 	call	0x364	; 0x364 <lcd_clear>
#endif
  /* output line 7 */
  lcd_MEM2_string(REF_C_str);	// "REF_C="
    4b58:	8b e2       	ldi	r24, 0x2B	; 43
    4b5a:	90 e0       	ldi	r25, 0x00	; 0
    4b5c:	0e 94 d1 01 	call	0x3a2	; 0x3a2 <lcd_fix_string>
  i2lcd((int16_t)eeprom_read_word((uint16_t *)(&ref_offset)));
    4b60:	8f e3       	ldi	r24, 0x3F	; 63
    4b62:	93 e0       	ldi	r25, 0x03	; 3
    4b64:	0e 94 53 32 	call	0x64a6	; 0x64a6 <__eerd_word_m328p>
    4b68:	0e 94 ac 02 	call	0x558	; 0x558 <i2lcd>
#if (LCD_LINES > 3)
  lcd_line4();
#else
  lcd_line2();
    4b6c:	0e 94 8a 01 	call	0x314	; 0x314 <lcd_line2>
#endif
  /* output line 8 */
  lcd_MEM2_string(REF_R_str);  // "REF_R="
    4b70:	84 e2       	ldi	r24, 0x24	; 36
    4b72:	90 e0       	ldi	r25, 0x00	; 0
    4b74:	0e 94 d1 01 	call	0x3a2	; 0x3a2 <lcd_fix_string>
  i2lcd((int8_t)eeprom_read_byte((uint8_t *)(&RefDiff)));
    4b78:	81 e4       	ldi	r24, 0x41	; 65
    4b7a:	93 e0       	ldi	r25, 0x03	; 3
    4b7c:	0e 94 4b 32 	call	0x6496	; 0x6496 <__eerd_byte_m328p>
    4b80:	99 27       	eor	r25, r25
    4b82:	87 fd       	sbrc	r24, 7
    4b84:	90 95       	com	r25
    4b86:	0e 94 ac 02 	call	0x558	; 0x558 <i2lcd>
#ifdef SamplingADC
#ifdef WITH_ROTARY_SWITCH
show_page_5:
#endif
  /* modified output from sampling_cap_calibrate */
  lcd_set_cursor((LCD_LINES-1)*PAGES_PER_LINE,0);      // set for initial clear screen
    4b8a:	60 e0       	ldi	r22, 0x00	; 0
    4b8c:	81 e0       	ldi	r24, 0x01	; 1
    4b8e:	0e 94 a2 01 	call	0x344	; 0x344 <lcd_set_cursor>
  for (ii=0;ii<=2;ii++)
    4b92:	f1 2c       	mov	r15, r1
    4b94:	df 2c       	mov	r13, r15
    4b96:	dd 0c       	add	r13, r13
    4b98:	df 0c       	add	r13, r15
#include "Transistortester.h"
/*  ShowData shows the Software version number and */
/*  the calibration data at the 2-line or 4-line LCD */
#ifdef WITH_MENU
void ShowData(void) {
    4b9a:	e1 2c       	mov	r14, r1
    4b9c:	da 94       	dec	r13
#endif
  /* modified output from sampling_cap_calibrate */
  lcd_set_cursor((LCD_LINES-1)*PAGES_PER_LINE,0);      // set for initial clear screen
  for (ii=0;ii<=2;ii++)
    for (jj=0;jj<=2;jj++)
       if (ii != jj) {
    4b9e:	fe 14       	cp	r15, r14
    4ba0:	d9 f1       	breq	.+118    	; 0x4c18 <ShowData+0x1fa>
    4ba2:	cd 2d       	mov	r28, r13
    4ba4:	ce 0d       	add	r28, r14
          kk = (ii * 3) + jj - 1;
          cc = eeprom_read_word((void *)(c_zero_tab2_lo+kk));
    4ba6:	d0 e0       	ldi	r29, 0x00	; 0
    4ba8:	cc 0f       	add	r28, r28
    4baa:	dd 1f       	adc	r29, r29
    4bac:	ce 01       	movw	r24, r28
    4bae:	86 5d       	subi	r24, 0xD6	; 214
    4bb0:	9c 4f       	sbci	r25, 0xFC	; 252
    4bb2:	0e 94 53 32 	call	0x64a6	; 0x64a6 <__eerd_word_m328p>
    4bb6:	8c 01       	movw	r16, r24
          dd = eeprom_read_word((void *)(c_zero_tab2_hi+kk));
    4bb8:	ce 01       	movw	r24, r28
    4bba:	84 5e       	subi	r24, 0xE4	; 228
    4bbc:	9c 4f       	sbci	r25, 0xFC	; 252
    4bbe:	0e 94 53 32 	call	0x64a6	; 0x64a6 <__eerd_word_m328p>
    4bc2:	ec 01       	movw	r28, r24
          if (lcd_text_line > (LCD_LINES - 2)) {
    4bc4:	80 91 a1 01 	lds	r24, 0x01A1
    4bc8:	88 23       	and	r24, r24
    4bca:	39 f0       	breq	.+14     	; 0x4bda <ShowData+0x1bc>
             wait_for_key_ms(MIDDLE_WAIT_TIME);
    4bcc:	88 e9       	ldi	r24, 0x98	; 152
    4bce:	9a e3       	ldi	r25, 0x3A	; 58
    4bd0:	0e 94 54 05 	call	0xaa8	; 0xaa8 <wait_for_key_ms>
             if (rotary.count < -2) goto show_page_3;
             if (rotary.count < -1) goto show_page_4;
             if (rotary.count < 0) goto show_page_5;
  #endif
 #endif  /* WITH_ROTARY_SWITCH */
             lcd_clear();
    4bd4:	0e 94 b2 01 	call	0x364	; 0x364 <lcd_clear>
    4bd8:	03 c0       	rjmp	.+6      	; 0x4be0 <ShowData+0x1c2>
          } else {  
	     lcd_next_line(0);
    4bda:	80 e0       	ldi	r24, 0x00	; 0
    4bdc:	0e 94 54 02 	call	0x4a8	; 0x4a8 <lcd_next_line>
          }
          lcd_MEM_string(C0samp_str);	// "C0samp "
    4be0:	85 eb       	ldi	r24, 0xB5	; 181
    4be2:	90 e0       	ldi	r25, 0x00	; 0
    4be4:	0e 94 d1 01 	call	0x3a2	; 0x3a2 <lcd_fix_string>
	  lcd_testpin(ii);
    4be8:	8f 2d       	mov	r24, r15
    4bea:	0e 94 64 01 	call	0x2c8	; 0x2c8 <lcd_testpin>
	  lcd_data(':');
    4bee:	8a e3       	ldi	r24, 0x3A	; 58
    4bf0:	0e 94 59 01 	call	0x2b2	; 0x2b2 <lcd_data>
          lcd_testpin(jj);
    4bf4:	8e 2d       	mov	r24, r14
    4bf6:	0e 94 64 01 	call	0x2c8	; 0x2c8 <lcd_testpin>
	  lcd_next_line(0);
    4bfa:	80 e0       	ldi	r24, 0x00	; 0
    4bfc:	0e 94 54 02 	call	0x4a8	; 0x4a8 <lcd_next_line>
	  DisplayValue16(cc,-2,' ',3);
    4c00:	23 e0       	ldi	r18, 0x03	; 3
    4c02:	40 e2       	ldi	r20, 0x20	; 32
    4c04:	6e ef       	ldi	r22, 0xFE	; 254
    4c06:	c8 01       	movw	r24, r16
    4c08:	0e 94 65 04 	call	0x8ca	; 0x8ca <DisplayValue16>
	  DisplayValue16(dd,-12-2,'F',3);
    4c0c:	23 e0       	ldi	r18, 0x03	; 3
    4c0e:	46 e4       	ldi	r20, 0x46	; 70
    4c10:	62 ef       	ldi	r22, 0xF2	; 242
    4c12:	ce 01       	movw	r24, r28
    4c14:	0e 94 65 04 	call	0x8ca	; 0x8ca <DisplayValue16>
show_page_5:
#endif
  /* modified output from sampling_cap_calibrate */
  lcd_set_cursor((LCD_LINES-1)*PAGES_PER_LINE,0);      // set for initial clear screen
  for (ii=0;ii<=2;ii++)
    for (jj=0;jj<=2;jj++)
    4c18:	e3 94       	inc	r14
    4c1a:	83 e0       	ldi	r24, 0x03	; 3
    4c1c:	e8 12       	cpse	r14, r24
    4c1e:	bf cf       	rjmp	.-130    	; 0x4b9e <ShowData+0x180>
#ifdef WITH_ROTARY_SWITCH
show_page_5:
#endif
  /* modified output from sampling_cap_calibrate */
  lcd_set_cursor((LCD_LINES-1)*PAGES_PER_LINE,0);      // set for initial clear screen
  for (ii=0;ii<=2;ii++)
    4c20:	f3 94       	inc	r15
    4c22:	f8 12       	cpse	r15, r24
    4c24:	b7 cf       	rjmp	.-146    	; 0x4b94 <ShowData+0x176>
  if (rotary.count < 0) goto show_page_4;
  #endif
 #endif

#endif  /* SamplingADC */
  wait_for_key_ms(MIDDLE_WAIT_TIME);
    4c26:	88 e9       	ldi	r24, 0x98	; 152
    4c28:	9a e3       	ldi	r25, 0x3A	; 58
    4c2a:	0e 94 54 05 	call	0xaa8	; 0xaa8 <wait_for_key_ms>
//#if  defined(WITH_GRAPHICS) && !defined(SamplingADC)
#ifdef SHOW_ICONS
 ShowIcons();		// show all Icons
#endif
}
    4c2e:	cd b7       	in	r28, 0x3d	; 61
    4c30:	de b7       	in	r29, 0x3e	; 62
    4c32:	e7 e0       	ldi	r30, 0x07	; 7
    4c34:	0c 94 f7 31 	jmp	0x63ee	; 0x63ee <__epilogue_restores__+0x16>

00004c38 <CheckUJT>:
#include "Transistortester.h"
#ifdef WITH_UJT
void CheckUJT(void) {
    4c38:	a1 e8       	ldi	r26, 0x81	; 129
    4c3a:	b0 e0       	ldi	r27, 0x00	; 0
    4c3c:	e2 e2       	ldi	r30, 0x22	; 34
    4c3e:	f6 e2       	ldi	r31, 0x26	; 38
    4c40:	0c 94 d6 31 	jmp	0x63ac	; 0x63ac <__prologue_saves__+0xc>
 #ifdef SamplingADC
             uint8_t B1pin, B2pin, Epin;
             Epin = diodes.Anode[0];
    4c44:	10 91 89 01 	lds	r17, 0x0189
             B1pin = diodes.Cathode[0];
    4c48:	d0 90 8f 01 	lds	r13, 0x018F
             B2pin = diodes.Cathode[1];
    4c4c:	f0 90 90 01 	lds	r15, 0x0190
             // B2 to plus via 680 ohm
             // discharge: E to ground via 680 ohm
             // charge: E to plus via 470 k

             port0 = pinmaskRL(B2pin);
             ddr0 = port0 | pinmaskRL(Epin);
    4c50:	a1 2e       	mov	r10, r17
    4c52:	b1 2c       	mov	r11, r1
    4c54:	c5 01       	movw	r24, r10
    4c56:	80 57       	subi	r24, 0x70	; 112
    4c58:	9e 4f       	sbci	r25, 0xFE	; 254
    4c5a:	5c 01       	movw	r10, r24
             port0 |= pinmaskRH(Epin);
             port1 = port0;
             ddr1 = port1;
              ADMUX = Epin|(1<<REFS0);	// switch Multiplexer to emitter and use 5V reference voltage
    4c5c:	91 2f       	mov	r25, r17
    4c5e:	90 64       	ori	r25, 0x40	; 64
    4c60:	99 2e       	mov	r9, r25
             // B1 to ground via 0 ohm
             // B2 to plus via 680 ohm
             // discharge: E to ground via 680 ohm
             // charge: E to plus via 470 k

             port0 = pinmaskRL(B2pin);
    4c62:	ef 2d       	mov	r30, r15
    4c64:	f0 e0       	ldi	r31, 0x00	; 0
    4c66:	e0 57       	subi	r30, 0x70	; 112
    4c68:	fe 4f       	sbci	r31, 0xFE	; 254
    4c6a:	84 91       	lpm	r24, Z
             ddr0 = port0 | pinmaskRL(Epin);
    4c6c:	f5 01       	movw	r30, r10
    4c6e:	c4 90       	lpm	r12, Z
    4c70:	c8 2a       	or	r12, r24
             port0 |= pinmaskRH(Epin);
    4c72:	f5 01       	movw	r30, r10
    4c74:	24 91       	lpm	r18, Z
    4c76:	22 0f       	add	r18, r18
    4c78:	28 2b       	or	r18, r24
             port1 = port0;
             ddr1 = port1;
              ADMUX = Epin|(1<<REFS0);	// switch Multiplexer to emitter and use 5V reference voltage
    4c7a:	90 92 7c 00 	sts	0x007C, r9
              ADC_DDR = pinmaskADC(B1pin);
    4c7e:	ed 2d       	mov	r30, r13
    4c80:	f0 e0       	ldi	r31, 0x00	; 0
    4c82:	ed 56       	subi	r30, 0x6D	; 109
    4c84:	fe 4f       	sbci	r31, 0xFE	; 254
    4c86:	e4 91       	lpm	r30, Z
    4c88:	e7 b9       	out	0x07, r30	; 7
              ADC_PORT = TXD_VAL;
    4c8a:	18 b8       	out	0x08, r1	; 8
              R_PORT = 0;
    4c8c:	15 b8       	out	0x05, r1	; 5
              R_DDR = 0;			
    4c8e:	14 b8       	out	0x04, r1	; 4
              wait_aref_stabilize();
    4c90:	cf 57       	subi	r28, 0x7F	; 127
    4c92:	df 4f       	sbci	r29, 0xFF	; 255
    4c94:	28 83       	st	Y, r18
    4c96:	c1 58       	subi	r28, 0x81	; 129
    4c98:	d0 40       	sbci	r29, 0x00	; 0
    4c9a:	0e 94 9e 04 	call	0x93c	; 0x93c <wait100us>
              unsigned int uu[64];
              samplingADC((16<<smplADC_span), uu, 64, port1, ddr1, port0, ddr0);
    4c9e:	cf 57       	subi	r28, 0x7F	; 127
    4ca0:	df 4f       	sbci	r29, 0xFF	; 255
    4ca2:	28 81       	ld	r18, Y
    4ca4:	c1 58       	subi	r28, 0x81	; 129
    4ca6:	d0 40       	sbci	r29, 0x00	; 0
    4ca8:	e2 2e       	mov	r14, r18
    4caa:	02 2f       	mov	r16, r18
    4cac:	40 e4       	ldi	r20, 0x40	; 64
    4cae:	be 01       	movw	r22, r28
    4cb0:	6f 5f       	subi	r22, 0xFF	; 255
    4cb2:	7f 4f       	sbci	r23, 0xFF	; 255
    4cb4:	80 e0       	ldi	r24, 0x00	; 0
    4cb6:	90 e1       	ldi	r25, 0x10	; 16
    4cb8:	0e 94 34 00 	call	0x68	; 0x68 <samplingADC>
    4cbc:	de 01       	movw	r26, r28
    4cbe:	55 96       	adiw	r26, 0x15	; 21
//              myuart_putc('s'); myuart_putc(' '); uart_int(port1); uart_int(ddr1); uart_int(port0); uart_int(ddr0); uart_newline();
              uint8_t i;
              uint8_t max=0;
    4cc0:	30 e0       	ldi	r19, 0x00	; 0
              uint8_t maxm;
              for (i=10;i<64;i++) {
    4cc2:	2a e0       	ldi	r18, 0x0A	; 10
    4cc4:	8f 2d       	mov	r24, r15
    4cc6:	90 e0       	ldi	r25, 0x00	; 0
    4cc8:	ed 2d       	mov	r30, r13
    4cca:	f0 e0       	ldi	r31, 0x00	; 0
                 uint8_t v=uu[i]>>2;  // 8-bit arithmetic is enough for this
    4ccc:	4d 91       	ld	r20, X+
    4cce:	5d 91       	ld	r21, X+
    4cd0:	56 95       	lsr	r21
    4cd2:	47 95       	ror	r20
    4cd4:	56 95       	lsr	r21
    4cd6:	47 95       	ror	r20
    4cd8:	04 2f       	mov	r16, r20
                 if (v>max) max=v;
    4cda:	34 17       	cp	r19, r20
    4cdc:	28 f4       	brcc	.+10     	; 0x4ce8 <CheckUJT+0xb0>
              samplingADC((16<<smplADC_span), uu, 64, port1, ddr1, port0, ddr0);
//              myuart_putc('s'); myuart_putc(' '); uart_int(port1); uart_int(ddr1); uart_int(port0); uart_int(ddr0); uart_newline();
              uint8_t i;
              uint8_t max=0;
              uint8_t maxm;
              for (i=10;i<64;i++) {
    4cde:	2f 5f       	subi	r18, 0xFF	; 255
    4ce0:	20 34       	cpi	r18, 0x40	; 64
    4ce2:	19 f0       	breq	.+6      	; 0x4cea <CheckUJT+0xb2>
    4ce4:	34 2f       	mov	r19, r20
    4ce6:	f2 cf       	rjmp	.-28     	; 0x4ccc <CheckUJT+0x94>
    4ce8:	03 2f       	mov	r16, r19
                 if (v>max) max=v;
                 else break;
              }
              // found first maximum
              // now check whether after this, the voltage drops significantly, if so, we've detected oscillation
              maxm = max - (max>>3);
    4cea:	30 2f       	mov	r19, r16
    4cec:	36 95       	lsr	r19
    4cee:	36 95       	lsr	r19
    4cf0:	36 95       	lsr	r19
    4cf2:	40 2f       	mov	r20, r16
    4cf4:	43 1b       	sub	r20, r19
    4cf6:	34 2f       	mov	r19, r20
              for (;i<64;i++) {
    4cf8:	20 34       	cpi	r18, 0x40	; 64
    4cfa:	09 f4       	brne	.+2      	; 0x4cfe <CheckUJT+0xc6>
    4cfc:	52 c0       	rjmp	.+164    	; 0x4da2 <CheckUJT+0x16a>
                 uint8_t v=uu[i]>>2;  // 8-bit arithmetic is enough for this
    4cfe:	de 01       	movw	r26, r28
    4d00:	11 96       	adiw	r26, 0x01	; 1
    4d02:	a2 0f       	add	r26, r18
    4d04:	b1 1d       	adc	r27, r1
    4d06:	a2 0f       	add	r26, r18
    4d08:	b1 1d       	adc	r27, r1
    4d0a:	4d 91       	ld	r20, X+
    4d0c:	5c 91       	ld	r21, X
    4d0e:	56 95       	lsr	r21
    4d10:	47 95       	ror	r20
    4d12:	56 95       	lsr	r21
    4d14:	47 95       	ror	r20
                 if (v<maxm) {
    4d16:	43 17       	cp	r20, r19
    4d18:	08 f0       	brcs	.+2      	; 0x4d1c <CheckUJT+0xe4>
    4d1a:	41 c0       	rjmp	.+130    	; 0x4d9e <CheckUJT+0x166>
                    // significant voltage drop, oscillation found: must be an UJT
                    PartFound=PART_UJT;
    4d1c:	22 e0       	ldi	r18, 0x02	; 2
    4d1e:	20 93 1a 01 	sts	0x011A, r18
                    ntrans.e=B1pin;
    4d22:	d0 92 4d 01 	sts	0x014D, r13
                    ntrans.b=Epin;
    4d26:	10 93 4b 01 	sts	0x014B, r17
                    ntrans.c=B2pin;
    4d2a:	f0 92 4c 01 	sts	0x014C, r15
                    // calculate eta
                    ResistorChecked[ntrans.e - TP_MIN + ntrans.c - TP_MIN - 1] = 0;	// forget last resistance measurement
    4d2e:	e8 0f       	add	r30, r24
    4d30:	f9 1f       	adc	r31, r25
    4d32:	ee 5a       	subi	r30, 0xAE	; 174
    4d34:	fe 4f       	sbci	r31, 0xFE	; 254
    4d36:	10 82       	st	Z, r1
                    GetResistance(ntrans.c, ntrans.e);	// resistor value is in ResistorVal[resnum]
    4d38:	6d 2d       	mov	r22, r13
    4d3a:	8f 2d       	mov	r24, r15
    4d3c:	0e 94 5a 12 	call	0x24b4	; 0x24b4 <GetResistance>
                    uint32_t v;
                    uint32_t r=ResistorVal[ntrans.e - TP_MIN + ntrans.c - TP_MIN - 1];
    4d40:	80 91 4d 01 	lds	r24, 0x014D
    4d44:	e0 91 4c 01 	lds	r30, 0x014C
    4d48:	f0 e0       	ldi	r31, 0x00	; 0
    4d4a:	e8 0f       	add	r30, r24
    4d4c:	f1 1d       	adc	r31, r1
    4d4e:	ee 0f       	add	r30, r30
    4d50:	ff 1f       	adc	r31, r31
    4d52:	ee 0f       	add	r30, r30
    4d54:	ff 1f       	adc	r31, r31
    4d56:	e2 56       	subi	r30, 0x62	; 98
    4d58:	fe 4f       	sbci	r31, 0xFE	; 254
    4d5a:	c0 80       	ld	r12, Z
    4d5c:	d1 80       	ldd	r13, Z+1	; 0x01
    4d5e:	e2 80       	ldd	r14, Z+2	; 0x02
    4d60:	f3 80       	ldd	r15, Z+3	; 0x03
                    v=(r<<8)/(r+R_L_VAL);      // Vbb in units of supplyvoltage/256 ; perhaps should also take into account the about 20 ohm internal resistance?
                    max-=35;               // subtract about 0.7 volts (1 diode voltage drop) from the maximum emitter voltage seen; 35 is 0.7/5*256.
    4d62:	03 52       	subi	r16, 0x23	; 35
                    ntrans.gthvoltage=100ul*max/v;     // this is eta in percent, cf. http://www.allaboutcircuits.com/textbook/semiconductors/chpt-7/unijunction-transistor-ujt/
    4d64:	20 2f       	mov	r18, r16
    4d66:	30 e0       	ldi	r19, 0x00	; 0
    4d68:	a4 e6       	ldi	r26, 0x64	; 100
    4d6a:	b0 e0       	ldi	r27, 0x00	; 0
    4d6c:	0e 94 ab 31 	call	0x6356	; 0x6356 <__umulhisi3>
    4d70:	4b 01       	movw	r8, r22
    4d72:	5c 01       	movw	r10, r24
                    // calculate eta
                    ResistorChecked[ntrans.e - TP_MIN + ntrans.c - TP_MIN - 1] = 0;	// forget last resistance measurement
                    GetResistance(ntrans.c, ntrans.e);	// resistor value is in ResistorVal[resnum]
                    uint32_t v;
                    uint32_t r=ResistorVal[ntrans.e - TP_MIN + ntrans.c - TP_MIN - 1];
                    v=(r<<8)/(r+R_L_VAL);      // Vbb in units of supplyvoltage/256 ; perhaps should also take into account the about 20 ohm internal resistance?
    4d74:	9e 2d       	mov	r25, r14
    4d76:	8d 2d       	mov	r24, r13
    4d78:	7c 2d       	mov	r23, r12
    4d7a:	66 27       	eor	r22, r22
    4d7c:	a7 01       	movw	r20, r14
    4d7e:	96 01       	movw	r18, r12
    4d80:	20 57       	subi	r18, 0x70	; 112
    4d82:	35 4e       	sbci	r19, 0xE5	; 229
    4d84:	4f 4f       	sbci	r20, 0xFF	; 255
    4d86:	5f 4f       	sbci	r21, 0xFF	; 255
    4d88:	0e 94 6d 31 	call	0x62da	; 0x62da <__udivmodsi4>
                    max-=35;               // subtract about 0.7 volts (1 diode voltage drop) from the maximum emitter voltage seen; 35 is 0.7/5*256.
                    ntrans.gthvoltage=100ul*max/v;     // this is eta in percent, cf. http://www.allaboutcircuits.com/textbook/semiconductors/chpt-7/unijunction-transistor-ujt/
    4d8c:	c5 01       	movw	r24, r10
    4d8e:	b4 01       	movw	r22, r8
    4d90:	0e 94 6d 31 	call	0x62da	; 0x62da <__udivmodsi4>
    4d94:	30 93 4a 01 	sts	0x014A, r19
    4d98:	20 93 49 01 	sts	0x0149, r18
                    goto ujtdone;
    4d9c:	09 c0       	rjmp	.+18     	; 0x4db0 <CheckUJT+0x178>
                 else break;
              }
              // found first maximum
              // now check whether after this, the voltage drops significantly, if so, we've detected oscillation
              maxm = max - (max>>3);
              for (;i<64;i++) {
    4d9e:	2f 5f       	subi	r18, 0xFF	; 255
    4da0:	ab cf       	rjmp	.-170    	; 0x4cf8 <CheckUJT+0xc0>
                    ntrans.gthvoltage=100ul*max/v;     // this is eta in percent, cf. http://www.allaboutcircuits.com/textbook/semiconductors/chpt-7/unijunction-transistor-ujt/
                    goto ujtdone;
                 }
              } /* end for i */
              // didn't find oscillation yet
              if (B1pin == diodes.Cathode[0]) {
    4da2:	80 91 8f 01 	lds	r24, 0x018F
    4da6:	d8 12       	cpse	r13, r24
    4da8:	03 c0       	rjmp	.+6      	; 0x4db0 <CheckUJT+0x178>
    4daa:	df 2c       	mov	r13, r15
    4dac:	f8 2e       	mov	r15, r24
    4dae:	59 cf       	rjmp	.-334    	; 0x4c62 <CheckUJT+0x2a>
                GetResistance(ntrans.c, ntrans.e);	// resistor value is in ResistorVal[resnum]
                PartFound = PART_UJT;
             }
           
 #endif		/* defined SamplingADC */
}
    4db0:	cf 57       	subi	r28, 0x7F	; 127
    4db2:	df 4f       	sbci	r29, 0xFF	; 255
    4db4:	ec e0       	ldi	r30, 0x0C	; 12
    4db6:	0c 94 f2 31 	jmp	0x63e4	; 0x63e4 <__epilogue_restores__+0xc>

00004dba <EE_check_init>:
#include <avr/eeprom.h>
#include <stdlib.h>
#include "Transistortester.h"

// check some EEprom values for correct values 
void EE_check_init(void) {
    4dba:	08 95       	ret

00004dbc <mylog>:



// calculate -32768*ln(1-y/32768)
static unsigned int mylog(unsigned int y)
{
    4dbc:	8f 92       	push	r8
    4dbe:	9f 92       	push	r9
    4dc0:	af 92       	push	r10
    4dc2:	bf 92       	push	r11
    4dc4:	cf 92       	push	r12
    4dc6:	df 92       	push	r13
    4dc8:	ef 92       	push	r14
    4dca:	ff 92       	push	r15
    4dcc:	ac 01       	movw	r20, r24
*/

   // newer version: uses one more term for better accuracy (0.2% instead of 1% in the test mentioned above)
   // only 30 bytes longer than the 1% version
   unsigned short int bb;
   b=y;
    4dce:	6c 01       	movw	r12, r24
    4dd0:	e1 2c       	mov	r14, r1
    4dd2:	f1 2c       	mov	r15, r1
   a = (b<<16);
    4dd4:	56 01       	movw	r10, r12
    4dd6:	99 24       	eor	r9, r9
    4dd8:	88 24       	eor	r8, r8
   a += b* (y+(y>>4)+(y>>8));
    4dda:	e5 2f       	mov	r30, r21
    4ddc:	ff 27       	eor	r31, r31
   b = b*y;
    4dde:	9a 01       	movw	r18, r20
    4de0:	da 01       	movw	r26, r20
    4de2:	0e 94 ab 31 	call	0x6356	; 0x6356 <__umulhisi3>
   bb = b>>16;
   bb>>=2;                                     // not integrated in previous line because then compiler does an 18-position shift of a 32-bit variable :-(
    4de6:	9c 01       	movw	r18, r24
    4de8:	36 95       	lsr	r19
    4dea:	27 95       	ror	r18
    4dec:	36 95       	lsr	r19
    4dee:	27 95       	ror	r18
   unsigned short bb2=bb>>2;                   // without this intermediate variable, compiler does some of >> multiple times
    4df0:	c9 01       	movw	r24, r18
    4df2:	96 95       	lsr	r25
    4df4:	87 95       	ror	r24
    4df6:	96 95       	lsr	r25
    4df8:	87 95       	ror	r24
   a += y * (unsigned long int) (bb - bb2);
   bb = (bb2>>1)*(y>>8);            
    4dfa:	bc 01       	movw	r22, r24
    4dfc:	76 95       	lsr	r23
    4dfe:	67 95       	ror	r22
    4e00:	6e 9f       	mul	r22, r30
    4e02:	d0 01       	movw	r26, r0
    4e04:	6f 9f       	mul	r22, r31
    4e06:	b0 0d       	add	r27, r0
    4e08:	7e 9f       	mul	r23, r30
    4e0a:	b0 0d       	add	r27, r0
    4e0c:	11 24       	eor	r1, r1
   a += b* (y+(y>>4)+(y>>8));
   b = b*y;
   bb = b>>16;
   bb>>=2;                                     // not integrated in previous line because then compiler does an 18-position shift of a 32-bit variable :-(
   unsigned short bb2=bb>>2;                   // without this intermediate variable, compiler does some of >> multiple times
   a += y * (unsigned long int) (bb - bb2);
    4e0e:	b9 01       	movw	r22, r18
    4e10:	68 1b       	sub	r22, r24
    4e12:	79 0b       	sbc	r23, r25
    4e14:	cb 01       	movw	r24, r22
   // newer version: uses one more term for better accuracy (0.2% instead of 1% in the test mentioned above)
   // only 30 bytes longer than the 1% version
   unsigned short int bb;
   b=y;
   a = (b<<16);
   a += b* (y+(y>>4)+(y>>8));
    4e16:	9a 01       	movw	r18, r20
    4e18:	64 e0       	ldi	r22, 0x04	; 4
    4e1a:	36 95       	lsr	r19
    4e1c:	27 95       	ror	r18
    4e1e:	6a 95       	dec	r22
    4e20:	e1 f7       	brne	.-8      	; 0x4e1a <mylog+0x5e>
    4e22:	2e 0f       	add	r18, r30
    4e24:	3f 1f       	adc	r19, r31
    4e26:	24 0f       	add	r18, r20
    4e28:	35 1f       	adc	r19, r21
    4e2a:	40 e0       	ldi	r20, 0x00	; 0
    4e2c:	50 e0       	ldi	r21, 0x00	; 0
    4e2e:	28 0f       	add	r18, r24
    4e30:	39 1f       	adc	r19, r25
    4e32:	41 1d       	adc	r20, r1
    4e34:	51 1d       	adc	r21, r1
   bb = b>>16;
   bb>>=2;                                     // not integrated in previous line because then compiler does an 18-position shift of a 32-bit variable :-(
   unsigned short bb2=bb>>2;                   // without this intermediate variable, compiler does some of >> multiple times
   a += y * (unsigned long int) (bb - bb2);
   bb = (bb2>>1)*(y>>8);            
   a += y * (unsigned long int)(bb - (bb>>3));
    4e36:	cd 01       	movw	r24, r26
    4e38:	73 e0       	ldi	r23, 0x03	; 3
    4e3a:	96 95       	lsr	r25
    4e3c:	87 95       	ror	r24
    4e3e:	7a 95       	dec	r23
    4e40:	e1 f7       	brne	.-8      	; 0x4e3a <mylog+0x7e>
    4e42:	a8 1b       	sub	r26, r24
    4e44:	b9 0b       	sbc	r27, r25
    4e46:	2a 0f       	add	r18, r26
    4e48:	3b 1f       	adc	r19, r27
    4e4a:	41 1d       	adc	r20, r1
    4e4c:	51 1d       	adc	r21, r1
    4e4e:	c7 01       	movw	r24, r14
    4e50:	b6 01       	movw	r22, r12
    4e52:	0e 94 2b 31 	call	0x6256	; 0x6256 <__mulsi3>
    4e56:	68 0d       	add	r22, r8
    4e58:	79 1d       	adc	r23, r9
    4e5a:	8a 1d       	adc	r24, r10
    4e5c:	9b 1d       	adc	r25, r11
   return a>>16;
} /* end mylog */
    4e5e:	ff 90       	pop	r15
    4e60:	ef 90       	pop	r14
    4e62:	df 90       	pop	r13
    4e64:	cf 90       	pop	r12
    4e66:	bf 90       	pop	r11
    4e68:	af 90       	pop	r10
    4e6a:	9f 90       	pop	r9
    4e6c:	8f 90       	pop	r8
    4e6e:	08 95       	ret

00004e70 <sampling_cap>:


int32_t sampling_cap(byte HighPin, byte LowPin, byte opts)
{
    4e70:	a6 e0       	ldi	r26, 0x06	; 6
    4e72:	b2 e0       	ldi	r27, 0x02	; 2
    4e74:	ee e3       	ldi	r30, 0x3E	; 62
    4e76:	f7 e2       	ldi	r31, 0x27	; 39
    4e78:	0c 94 d0 31 	jmp	0x63a0	; 0x63a0 <__prologue_saves__>
    4e7c:	78 2e       	mov	r7, r24
    4e7e:	ce 5f       	subi	r28, 0xFE	; 254
    4e80:	dd 4f       	sbci	r29, 0xFD	; 253
    4e82:	68 83       	st	Y, r22
    4e84:	c2 50       	subi	r28, 0x02	; 2
    4e86:	d2 40       	sbci	r29, 0x02	; 2
    4e88:	64 2e       	mov	r6, r20
  EntladePins();
    4e8a:	0e 94 76 14 	call	0x28ec	; 0x28ec <EntladePins>

  uint8_t HiPinR_L, HiPinR_H;
  uint8_t LoADC;
  uint16_t samp_opt;
  HiPinR_L = pgm_read_byte(&PinRLRHADCtab[HighPin]);	//R_L mask for HighPin R_L load
    4e8e:	e7 2d       	mov	r30, r7
    4e90:	f0 e0       	ldi	r31, 0x00	; 0
    4e92:	e0 57       	subi	r30, 0x70	; 112
    4e94:	fe 4f       	sbci	r31, 0xFE	; 254
    4e96:	14 91       	lpm	r17, Z
#if (((PIN_RL1 + 1) != PIN_RH1) || ((PIN_RL2 + 1) != PIN_RH2) || ((PIN_RL3 + 1) != PIN_RH3))
  HiPinR_H = pgm_read_byte((&PinRLRHADCtab[3])+HighPin);	//R_H mask for HighPin R_H load
  LoADC = pgm_read_byte((&PinRLRHADCtab[6])+LowPin) | TXD_MSK;
#else
  HiPinR_H = HiPinR_L + HiPinR_L;	//double for HighPin R_H load
    4e98:	b1 2e       	mov	r11, r17
    4e9a:	bb 0c       	add	r11, r11
  LoADC = pgm_read_byte((&PinRLRHADCtab[3])+LowPin) | TXD_MSK;
    4e9c:	ce 5f       	subi	r28, 0xFE	; 254
    4e9e:	dd 4f       	sbci	r29, 0xFD	; 253
    4ea0:	28 81       	ld	r18, Y
    4ea2:	c2 50       	subi	r28, 0x02	; 2
    4ea4:	d2 40       	sbci	r29, 0x02	; 2
    4ea6:	e2 2f       	mov	r30, r18
    4ea8:	f0 e0       	ldi	r31, 0x00	; 0
    4eaa:	ed 56       	subi	r30, 0x6D	; 109
    4eac:	fe 4f       	sbci	r31, 0xFE	; 254
    4eae:	e4 91       	lpm	r30, Z
#endif

   byte i=0;

   unsigned int uu[256];
   ADC_DDR = LoADC;			// switch Low-Pin to output (GND)
    4eb0:	e7 b9       	out	0x07, r30	; 7
   R_PORT = 0;			//R_L to 0 (GND) 
    4eb2:	15 b8       	out	0x05, r1	; 5
   R_DDR = HiPinR_L;			
    4eb4:	14 b9       	out	0x04, r17	; 4
//   wait200us();			// let the last ADC cycle finish

   ADMUX = HighPin|(1<<REFS0);	// switch Multiplexer to Highpin and use 5V reference voltage
    4eb6:	87 2d       	mov	r24, r7
    4eb8:	80 64       	ori	r24, 0x40	; 64
    4eba:	80 93 7c 00 	sts	0x007C, r24
#ifdef NO_AREF_CAP
    wait100us(); /* time for voltage stabilization */
    4ebe:	0e 94 9e 04 	call	0x93c	; 0x93c <wait100us>
#ifdef SamplingADC_CNT
   samp_opt = 1;		// sample distance 1
#else
   samp_opt = 0;
#endif
   byte d=( (opts&1) ? HiPinR_L : HiPinR_H );
    4ec2:	36 2d       	mov	r19, r6
    4ec4:	31 70       	andi	r19, 0x01	; 1
    4ec6:	cf 5f       	subi	r28, 0xFF	; 255
    4ec8:	dd 4f       	sbci	r29, 0xFD	; 253
    4eca:	38 83       	st	Y, r19
    4ecc:	c1 50       	subi	r28, 0x01	; 1
    4ece:	d2 40       	sbci	r29, 0x02	; 2
    4ed0:	60 fe       	sbrs	r6, 0
    4ed2:	02 c0       	rjmp	.+4      	; 0x4ed8 <sampling_cap+0x68>
    4ed4:	f1 2e       	mov	r15, r17
    4ed6:	01 c0       	rjmp	.+2      	; 0x4eda <sampling_cap+0x6a>
    4ed8:	fb 2c       	mov	r15, r11
    4eda:	b0 e2       	ldi	r27, 0x20	; 32
    4edc:	db 2e       	mov	r13, r27
   #define sumx (unsigned long)((N2*(N2+1l)/2)-(N4*(N4-1l)/2)+(N3*(N3-1l)/2)-(N1*(N1-1l)/2))
   unsigned long sumxx=(unsigned long)((N2*(N2+1l)*(2*N2+1l)/6)-(N4*(N4-1l)*(2*N4-1l)/6)+(N3*(N3-1l)*(2*N3-1l)/6)-(N1*(N1-1l)*(2*N1-1l)/6));
#ifdef SamplingADC_CNT
   samp_opt = 1;		// sample distance 1
#else
   samp_opt = 0;
    4ede:	80 e0       	ldi	r24, 0x00	; 0
    4ee0:	90 e0       	ldi	r25, 0x00	; 0
#endif
   byte d=( (opts&1) ? HiPinR_L : HiPinR_H );

   for (i=0;i<32;i++) {
      samplingADC(samp_opt, uu, N2+1, d, HiPinR_H, d, HiPinR_L);
    4ee2:	c1 2e       	mov	r12, r17
    4ee4:	ef 2c       	mov	r14, r15
    4ee6:	0b 2d       	mov	r16, r11
    4ee8:	2f 2d       	mov	r18, r15
    4eea:	44 e7       	ldi	r20, 0x74	; 116
    4eec:	be 01       	movw	r22, r28
    4eee:	6f 5f       	subi	r22, 0xFF	; 255
    4ef0:	7f 4f       	sbci	r23, 0xFF	; 255
    4ef2:	0e 94 34 00 	call	0x68	; 0x68 <samplingADC>
    4ef6:	da 94       	dec	r13
#else
   samp_opt = 0;
#endif
   byte d=( (opts&1) ? HiPinR_L : HiPinR_H );

   for (i=0;i<32;i++) {
    4ef8:	19 f0       	breq	.+6      	; 0x4f00 <sampling_cap+0x90>
      samplingADC(samp_opt, uu, N2+1, d, HiPinR_H, d, HiPinR_L);
      samp_opt |= samplingADC_cumul;
    4efa:	80 e4       	ldi	r24, 0x40	; 64
    4efc:	90 e0       	ldi	r25, 0x00	; 0
    4efe:	f1 cf       	rjmp	.-30     	; 0x4ee2 <sampling_cap+0x72>
   }
//   uart_newline(); for (i=0;i<N2;i++) { myuart_putc('a'); myuart_putc(' '); uart_int(uu[i]); uart_newline(); wdt_reset(); }

   R_DDR = 0;			
    4f00:	14 b8       	out	0x04, r1	; 4
    4f02:	8e 01       	movw	r16, r28
    4f04:	09 5b       	subi	r16, 0xB9	; 185
    4f06:	1f 4f       	sbci	r17, 0xFF	; 255
    4f08:	a3 e2       	ldi	r26, 0x23	; 35
    4f0a:	ca 2e       	mov	r12, r26
    4f0c:	d1 2c       	mov	r13, r1
    4f0e:	e1 2c       	mov	r14, r1
    4f10:	f1 2c       	mov	r15, r1
#endif

   // we use the least-squares algorithm to find the slope
   // cf. e.g. https://en.wikipedia.org/wiki/Ordinary_least_squares
   unsigned long sumy, sumxy;
   sumy=sumxy=0;
    4f12:	81 2c       	mov	r8, r1
    4f14:	91 2c       	mov	r9, r1
    4f16:	54 01       	movw	r10, r8
    4f18:	21 2c       	mov	r2, r1
    4f1a:	31 2c       	mov	r3, r1
    4f1c:	21 01       	movw	r4, r2
   for (i=N1;i<=N2;i++) {	/* 70-230 @16MHz, 35-115 @8MHz */
      if (i==N3) i=N4;		// skip from N3 to (N4-1), 182-192 @16MHz, 200-200 @8MHz
      unsigned int z;
      if (opts&1) z=mylog(32768-uu[i]);
    4f1e:	cf 5f       	subi	r28, 0xFF	; 255
    4f20:	dd 4f       	sbci	r29, 0xFD	; 253
    4f22:	68 81       	ld	r22, Y
    4f24:	c1 50       	subi	r28, 0x01	; 1
    4f26:	d2 40       	sbci	r29, 0x02	; 2
    4f28:	f8 01       	movw	r30, r16
    4f2a:	80 81       	ld	r24, Z
    4f2c:	91 81       	ldd	r25, Z+1	; 0x01
    4f2e:	66 23       	and	r22, r22
    4f30:	29 f0       	breq	.+10     	; 0x4f3c <sampling_cap+0xcc>
    4f32:	20 e0       	ldi	r18, 0x00	; 0
    4f34:	30 e8       	ldi	r19, 0x80	; 128
    4f36:	28 1b       	sub	r18, r24
    4f38:	39 0b       	sbc	r19, r25
    4f3a:	c9 01       	movw	r24, r18
      else z=mylog(uu[i]);
    4f3c:	3f df       	rcall	.-386    	; 0x4dbc <mylog>
    4f3e:	9c 01       	movw	r18, r24
      sumy+=z;
    4f40:	40 e0       	ldi	r20, 0x00	; 0
    4f42:	50 e0       	ldi	r21, 0x00	; 0
    4f44:	22 0e       	add	r2, r18
    4f46:	33 1e       	adc	r3, r19
    4f48:	44 1e       	adc	r4, r20
    4f4a:	55 1e       	adc	r5, r21
    4f4c:	c7 01       	movw	r24, r14
      sumxy+=(unsigned long int)i*z;
    4f4e:	b6 01       	movw	r22, r12
    4f50:	0e 94 2b 31 	call	0x6256	; 0x6256 <__mulsi3>
    4f54:	86 0e       	add	r8, r22
    4f56:	97 1e       	adc	r9, r23
    4f58:	a8 1e       	adc	r10, r24
    4f5a:	b9 1e       	adc	r11, r25
    4f5c:	ff ef       	ldi	r31, 0xFF	; 255
    4f5e:	cf 1a       	sub	r12, r31
    4f60:	df 0a       	sbc	r13, r31
    4f62:	ef 0a       	sbc	r14, r31
    4f64:	ff 0a       	sbc	r15, r31
    4f66:	0e 5f       	subi	r16, 0xFE	; 254
    4f68:	1f 4f       	sbci	r17, 0xFF	; 255
    4f6a:	24 e7       	ldi	r18, 0x74	; 116

   // we use the least-squares algorithm to find the slope
   // cf. e.g. https://en.wikipedia.org/wiki/Ordinary_least_squares
   unsigned long sumy, sumxy;
   sumy=sumxy=0;
   for (i=N1;i<=N2;i++) {	/* 70-230 @16MHz, 35-115 @8MHz */
    4f6c:	c2 16       	cp	r12, r18
    4f6e:	d1 04       	cpc	r13, r1
    4f70:	e1 04       	cpc	r14, r1
    4f72:	f1 04       	cpc	r15, r1
    4f74:	a1 f6       	brne	.-88     	; 0x4f1e <sampling_cap+0xae>
    4f76:	c2 01       	movw	r24, r4
   // sumy ~ 2^22
   // sumxy ~ 2^30
   // at 8 MHz, we sum roughly half as many sample samples, and x will get only half as big, so sumxy will be about 1/4, and sumxx 1/8
   sumxx -= sumx*sumx/N;
   // now sumxx ~ <2^19 , as it turns out; note that sumxx is a constant, depending only on N and N1..4; it was a variable previously, hence this code
   sumxy -= sumx*(sumy/N);
    4f78:	b1 01       	movw	r22, r2
    4f7a:	21 e5       	ldi	r18, 0x51	; 81
    4f7c:	30 e0       	ldi	r19, 0x00	; 0
    4f7e:	40 e0       	ldi	r20, 0x00	; 0
    4f80:	50 e0       	ldi	r21, 0x00	; 0
    4f82:	0e 94 6d 31 	call	0x62da	; 0x62da <__udivmodsi4>
    4f86:	ab eb       	ldi	r26, 0xBB	; 187
    4f88:	b7 e1       	ldi	r27, 0x17	; 23
    4f8a:	0e 94 c0 31 	call	0x6380	; 0x6380 <__muluhisi3>
    4f8e:	a5 01       	movw	r20, r10
    4f90:	94 01       	movw	r18, r8
    4f92:	26 1b       	sub	r18, r22
    4f94:	37 0b       	sbc	r19, r23
    4f96:	48 0b       	sbc	r20, r24
    4f98:	59 0b       	sbc	r21, r25
    4f9a:	f4 e0       	ldi	r31, 0x04	; 4
#if MHZ_CPU>=16
   sumxx>>=3;   // bitshift such that sumxx fits in 16 bits
   sumxy>>=6;   // we shift sumxy by 3 bits more than sumxx because a few lines down we have an extra /8 to make things fit 
#elif MHZ_CPU==8
   sumxx>>=0;
   sumxy>>=4;
    4f9c:	56 95       	lsr	r21
    4f9e:	47 95       	ror	r20
    4fa0:	37 95       	ror	r19
    4fa2:	27 95       	ror	r18
    4fa4:	fa 95       	dec	r31
    4fa6:	d1 f7       	brne	.-12     	; 0x4f9c <sampling_cap+0x12c>
    4fa8:	60 ee       	ldi	r22, 0xE0	; 224
   unsigned long int c3;
#if MHZ_CPU == 20
   // at 20 MHz, and aiming for units of 10^{-14} Farad, the constant becomes 32768e14/20e6/R = 16384e7/R
   c3 = sumxx*((uint32_t)(((16384000000./R_H_VAL)+4)/8))/sumxy;  // units of 0.01 pF
#else
   c3 = sumxx*((uint32_t)(((20480000000./R_H_VAL)+4)/8))/sumxy;  // units of 0.01 pF
    4faa:	7d ec       	ldi	r23, 0xCD	; 205
    4fac:	81 ec       	ldi	r24, 0xC1	; 193
    4fae:	9f e8       	ldi	r25, 0x8F	; 143
    4fb0:	0e 94 6d 31 	call	0x62da	; 0x62da <__udivmodsi4>
    4fb4:	61 fc       	sbrc	r6, 1
#endif
   // the /8 is to make the (...) factor (about 435745) fit in 16 bits
   // note that the /8 is compensated for by the different bitshifts of sumxx and sumxy, and the +4 rounds this number properly
   if (!(opts&2)) 
    4fb6:	47 c0       	rjmp	.+142    	; 0x5046 <sampling_cap+0x1d6>
    4fb8:	ce 5f       	subi	r28, 0xFE	; 254
   {
      byte k = ((HighPin - TP_MIN)*3) + LowPin - TP_MIN -1;
    4fba:	dd 4f       	sbci	r29, 0xFD	; 253
    4fbc:	88 81       	ld	r24, Y
    4fbe:	c2 50       	subi	r28, 0x02	; 2
    4fc0:	d2 40       	sbci	r29, 0x02	; 2
    4fc2:	81 50       	subi	r24, 0x01	; 1
    4fc4:	97 2d       	mov	r25, r7
    4fc6:	99 0f       	add	r25, r25
    4fc8:	97 0d       	add	r25, r7
    4fca:	89 0f       	add	r24, r25
    4fcc:	90 e0       	ldi	r25, 0x00	; 0
    4fce:	cf 5f       	subi	r28, 0xFF	; 255
      if (opts&1) c3-= eeprom_read_word(c_zero_tab2_hi+k);
    4fd0:	dd 4f       	sbci	r29, 0xFD	; 253
    4fd2:	68 81       	ld	r22, Y
    4fd4:	c1 50       	subi	r28, 0x01	; 1
    4fd6:	d2 40       	sbci	r29, 0x02	; 2
    4fd8:	88 0f       	add	r24, r24
    4fda:	99 1f       	adc	r25, r25
    4fdc:	66 23       	and	r22, r22
    4fde:	19 f0       	breq	.+6      	; 0x4fe6 <sampling_cap+0x176>
    4fe0:	84 5e       	subi	r24, 0xE4	; 228
    4fe2:	9c 4f       	sbci	r25, 0xFC	; 252
    4fe4:	02 c0       	rjmp	.+4      	; 0x4fea <sampling_cap+0x17a>
    4fe6:	86 5d       	subi	r24, 0xD6	; 214
      else c3-= eeprom_read_word(c_zero_tab2_lo+k);
    4fe8:	9c 4f       	sbci	r25, 0xFC	; 252
    4fea:	cd 5f       	subi	r28, 0xFD	; 253
    4fec:	dd 4f       	sbci	r29, 0xFD	; 253
    4fee:	28 83       	st	Y, r18
    4ff0:	c3 50       	subi	r28, 0x03	; 3
    4ff2:	d2 40       	sbci	r29, 0x02	; 2
    4ff4:	cc 5f       	subi	r28, 0xFC	; 252
    4ff6:	dd 4f       	sbci	r29, 0xFD	; 253
    4ff8:	38 83       	st	Y, r19
    4ffa:	c4 50       	subi	r28, 0x04	; 4
    4ffc:	d2 40       	sbci	r29, 0x02	; 2
    4ffe:	cb 5f       	subi	r28, 0xFB	; 251
    5000:	dd 4f       	sbci	r29, 0xFD	; 253
    5002:	48 83       	st	Y, r20
    5004:	c5 50       	subi	r28, 0x05	; 5
    5006:	d2 40       	sbci	r29, 0x02	; 2
    5008:	ca 5f       	subi	r28, 0xFA	; 250
    500a:	dd 4f       	sbci	r29, 0xFD	; 253
    500c:	58 83       	st	Y, r21
    500e:	c6 50       	subi	r28, 0x06	; 6
    5010:	d2 40       	sbci	r29, 0x02	; 2
    5012:	0e 94 53 32 	call	0x64a6	; 0x64a6 <__eerd_word_m328p>
    5016:	cd 5f       	subi	r28, 0xFD	; 253
    5018:	dd 4f       	sbci	r29, 0xFD	; 253
    501a:	28 81       	ld	r18, Y
    501c:	c3 50       	subi	r28, 0x03	; 3
    501e:	d2 40       	sbci	r29, 0x02	; 2
    5020:	cc 5f       	subi	r28, 0xFC	; 252
    5022:	dd 4f       	sbci	r29, 0xFD	; 253
    5024:	38 81       	ld	r19, Y
    5026:	c4 50       	subi	r28, 0x04	; 4
    5028:	d2 40       	sbci	r29, 0x02	; 2
    502a:	cb 5f       	subi	r28, 0xFB	; 251
    502c:	dd 4f       	sbci	r29, 0xFD	; 253
    502e:	48 81       	ld	r20, Y
    5030:	c5 50       	subi	r28, 0x05	; 5
    5032:	d2 40       	sbci	r29, 0x02	; 2
    5034:	ca 5f       	subi	r28, 0xFA	; 250
    5036:	dd 4f       	sbci	r29, 0xFD	; 253
    5038:	58 81       	ld	r21, Y
    503a:	c6 50       	subi	r28, 0x06	; 6
    503c:	d2 40       	sbci	r29, 0x02	; 2
    503e:	28 1b       	sub	r18, r24
    5040:	39 0b       	sbc	r19, r25
    5042:	41 09       	sbc	r20, r1
    5044:	51 09       	sbc	r21, r1
    5046:	ca 01       	movw	r24, r20
   }
   return c3;
}  /* end sampling_cap */
    5048:	b9 01       	movw	r22, r18
    504a:	ca 5f       	subi	r28, 0xFA	; 250
    504c:	dd 4f       	sbci	r29, 0xFD	; 253
    504e:	e2 e1       	ldi	r30, 0x12	; 18
    5050:	0c 94 ec 31 	jmp	0x63d8	; 0x63d8 <__epilogue_restores__>

00005054 <sampling_cap_calibrate>:
    5054:	a0 e0       	ldi	r26, 0x00	; 0




void sampling_cap_calibrate()
{
    5056:	b0 e0       	ldi	r27, 0x00	; 0
    5058:	e0 e3       	ldi	r30, 0x30	; 48
    505a:	f8 e2       	ldi	r31, 0x28	; 40
    505c:	0c 94 d5 31 	jmp	0x63aa	; 0x63aa <__prologue_saves__+0xa>
    5060:	10 e0       	ldi	r17, 0x00	; 0
   // measure capacitance of all combinations without anything connected
   byte i,j;
   for (i=0;i<=2;i++)
    5062:	71 2e       	mov	r7, r17
    5064:	77 0c       	add	r7, r7
    5066:	71 0e       	add	r7, r17
    5068:	00 e0       	ldi	r16, 0x00	; 0




void sampling_cap_calibrate()
{
    506a:	7a 94       	dec	r7
    506c:	10 17       	cp	r17, r16
   // measure capacitance of all combinations without anything connected
   byte i,j;
   for (i=0;i<=2;i++)
      for (j=0;j<=2;j++)
         if (i!=j) {
    506e:	09 f4       	brne	.+2      	; 0x5072 <sampling_cap_calibrate+0x1e>
    5070:	40 c0       	rjmp	.+128    	; 0x50f2 <sampling_cap_calibrate+0x9e>
    5072:	42 e0       	ldi	r20, 0x02	; 2
            unsigned int c;
            c=sampling_cap(i,j,2);
    5074:	60 2f       	mov	r22, r16
    5076:	81 2f       	mov	r24, r17
    5078:	fb de       	rcall	.-522    	; 0x4e70 <sampling_cap>
    507a:	4b 01       	movw	r8, r22
    507c:	5c 01       	movw	r10, r24
    507e:	43 e0       	ldi	r20, 0x03	; 3
    5080:	60 2f       	mov	r22, r16
#ifdef PULLUP_DISABLE
            unsigned int d;
            d=sampling_cap(i,j,3);
    5082:	81 2f       	mov	r24, r17
    5084:	f5 de       	rcall	.-534    	; 0x4e70 <sampling_cap>
    5086:	6b 01       	movw	r12, r22
    5088:	7c 01       	movw	r14, r24
    508a:	0e 94 b2 01 	call	0x364	; 0x364 <lcd_clear>
    508e:	85 eb       	ldi	r24, 0xB5	; 181
#endif
            lcd_clear();
    5090:	90 e0       	ldi	r25, 0x00	; 0
    5092:	0e 94 d1 01 	call	0x3a2	; 0x3a2 <lcd_fix_string>
            lcd_MEM2_string(C0samp_str);			//output "C0samp "
    5096:	0e 94 67 01 	call	0x2ce	; 0x2ce <lcd_space>
    509a:	81 2f       	mov	r24, r17
            lcd_space();				// lcd_data(' ');
    509c:	0e 94 64 01 	call	0x2c8	; 0x2c8 <lcd_testpin>
            lcd_testpin(i);
    50a0:	8a e3       	ldi	r24, 0x3A	; 58
    50a2:	0e 94 59 01 	call	0x2b2	; 0x2b2 <lcd_data>
            lcd_data(':');
    50a6:	80 2f       	mov	r24, r16
    50a8:	0e 94 64 01 	call	0x2c8	; 0x2c8 <lcd_testpin>
            lcd_testpin(j);
    50ac:	0e 94 67 01 	call	0x2ce	; 0x2ce <lcd_space>
    50b0:	0e 94 8a 01 	call	0x314	; 0x314 <lcd_line2>
            lcd_space();				//lcd_data(' ');
    50b4:	24 e0       	ldi	r18, 0x04	; 4
            lcd_line2();
    50b6:	40 e2       	ldi	r20, 0x20	; 32
    50b8:	6e ef       	ldi	r22, 0xFE	; 254
            byte k=3*i+j-1;
#ifdef PULLUP_DISABLE
            DisplayValue16(c,-2,' ',4);
    50ba:	c4 01       	movw	r24, r8
    50bc:	0e 94 65 04 	call	0x8ca	; 0x8ca <DisplayValue16>
    50c0:	24 e0       	ldi	r18, 0x04	; 4
    50c2:	46 e4       	ldi	r20, 0x46	; 70
    50c4:	62 ef       	ldi	r22, 0xF2	; 242
            DisplayValue16(d,-14,'F',4);
    50c6:	c6 01       	movw	r24, r12
    50c8:	0e 94 65 04 	call	0x8ca	; 0x8ca <DisplayValue16>
    50cc:	c7 2d       	mov	r28, r7
    50ce:	c0 0f       	add	r28, r16
    50d0:	d0 e0       	ldi	r29, 0x00	; 0
            eeprom_write_word((void*)(c_zero_tab2_lo+k),c); /* C0 from 0 to 1 */
    50d2:	cc 0f       	add	r28, r28
    50d4:	dd 1f       	adc	r29, r29
    50d6:	b4 01       	movw	r22, r8
    50d8:	ce 01       	movw	r24, r28
    50da:	86 5d       	subi	r24, 0xD6	; 214
    50dc:	9c 4f       	sbci	r25, 0xFC	; 252
    50de:	0e 94 66 32 	call	0x64cc	; 0x64cc <__eewr_word_m328p>
    50e2:	b6 01       	movw	r22, r12
    50e4:	ce 01       	movw	r24, r28
    50e6:	84 5e       	subi	r24, 0xE4	; 228
            eeprom_write_word((void*)(c_zero_tab2_hi+k),d); /* C0 from 1 to 0 */
    50e8:	9c 4f       	sbci	r25, 0xFC	; 252
    50ea:	0e 94 66 32 	call	0x64cc	; 0x64cc <__eewr_word_m328p>
    50ee:	0e 94 4e 02 	call	0x49c	; 0x49c <lcd_clear_line>
    50f2:	0f 5f       	subi	r16, 0xFF	; 255
#else
            DisplayValue16(c,-14,' ',4);
            eeprom_write_word((void*)(c_zero_tab2_lo+k),c); /* C0 from 0 to 1 */
            eeprom_write_word((void*)(c_zero_tab2_hi+k),c); /* set 1to0 same as 0to1 */
#endif
            lcd_clear_line();
    50f4:	03 30       	cpi	r16, 0x03	; 3
    50f6:	09 f0       	breq	.+2      	; 0x50fa <sampling_cap_calibrate+0xa6>
void sampling_cap_calibrate()
{
   // measure capacitance of all combinations without anything connected
   byte i,j;
   for (i=0;i<=2;i++)
      for (j=0;j<=2;j++)
    50f8:	b9 cf       	rjmp	.-142    	; 0x506c <sampling_cap_calibrate+0x18>
    50fa:	1f 5f       	subi	r17, 0xFF	; 255
    50fc:	13 30       	cpi	r17, 0x03	; 3
    50fe:	09 f0       	breq	.+2      	; 0x5102 <sampling_cap_calibrate+0xae>

void sampling_cap_calibrate()
{
   // measure capacitance of all combinations without anything connected
   byte i,j;
   for (i=0;i<=2;i++)
    5100:	b0 cf       	rjmp	.-160    	; 0x5062 <sampling_cap_calibrate+0xe>
    5102:	0e 94 83 01 	call	0x306	; 0x306 <lcd_line1>
    5106:	85 eb       	ldi	r24, 0xB5	; 181
            eeprom_write_word((void*)(c_zero_tab2_hi+k),c); /* set 1to0 same as 0to1 */
#endif
            lcd_clear_line();
            lcd_refresh();
         }
   lcd_line1();
    5108:	91 e0       	ldi	r25, 0x01	; 1
    510a:	0e 94 d1 01 	call	0x3a2	; 0x3a2 <lcd_fix_string>
   lcd_MEM_string(OK_str);	// "OK"
    510e:	0e 94 4e 02 	call	0x49c	; 0x49c <lcd_clear_line>
    5112:	88 e2       	ldi	r24, 0x28	; 40
   lcd_clear_line();
    5114:	0e 94 aa 04 	call	0x954	; 0x954 <sleep_5ms>
   lcd_refresh();
   wait_about200ms();
    5118:	cd b7       	in	r28, 0x3d	; 61
    511a:	de b7       	in	r29, 0x3e	; 62
    511c:	ed e0       	ldi	r30, 0x0D	; 13
} /* end sampling_cap_calibrate */
    511e:	0c 94 f1 31 	jmp	0x63e2	; 0x63e2 <__epilogue_restores__+0xa>

00005122 <peaksearch>:

static unsigned int peaksearch(unsigned int uu[], unsigned int *qptr)
// searches uu[256] for peaks, using averaging over dist samples 
// writes measured Q *10 into *qptr if non-NULL
// returns measured period, with 6 bits of fraction, or 256*64 if no resonance found
{  
    5122:	a3 e1       	ldi	r26, 0x13	; 19
    5124:	b0 e0       	ldi	r27, 0x00	; 0
    5126:	e7 e9       	ldi	r30, 0x97	; 151
    5128:	f8 e2       	ldi	r31, 0x28	; 40
    512a:	0c 94 d0 31 	jmp	0x63a0	; 0x63a0 <__prologue_saves__>
    512e:	9b 83       	std	Y+3, r25	; 0x03
    5130:	8a 83       	std	Y+2, r24	; 0x02
    5132:	79 87       	std	Y+9, r23	; 0x09
    5134:	68 87       	std	Y+8, r22	; 0x08
   unsigned int mean_per;		// average period; the (ipk>>2) provides for rounding
   unsigned int last_per;		// length of last period with 6 bits of fraction
   unsigned int sum_ab;
   unsigned int rr;
   
   dist = 1;		// begin peak search with dist=1
    5136:	cc 24       	eor	r12, r12
    5138:	c3 94       	inc	r12
 #define MinPK 1
   sawzero = 0;		// flag: did we allready encounter a growing signal?
#endif
   prevdelta=1;
   mean_per = 256<<6;	// set period illegal
   for (ii=0;ii<255-dist;ii++) 
    513a:	ac 2c       	mov	r10, r12
    513c:	b1 2c       	mov	r11, r1

#if PeakSearchMethod == 1
         if (ipk != 0)
#endif
         {
            if (sum_ab < (3*dist)) break;  // stop if peak not significantly high
    513e:	63 e0       	ldi	r22, 0x03	; 3
    5140:	c6 9e       	mul	r12, r22
    5142:	a0 01       	movw	r20, r0
    5144:	11 24       	eor	r1, r1
    5146:	5d 87       	std	Y+13, r21	; 0x0d
    5148:	4c 87       	std	Y+12, r20	; 0x0c
#if PeakSearchMethod == 1
            if (ipk==1)
#else
            if (ii < (dist*4)) goto illegal_peak;
    514a:	f5 01       	movw	r30, r10
    514c:	ee 0f       	add	r30, r30
    514e:	ff 1f       	adc	r31, r31
    5150:	ee 0f       	add	r30, r30
    5152:	ff 1f       	adc	r31, r31
    5154:	ff 87       	std	Y+15, r31	; 0x0f
    5156:	ee 87       	std	Y+14, r30	; 0x0e
#else
 #define MinPK 1
   sawzero = 0;		// flag: did we allready encounter a growing signal?
#endif
   prevdelta=1;
   mean_per = 256<<6;	// set period illegal
    5158:	61 2c       	mov	r6, r1
    515a:	20 e4       	ldi	r18, 0x40	; 64
    515c:	72 2e       	mov	r7, r18
#if PeakSearchMethod == 1
 #define MinPK 2
   sawzero=1;                // flag: did we already encounter a zero?
#else
 #define MinPK 1
   sawzero = 0;		// flag: did we allready encounter a growing signal?
    515e:	1a 8a       	std	Y+18, r1	; 0x12
   ipk=0;    // peak counter
   firstpeak_sum=0;      // height of first peak
   prevpeak_sum=0;       // height of previous peak
   sumpeak=0;        // sum of peaks
   firstpeak_x=0;     // time of first peak, with 6 bits of fraction
   prevpeak_x=0;      // time of previous peak, with 6 bits of fraction
    5160:	41 2c       	mov	r4, r1
    5162:	51 2c       	mov	r5, r1
   bb = 0;
   ipk=0;    // peak counter
   firstpeak_sum=0;      // height of first peak
   prevpeak_sum=0;       // height of previous peak
   sumpeak=0;        // sum of peaks
   firstpeak_x=0;     // time of first peak, with 6 bits of fraction
    5164:	1f 82       	std	Y+7, r1	; 0x07
    5166:	1e 82       	std	Y+6, r1	; 0x06
   aa = 0;
   bb = 0;
   ipk=0;    // peak counter
   firstpeak_sum=0;      // height of first peak
   prevpeak_sum=0;       // height of previous peak
   sumpeak=0;        // sum of peaks
    5168:	81 2c       	mov	r8, r1
    516a:	91 2c       	mov	r9, r1
repeat:
   aa = 0;
   bb = 0;
   ipk=0;    // peak counter
   firstpeak_sum=0;      // height of first peak
   prevpeak_sum=0;       // height of previous peak
    516c:	21 2c       	mov	r2, r1
    516e:	31 2c       	mov	r3, r1

repeat:
   aa = 0;
   bb = 0;
   ipk=0;    // peak counter
   firstpeak_sum=0;      // height of first peak
    5170:	1d 82       	std	Y+5, r1	; 0x05
    5172:	1c 82       	std	Y+4, r1	; 0x04
   dist = 1;		// begin peak search with dist=1

repeat:
   aa = 0;
   bb = 0;
   ipk=0;    // peak counter
    5174:	d1 2c       	mov	r13, r1
 #define MinPK 1
   sawzero = 0;		// flag: did we allready encounter a growing signal?
#endif
   prevdelta=1;
   mean_per = 256<<6;	// set period illegal
   for (ii=0;ii<255-dist;ii++) 
    5176:	19 82       	std	Y+1, r1	; 0x01
   
   dist = 1;		// begin peak search with dist=1

repeat:
   aa = 0;
   bb = 0;
    5178:	e0 e0       	ldi	r30, 0x00	; 0
    517a:	f0 e0       	ldi	r31, 0x00	; 0
   unsigned int rr;
   
   dist = 1;		// begin peak search with dist=1

repeat:
   aa = 0;
    517c:	20 e0       	ldi	r18, 0x00	; 0
    517e:	30 e0       	ldi	r19, 0x00	; 0
   sawzero=1;                // flag: did we already encounter a zero?
#else
 #define MinPK 1
   sawzero = 0;		// flag: did we allready encounter a growing signal?
#endif
   prevdelta=1;
    5180:	41 e0       	ldi	r20, 0x01	; 1
    5182:	50 e0       	ldi	r21, 0x00	; 0
   mean_per = 256<<6;	// set period illegal
   for (ii=0;ii<255-dist;ii++) 
    5184:	6f ef       	ldi	r22, 0xFF	; 255
    5186:	70 e0       	ldi	r23, 0x00	; 0
    5188:	6a 19       	sub	r22, r10
    518a:	7b 09       	sbc	r23, r11
    518c:	79 8b       	std	Y+17, r23	; 0x11
    518e:	68 8b       	std	Y+16, r22	; 0x10
    5190:	69 81       	ldd	r22, Y+1	; 0x01
    5192:	06 2f       	mov	r16, r22
    5194:	10 e0       	ldi	r17, 0x00	; 0
    5196:	88 89       	ldd	r24, Y+16	; 0x10
    5198:	99 89       	ldd	r25, Y+17	; 0x11
    519a:	08 17       	cp	r16, r24
    519c:	19 07       	cpc	r17, r25
    519e:	0c f0       	brlt	.+2      	; 0x51a2 <peaksearch+0x80>
    51a0:	b6 c0       	rjmp	.+364    	; 0x530e <peaksearch+0x1ec>
   {
      bb += uu[ii+dist];
    51a2:	b8 01       	movw	r22, r16
    51a4:	6a 0d       	add	r22, r10
    51a6:	7b 1d       	adc	r23, r11
    51a8:	66 0f       	add	r22, r22
    51aa:	77 1f       	adc	r23, r23
    51ac:	8a 81       	ldd	r24, Y+2	; 0x02
    51ae:	9b 81       	ldd	r25, Y+3	; 0x03
    51b0:	68 0f       	add	r22, r24
    51b2:	79 1f       	adc	r23, r25
    51b4:	db 01       	movw	r26, r22
    51b6:	8d 91       	ld	r24, X+
    51b8:	9c 91       	ld	r25, X
    51ba:	e8 0f       	add	r30, r24
    51bc:	f9 1f       	adc	r31, r25
      aa += uu[ii];
    51be:	b8 01       	movw	r22, r16
    51c0:	66 0f       	add	r22, r22
    51c2:	77 1f       	adc	r23, r23
    51c4:	8a 81       	ldd	r24, Y+2	; 0x02
    51c6:	9b 81       	ldd	r25, Y+3	; 0x03
    51c8:	68 0f       	add	r22, r24
    51ca:	79 1f       	adc	r23, r25
    51cc:	db 01       	movw	r26, r22
    51ce:	8d 91       	ld	r24, X+
    51d0:	9c 91       	ld	r25, X
    51d2:	28 0f       	add	r18, r24
    51d4:	39 1f       	adc	r19, r25
      if (ii < dist) continue;
    51d6:	b9 81       	ldd	r27, Y+1	; 0x01
    51d8:	bc 15       	cp	r27, r12
    51da:	08 f4       	brcc	.+2      	; 0x51de <peaksearch+0xbc>
    51dc:	8b c0       	rjmp	.+278    	; 0x52f4 <peaksearch+0x1d2>
      aa -= uu[ii-dist];
    51de:	78 01       	movw	r14, r16
    51e0:	ea 18       	sub	r14, r10
    51e2:	fb 08       	sbc	r15, r11
    51e4:	ee 0c       	add	r14, r14
    51e6:	ff 1c       	adc	r15, r15
    51e8:	6a 81       	ldd	r22, Y+2	; 0x02
    51ea:	7b 81       	ldd	r23, Y+3	; 0x03
    51ec:	e6 0e       	add	r14, r22
    51ee:	f7 1e       	adc	r15, r23
    51f0:	d7 01       	movw	r26, r14
    51f2:	6d 91       	ld	r22, X+
    51f4:	7c 91       	ld	r23, X
    51f6:	26 1b       	sub	r18, r22
    51f8:	37 0b       	sbc	r19, r23
      bb -= uu[ii];
    51fa:	e8 1b       	sub	r30, r24
    51fc:	f9 0b       	sbc	r31, r25
#ifdef Special_dist1
      if (dist > 1) {
#endif
        sum_ab = aa + bb;
    51fe:	7f 01       	movw	r14, r30
    5200:	e2 0e       	add	r14, r18
    5202:	f3 1e       	adc	r15, r19
        delta = aa - bb;
    5204:	c9 01       	movw	r24, r18
    5206:	8e 1b       	sub	r24, r30
    5208:	9f 0b       	sbc	r25, r31
    520a:	8a 87       	std	Y+10, r24	; 0x0a
    520c:	9b 87       	std	Y+11, r25	; 0x0b
      // the detection of zero is replaced by  detection of rising  (kubi)
#if PeakSearchMethod == 1
        if (((int)(sum_ab/32)+delta) < 0)
#else
        if (((int)(sum_ab/4)+delta) < 0)
    520e:	b7 01       	movw	r22, r14
    5210:	76 95       	lsr	r23
    5212:	67 95       	ror	r22
    5214:	76 95       	lsr	r23
    5216:	67 95       	ror	r22
    5218:	68 0f       	add	r22, r24
    521a:	79 1f       	adc	r23, r25
    521c:	77 fd       	sbrc	r23, 7
    521e:	9f c0       	rjmp	.+318    	; 0x535e <peaksearch+0x23c>
        delta =  uu[ii-dist] - bb;
        sawzero = (aa > uu[ii-dist]);
      }
#endif

      if ((bb < aa) && (sawzero == 1)) {
    5220:	e2 17       	cp	r30, r18
    5222:	f3 07       	cpc	r31, r19
    5224:	08 f0       	brcs	.+2      	; 0x5228 <peaksearch+0x106>
    5226:	6d c0       	rjmp	.+218    	; 0x5302 <peaksearch+0x1e0>
    5228:	ba 89       	ldd	r27, Y+18	; 0x12
    522a:	b1 30       	cpi	r27, 0x01	; 1
    522c:	09 f0       	breq	.+2      	; 0x5230 <peaksearch+0x10e>
    522e:	69 c0       	rjmp	.+210    	; 0x5302 <peaksearch+0x1e0>
         // found (local) maximum
         xx = (ii<<6);
    5230:	b8 01       	movw	r22, r16
    5232:	a6 e0       	ldi	r26, 0x06	; 6
    5234:	66 0f       	add	r22, r22
    5236:	77 1f       	adc	r23, r23
    5238:	aa 95       	dec	r26
    523a:	e1 f7       	brne	.-8      	; 0x5234 <peaksearch+0x112>
    523c:	7b 8b       	std	Y+19, r23	; 0x13
    523e:	6a 8b       	std	Y+18, r22	; 0x12
       // (delta - prevdelta) is same as ((2*uu[ii]) - uu[ii-dist] - uu[ii+dist])
       // For a correct size of delta the uu[ii-dist] and uu[ii+dist] are low against 2*uu[ii].
       // By dividing with 2*uu[ii] alone, the interpolation can be used with dist=1.
         uint16_t kdiv;
//         kdiv = 2 * uu[ii];
         kdiv = delta - prevdelta;
    5240:	bc 01       	movw	r22, r24
    5242:	64 1b       	sub	r22, r20
    5244:	75 0b       	sbc	r23, r21
#if PeakSearchMethod == 1
         if (kdiv >= delta) xx -= (((long)delta * 64)+ 32) / kdiv;
#else
         if (kdiv >= delta) xx -= ((delta * 64)+ 32) / kdiv;
    5246:	68 17       	cp	r22, r24
    5248:	79 07       	cpc	r23, r25
    524a:	70 f0       	brcs	.+28     	; 0x5268 <peaksearch+0x146>
    524c:	b6 e0       	ldi	r27, 0x06	; 6
    524e:	88 0f       	add	r24, r24
    5250:	99 1f       	adc	r25, r25
    5252:	ba 95       	dec	r27
    5254:	e1 f7       	brne	.-8      	; 0x524e <peaksearch+0x12c>
    5256:	80 96       	adiw	r24, 0x20	; 32
    5258:	0e 94 46 31 	call	0x628c	; 0x628c <__udivmodhi4>
    525c:	4a 89       	ldd	r20, Y+18	; 0x12
    525e:	5b 89       	ldd	r21, Y+19	; 0x13
    5260:	46 1b       	sub	r20, r22
    5262:	57 0b       	sbc	r21, r23
    5264:	5b 8b       	std	Y+19, r21	; 0x13
    5266:	4a 8b       	std	Y+18, r20	; 0x12

#if PeakSearchMethod == 1
         if (ipk != 0)
#endif
         {
            if (sum_ab < (3*dist)) break;  // stop if peak not significantly high
    5268:	4c 85       	ldd	r20, Y+12	; 0x0c
    526a:	5d 85       	ldd	r21, Y+13	; 0x0d
    526c:	e4 16       	cp	r14, r20
    526e:	f5 06       	cpc	r15, r21
    5270:	08 f4       	brcc	.+2      	; 0x5274 <peaksearch+0x152>
    5272:	4d c0       	rjmp	.+154    	; 0x530e <peaksearch+0x1ec>
#if PeakSearchMethod == 1
            if (ipk==1)
#else
            if (ii < (dist*4)) goto illegal_peak;
    5274:	4e 85       	ldd	r20, Y+14	; 0x0e
    5276:	5f 85       	ldd	r21, Y+15	; 0x0f
    5278:	04 17       	cp	r16, r20
    527a:	15 07       	cpc	r17, r21
    527c:	bc f1       	brlt	.+110    	; 0x52ec <peaksearch+0x1ca>
            if (ipk==0)
#endif
            {
               firstpeak_sum = sum_ab;		// amplitude sum of first peak
               firstpeak_x = xx;		// position of first peak
    527e:	4a 89       	ldd	r20, Y+18	; 0x12
    5280:	5b 89       	ldd	r21, Y+19	; 0x13
            if (sum_ab < (3*dist)) break;  // stop if peak not significantly high
#if PeakSearchMethod == 1
            if (ipk==1)
#else
            if (ii < (dist*4)) goto illegal_peak;
            if (ipk==0)
    5282:	dd 20       	and	r13, r13
    5284:	a9 f0       	breq	.+42     	; 0x52b0 <peaksearch+0x18e>
#endif
            {
               firstpeak_sum = sum_ab;		// amplitude sum of first peak
               firstpeak_x = xx;		// position of first peak
            } else {  // ipk > 1
               last_per = xx - prevpeak_x;	// length of last period
    5286:	44 19       	sub	r20, r4
    5288:	55 09       	sbc	r21, r5
               if ((ipk > (MinPK+1)) && (last_per > (mean_per + mean_per/2 + 32))) break;  // gap between peaks
    528a:	62 e0       	ldi	r22, 0x02	; 2
    528c:	6d 15       	cp	r22, r13
    528e:	50 f4       	brcc	.+20     	; 0x52a4 <peaksearch+0x182>
    5290:	c3 01       	movw	r24, r6
    5292:	80 96       	adiw	r24, 0x20	; 32
    5294:	b3 01       	movw	r22, r6
    5296:	76 95       	lsr	r23
    5298:	67 95       	ror	r22
    529a:	86 0f       	add	r24, r22
    529c:	97 1f       	adc	r25, r23
    529e:	84 17       	cp	r24, r20
    52a0:	95 07       	cpc	r25, r21
    52a2:	a8 f1       	brcs	.+106    	; 0x530e <peaksearch+0x1ec>
            // sanity check: distance between peaks is expected to be 4*dist samples
               unsigned char smp_per;
               smp_per = last_per>>8;	// period with 4 sample units
               if (smp_per > dist) {		// dist is lower than 1/4 period without rounding
    52a4:	c5 16       	cp	r12, r21
    52a6:	40 f4       	brcc	.+16     	; 0x52b8 <peaksearch+0x196>
                  dist = smp_per+1;		// set dist to the found period / 4, rounded up
    52a8:	cc 24       	eor	r12, r12
    52aa:	c3 94       	inc	r12
    52ac:	c5 0e       	add	r12, r21
                  goto repeat;
    52ae:	45 cf       	rjmp	.-374    	; 0x513a <peaksearch+0x18>
            if (ii < (dist*4)) goto illegal_peak;
            if (ipk==0)
#endif
            {
               firstpeak_sum = sum_ab;		// amplitude sum of first peak
               firstpeak_x = xx;		// position of first peak
    52b0:	5f 83       	std	Y+7, r21	; 0x07
    52b2:	4e 83       	std	Y+6, r20	; 0x06
    52b4:	fd 82       	std	Y+5, r15	; 0x05
    52b6:	ec 82       	std	Y+4, r14	; 0x04
               if (smp_per > dist) {		// dist is lower than 1/4 period without rounding
                  dist = smp_per+1;		// set dist to the found period / 4, rounded up
                  goto repeat;
               }
            }  /* ipk > 1 */
            sumpeak += sum_ab;		// build sum of amplitude
    52b8:	8e 0c       	add	r8, r14
    52ba:	9f 1c       	adc	r9, r15
            }
#endif
         }  /* ipk != 0 */
         prevpeak_sum = sum_ab;		// save amplitude of last peak
         prevpeak_x = xx;		// save position of last peak
         ipk++;			// one more peak found
    52bc:	d3 94       	inc	r13
         if (ipk > MinPK) {
    52be:	51 e0       	ldi	r21, 0x01	; 1
    52c0:	5d 15       	cp	r21, r13
    52c2:	d8 f4       	brcc	.+54     	; 0x52fa <peaksearch+0x1d8>
            mean_per = (prevpeak_x - firstpeak_x + ((ipk-MinPK)>>1)) / (ipk-MinPK);  // average period with rounding
    52c4:	6d 2d       	mov	r22, r13
    52c6:	70 e0       	ldi	r23, 0x00	; 0
    52c8:	61 50       	subi	r22, 0x01	; 1
    52ca:	71 09       	sbc	r23, r1
    52cc:	cb 01       	movw	r24, r22
    52ce:	95 95       	asr	r25
    52d0:	87 95       	ror	r24
    52d2:	4a 89       	ldd	r20, Y+18	; 0x12
    52d4:	5b 89       	ldd	r21, Y+19	; 0x13
    52d6:	84 0f       	add	r24, r20
    52d8:	95 1f       	adc	r25, r21
    52da:	4e 81       	ldd	r20, Y+6	; 0x06
    52dc:	5f 81       	ldd	r21, Y+7	; 0x07
    52de:	84 1b       	sub	r24, r20
    52e0:	95 0b       	sbc	r25, r21
    52e2:	d4 d7       	rcall	.+4008   	; 0x628c <__udivmodhi4>
    52e4:	3b 01       	movw	r6, r22
    52e6:	4a 88       	ldd	r4, Y+18	; 0x12
               wait_about500ms();
            }
#endif
         }  /* ipk != 0 */
         prevpeak_sum = sum_ab;		// save amplitude of last peak
         prevpeak_x = xx;		// save position of last peak
    52e8:	5b 88       	ldd	r5, Y+19	; 0x13
    52ea:	17 01       	movw	r2, r14
         ipk++;			// one more peak found
         if (ipk > MinPK) {
            mean_per = (prevpeak_x - firstpeak_x + ((ipk-MinPK)>>1)) / (ipk-MinPK);  // average period with rounding
    52ec:	54 e1       	ldi	r21, 0x14	; 20
         }
#if PeakSearchMethod != 1
illegal_peak:
#endif
         sawzero=0;
         if (ipk > Maxpk) break;	// count of requested peaks is found
    52ee:	5d 15       	cp	r21, r13
    52f0:	38 f4       	brcc	.+14     	; 0x5300 <peaksearch+0x1de>
    52f2:	0d c0       	rjmp	.+26     	; 0x530e <peaksearch+0x1ec>
    52f4:	4a 87       	std	Y+10, r20	; 0x0a
    52f6:	5b 87       	std	Y+11, r21	; 0x0b
    52f8:	04 c0       	rjmp	.+8      	; 0x5302 <peaksearch+0x1e0>
    52fa:	4a 88       	ldd	r4, Y+18	; 0x12
               wait_about500ms();
            }
#endif
         }  /* ipk != 0 */
         prevpeak_sum = sum_ab;		// save amplitude of last peak
         prevpeak_x = xx;		// save position of last peak
    52fc:	5b 88       	ldd	r5, Y+19	; 0x13
    52fe:	17 01       	movw	r2, r14
    5300:	1a 8a       	std	Y+18, r1	; 0x12
            mean_per = (prevpeak_x - firstpeak_x + ((ipk-MinPK)>>1)) / (ipk-MinPK);  // average period with rounding
         }
#if PeakSearchMethod != 1
illegal_peak:
#endif
         sawzero=0;
    5302:	49 81       	ldd	r20, Y+1	; 0x01
 #define MinPK 1
   sawzero = 0;		// flag: did we allready encounter a growing signal?
#endif
   prevdelta=1;
   mean_per = 256<<6;	// set period illegal
   for (ii=0;ii<255-dist;ii++) 
    5304:	4f 5f       	subi	r20, 0xFF	; 255
    5306:	49 83       	std	Y+1, r20	; 0x01
    5308:	4a 85       	ldd	r20, Y+10	; 0x0a
    530a:	5b 85       	ldd	r21, Y+11	; 0x0b
    530c:	41 cf       	rjmp	.-382    	; 0x5190 <peaksearch+0x6e>
    530e:	a8 85       	ldd	r26, Y+8	; 0x08
      prevdelta = delta;
   } /* end for ii */

   /* total data are analysed, ipk is now the count of peaks + 1 */
//   if (firstzero>(per>>6)) return 0;     // sanity check: first zero should be within first period
   if (qptr) {
    5310:	b9 85       	ldd	r27, Y+9	; 0x09
    5312:	ab 2b       	or	r26, r27
    5314:	59 f1       	breq	.+86     	; 0x536c <peaksearch+0x24a>
    5316:	b1 e0       	ldi	r27, 0x01	; 1
      // calculate r = ratio of amplitude between two consecutive peaks (*1000 for scaling)
      // but we use all peaks seen in this calculation for better accuracy
      // r is weighted average of peak2/peak1, peak3/peak2 and so on, weighed by respectively peak1, peak2 and so on
      // this can be calculated as r = (peak2+peak3+...+peak_m)/(peak1+peak2+peak_{m-1})
      rr = 0;
      if (ipk > MinPK) {
    5318:	bd 15       	cp	r27, r13
    531a:	d0 f4       	brcc	.+52     	; 0x5350 <peaksearch+0x22e>
    531c:	94 01       	movw	r18, r8
         unsigned int sumdiff = sumpeak - prevpeak_sum;
         rr = ((unsigned long)(sumpeak-firstpeak_sum)*1000)/sumdiff;
    531e:	ec 81       	ldd	r30, Y+4	; 0x04
    5320:	fd 81       	ldd	r31, Y+5	; 0x05
    5322:	2e 1b       	sub	r18, r30
    5324:	3f 0b       	sbc	r19, r31
    5326:	a8 ee       	ldi	r26, 0xE8	; 232
    5328:	b3 e0       	ldi	r27, 0x03	; 3
    532a:	0e 94 ab 31 	call	0x6356	; 0x6356 <__umulhisi3>
    532e:	94 01       	movw	r18, r8
      // but we use all peaks seen in this calculation for better accuracy
      // r is weighted average of peak2/peak1, peak3/peak2 and so on, weighed by respectively peak1, peak2 and so on
      // this can be calculated as r = (peak2+peak3+...+peak_m)/(peak1+peak2+peak_{m-1})
      rr = 0;
      if (ipk > MinPK) {
         unsigned int sumdiff = sumpeak - prevpeak_sum;
    5330:	22 19       	sub	r18, r2
    5332:	33 09       	sbc	r19, r3
    5334:	40 e0       	ldi	r20, 0x00	; 0
         rr = ((unsigned long)(sumpeak-firstpeak_sum)*1000)/sumdiff;
    5336:	50 e0       	ldi	r21, 0x00	; 0
    5338:	d0 d7       	rcall	.+4000   	; 0x62da <__udivmodsi4>
    533a:	88 ee       	ldi	r24, 0xE8	; 232
    533c:	93 e0       	ldi	r25, 0x03	; 3
         // rr = exp(-pi/Q)  so Q = -pi/(ln(rr))
         // for r almost 1 (i.e., high Q), this is approx. pi/(1-rr)
         rr = 31416u/get_log(1000-rr);
    533e:	82 1b       	sub	r24, r18
    5340:	93 0b       	sbc	r25, r19
    5342:	0e 94 0a 06 	call	0xc14	; 0xc14 <get_log>
    5346:	bc 01       	movw	r22, r24
    5348:	88 eb       	ldi	r24, 0xB8	; 184
    534a:	9a e7       	ldi	r25, 0x7A	; 122
    534c:	9f d7       	rcall	.+3902   	; 0x628c <__udivmodhi4>
    534e:	02 c0       	rjmp	.+4      	; 0x5354 <peaksearch+0x232>
    5350:	60 e0       	ldi	r22, 0x00	; 0
    5352:	70 e0       	ldi	r23, 0x00	; 0
    5354:	a8 85       	ldd	r26, Y+8	; 0x08
   if (qptr) {
      // calculate r = ratio of amplitude between two consecutive peaks (*1000 for scaling)
      // but we use all peaks seen in this calculation for better accuracy
      // r is weighted average of peak2/peak1, peak3/peak2 and so on, weighed by respectively peak1, peak2 and so on
      // this can be calculated as r = (peak2+peak3+...+peak_m)/(peak1+peak2+peak_{m-1})
      rr = 0;
    5356:	b9 85       	ldd	r27, Y+9	; 0x09
    5358:	6d 93       	st	X+, r22
         // rr = exp(-pi/Q)  so Q = -pi/(ln(rr))
         // for r almost 1 (i.e., high Q), this is approx. pi/(1-rr)
         rr = 31416u/get_log(1000-rr);
         // note scaling: the get_log is *1000, and we now compute Q in multiples of .1, hence the numerator being 10000*pi
      }
      *qptr = (unsigned int)rr;
    535a:	7c 93       	st	X, r23
    535c:	07 c0       	rjmp	.+14     	; 0x536c <peaksearch+0x24a>
    535e:	e2 17       	cp	r30, r18
    5360:	f3 07       	cpc	r31, r19
    5362:	08 f4       	brcc	.+2      	; 0x5366 <peaksearch+0x244>
        delta =  uu[ii-dist] - bb;
        sawzero = (aa > uu[ii-dist]);
      }
#endif

      if ((bb < aa) && (sawzero == 1)) {
    5364:	65 cf       	rjmp	.-310    	; 0x5230 <peaksearch+0x10e>
    5366:	b1 e0       	ldi	r27, 0x01	; 1
    5368:	ba 8b       	std	Y+18, r27	; 0x12
    536a:	cb cf       	rjmp	.-106    	; 0x5302 <peaksearch+0x1e0>
        if (((int)(sum_ab/32)+delta) < 0)
#else
        if (((int)(sum_ab/4)+delta) < 0)
#endif
        {
           sawzero=1;
    536c:	c3 01       	movw	r24, r6
    536e:	63 96       	adiw	r28, 0x13	; 19
    5370:	e2 e1       	ldi	r30, 0x12	; 18
   DisplayValue(ipk,0,' ',3);
   DisplayValue(((unsigned long)mean_per*25)/16,-2,' ',6);
   DisplayValue(dist,0,' ',5);
#endif
   return mean_per;
}  /* end of peaksearch */
    5372:	0c 94 ec 31 	jmp	0x63d8	; 0x63d8 <__epilogue_restores__>

00005376 <sampling_lc>:
    5376:	a6 e2       	ldi	r26, 0x26	; 38
    5378:	b2 e0       	ldi	r27, 0x02	; 2
    537a:	e1 ec       	ldi	r30, 0xC1	; 193




void sampling_lc(byte LowPin, byte HighPin)
{
    537c:	f9 e2       	ldi	r31, 0x29	; 41
    537e:	0c 94 d4 31 	jmp	0x63a8	; 0x63a8 <__prologue_saves__+0x8>
    5382:	f8 2e       	mov	r15, r24
    5384:	06 2f       	mov	r16, r22
    5386:	8d e4       	ldi	r24, 0x4D	; 77
    5388:	93 e0       	ldi	r25, 0x03	; 3
    538a:	0e 94 53 32 	call	0x64a6	; 0x64a6 <__eerd_word_m328p>
   uint16_t lc_cpar;    // value of parallel capacitor used for calculating inductance, in pF
   uint16_t period;
   lc_cpar=eeprom_read_word((uint16_t *)&lc_cpar_ee);
    538e:	4c 01       	movw	r8, r24
    5390:	e0 2f       	mov	r30, r16
    5392:	f0 e0       	ldi	r31, 0x00	; 0
    5394:	e0 57       	subi	r30, 0x70	; 112

//###################################################################################################
 // new version of the code, with pulses via the ADC port, i.e., without 680 ohm series resistor

   byte HiPinR_L, LoADC;
   HiPinR_L = pinmaskRL(HighPin);
    5396:	fe 4f       	sbci	r31, 0xFE	; 254
    5398:	14 91       	lpm	r17, Z
    539a:	ef 2d       	mov	r30, r15
    539c:	f0 e0       	ldi	r31, 0x00	; 0
    539e:	ed 56       	subi	r30, 0x6D	; 109
   LoADC = pinmaskADC(LowPin);
    53a0:	fe 4f       	sbci	r31, 0xFE	; 254
    53a2:	e4 91       	lpm	r30, Z
    53a4:	10 92 ae 01 	sts	0x01AE, r1
    53a8:	10 92 af 01 	sts	0x01AF, r1

   lc_fx=0;
    53ac:	10 92 b0 01 	sts	0x01B0, r1
    53b0:	10 92 b1 01 	sts	0x01B1, r1
    53b4:	10 92 b5 01 	sts	0x01B5, r1
    53b8:	10 92 b4 01 	sts	0x01B4, r1
   lc_qx=0;
    53bc:	10 92 b6 01 	sts	0x01B6, r1
    53c0:	10 92 b7 01 	sts	0x01B7, r1
   lc_lx=0;
    53c4:	10 92 b8 01 	sts	0x01B8, r1
    53c8:	10 92 b9 01 	sts	0x01B9, r1
    53cc:	80 91 1a 01 	lds	r24, 0x011A
    53d0:	81 30       	cpi	r24, 0x01	; 1
   if ((PartFound != PART_RESISTOR) || (inductor_lpre > 0)) {
    53d2:	09 f0       	breq	.+2      	; 0x53d6 <sampling_lc+0x60>
    53d4:	48 c1       	rjmp	.+656    	; 0x5666 <sampling_lc+0x2f0>
    53d6:	80 91 01 01 	lds	r24, 0x0101
    53da:	18 16       	cp	r1, r24
    53dc:	0c f4       	brge	.+2      	; 0x53e0 <sampling_lc+0x6a>
    53de:	43 c1       	rjmp	.+646    	; 0x5666 <sampling_lc+0x2f0>
    53e0:	18 b8       	out	0x08, r1	; 8
    53e2:	e7 b9       	out	0x07, r30	; 7
    53e4:	0e 94 9e 04 	call	0x93c	; 0x93c <wait100us>

   unsigned int uu[255];


   ADC_PORT = TXD_VAL;
   ADC_DDR = LoADC;			// switch Low-Pin to output (GND)
    53e8:	00 6c       	ori	r16, 0xC0	; 192
   wait100us();
    53ea:	d0 2e       	mov	r13, r16
    53ec:	00 93 7c 00 	sts	0x007C, r16

   // first, acquire data at maximum speed:
   ADMUX=HighPin|ADref1V1;   // use built-in reference, about 1.1 V;
    53f0:	0e 94 9e 04 	call	0x93c	; 0x93c <wait100us>
    53f4:	c1 2e       	mov	r12, r17
                             // that's enough, because peaks more than about 0.6 V are not of interest
                             // (because the negative peak would be chopped by the protection diodes)
   wait_aref_stabilize();                               
    53f6:	e1 2c       	mov	r14, r1
    53f8:	00 e0       	ldi	r16, 0x00	; 0

   // run a first measurement, using the narrow full-current impulse
   samplingADC((1<<smplADC_span)|(1<<smplADC_direct), uu, 255, HiPinR_L, 0, 0, HiPinR_L);
    53fa:	21 2f       	mov	r18, r17
    53fc:	4f ef       	ldi	r20, 0xFF	; 255
    53fe:	be 01       	movw	r22, r28
    5400:	6f 5f       	subi	r22, 0xFF	; 255
    5402:	7f 4f       	sbci	r23, 0xFF	; 255
    5404:	80 e1       	ldi	r24, 0x10	; 16
    5406:	91 e0       	ldi	r25, 0x01	; 1
    5408:	0e 94 34 00 	call	0x68	; 0x68 <samplingADC>
    540c:	8f 2d       	mov	r24, r15
    540e:	80 6c       	ori	r24, 0xC0	; 192
    5410:	f8 2e       	mov	r15, r24

   // also measure some 20 samples at the "cold side" of the coil, and subtract
   // at highest frequencies, this is useful because the on-chip ADC has an RC lowpass which gives an exponentially decaying "DC" offset
   unsigned int uu0[20];
   ADMUX=LowPin|ADref1V1;   // switch to "cold" side for reference measurement
    5412:	80 93 7c 00 	sts	0x007C, r24
    5416:	21 2f       	mov	r18, r17
    5418:	44 e1       	ldi	r20, 0x14	; 20
    541a:	be 01       	movw	r22, r28
   samplingADC((1<<smplADC_span)|(1<<smplADC_direct), uu0, 20, HiPinR_L, 0, 0, HiPinR_L);
    541c:	61 50       	subi	r22, 0x01	; 1
    541e:	7e 4f       	sbci	r23, 0xFE	; 254
    5420:	80 e1       	ldi	r24, 0x10	; 16
    5422:	91 e0       	ldi	r25, 0x01	; 1
    5424:	0e 94 34 00 	call	0x68	; 0x68 <samplingADC>
    5428:	de 01       	movw	r26, r28
    542a:	11 96       	adiw	r26, 0x01	; 1
    542c:	fe 01       	movw	r30, r28
    542e:	e1 50       	subi	r30, 0x01	; 1
    5430:	fe 4f       	sbci	r31, 0xFE	; 254
    5432:	ae 01       	movw	r20, r28
    5434:	47 5d       	subi	r20, 0xD7	; 215
    5436:	5f 4f       	sbci	r21, 0xFF	; 255
    5438:	2d 91       	ld	r18, X+
    543a:	3c 91       	ld	r19, X
    543c:	11 97       	sbiw	r26, 0x01	; 1
   for (i=0;i<20;i++)
   {
      if (uu[i]>=uu0[i]) uu[i]-=uu0[i];
    543e:	81 91       	ld	r24, Z+
    5440:	91 91       	ld	r25, Z+
    5442:	28 17       	cp	r18, r24
    5444:	39 07       	cpc	r19, r25
    5446:	30 f0       	brcs	.+12     	; 0x5454 <sampling_lc+0xde>
    5448:	28 1b       	sub	r18, r24
    544a:	39 0b       	sbc	r19, r25
    544c:	11 96       	adiw	r26, 0x01	; 1
    544e:	3c 93       	st	X, r19
    5450:	2e 93       	st	-X, r18
    5452:	03 c0       	rjmp	.+6      	; 0x545a <sampling_lc+0xe4>
    5454:	11 96       	adiw	r26, 0x01	; 1
    5456:	1c 92       	st	X, r1
    5458:	1e 92       	st	-X, r1
      else uu[i]=0;
    545a:	12 96       	adiw	r26, 0x02	; 2
    545c:	a4 17       	cp	r26, r20
    545e:	b5 07       	cpc	r27, r21
    5460:	59 f7       	brne	.-42     	; 0x5438 <sampling_lc+0xc2>
   // also measure some 20 samples at the "cold side" of the coil, and subtract
   // at highest frequencies, this is useful because the on-chip ADC has an RC lowpass which gives an exponentially decaying "DC" offset
   unsigned int uu0[20];
   ADMUX=LowPin|ADref1V1;   // switch to "cold" side for reference measurement
   samplingADC((1<<smplADC_span)|(1<<smplADC_direct), uu0, 20, HiPinR_L, 0, 0, HiPinR_L);
   for (i=0;i<20;i++)
    5462:	d0 92 7c 00 	sts	0x007C, r13
    5466:	60 e0       	ldi	r22, 0x00	; 0
   {
      if (uu[i]>=uu0[i]) uu[i]-=uu0[i];
      else uu[i]=0;
   }
   ADMUX=HighPin|ADref1V1;   // back to "hot" side
    5468:	70 e0       	ldi	r23, 0x00	; 0
    546a:	ce 01       	movw	r24, r28

   byte dist0;         // estimate of duration of 1/4 of a period, used to set averaging interval in peaksearch()
   unsigned shift=0;   // by how many bit positions measured period needs to be shifted due to measuring with span>1

   // check how long until signal reaches 0: that gives us a first guess of 1/4 of the resonance period (because we apply an impulse, so we start at the maximum of the sinewave)
   period = peaksearch(uu,NULL);
    546c:	01 96       	adiw	r24, 0x01	; 1
    546e:	59 de       	rcall	.-846    	; 0x5122 <peaksearch>
    5470:	9f 5f       	subi	r25, 0xFF	; 255
    5472:	91 31       	cpi	r25, 0x11	; 17
    5474:	50 f0       	brcs	.+20     	; 0x548a <sampling_lc+0x114>
    5476:	90 34       	cpi	r25, 0x40	; 64
   dist0 = 1+(period>>8);    // >>6 because of fraction bits, plus >>2 because dist0 should be about a quarter period, plus +1 to round up
    5478:	78 f4       	brcc	.+30     	; 0x5498 <sampling_lc+0x122>
         report_buf(uu,6);
 #endif
	
#define samplingADC_direct (1<<smplADC_direct)
     par = (1<<smplADC_span) | samplingADC_direct;
     if (dist0>16) {
    547a:	90 e1       	ldi	r25, 0x10	; 16
    547c:	69 2e       	mov	r6, r25
      // rather slow resonance: then re-sample with 4 or 16 times larger interval; shift variable serves to take this into account in later calculations
        if (dist0<64) {
    547e:	94 e0       	ldi	r25, 0x04	; 4
    5480:	79 2e       	mov	r7, r25
           shift = 2;
           par = (4<<smplADC_span) | samplingADC_direct;
    5482:	22 e0       	ldi	r18, 0x02	; 2
    5484:	a2 2e       	mov	r10, r18
    5486:	b1 2c       	mov	r11, r1
    5488:	0d c0       	rjmp	.+26     	; 0x54a4 <sampling_lc+0x12e>
#define samplingADC_direct (1<<smplADC_direct)
     par = (1<<smplADC_span) | samplingADC_direct;
     if (dist0>16) {
      // rather slow resonance: then re-sample with 4 or 16 times larger interval; shift variable serves to take this into account in later calculations
        if (dist0<64) {
           shift = 2;
    548a:	80 e1       	ldi	r24, 0x10	; 16
    548c:	68 2e       	mov	r6, r24
    548e:	77 24       	eor	r7, r7
    5490:	73 94       	inc	r7
	 DisplayValue(((unsigned long)period*10)/64,-1,' ',5);
         report_buf(uu,6);
 #endif
	
#define samplingADC_direct (1<<smplADC_direct)
     par = (1<<smplADC_span) | samplingADC_direct;
    5492:	a1 2c       	mov	r10, r1
    5494:	b1 2c       	mov	r11, r1
    5496:	06 c0       	rjmp	.+12     	; 0x54a4 <sampling_lc+0x12e>
    5498:	b0 e1       	ldi	r27, 0x10	; 16
   ADMUX=HighPin|ADref1V1;   // back to "hot" side

//   uart_newline(); for (i=0;i<255;i++) { myuart_putc('A'); myuart_putc(' '); uart_int(uu[i]); uart_int(uu0[i]); uart_newline(); wdt_reset(); }

   byte dist0;         // estimate of duration of 1/4 of a period, used to set averaging interval in peaksearch()
   unsigned shift=0;   // by how many bit positions measured period needs to be shifted due to measuring with span>1
    549a:	6b 2e       	mov	r6, r27
    549c:	76 2c       	mov	r7, r6
    549e:	04 e0       	ldi	r16, 0x04	; 4
        if (dist0<64) {
           shift = 2;
           par = (4<<smplADC_span) | samplingADC_direct;
        } else {
           shift = 4;
           par = (16<<smplADC_span) | samplingADC_direct;
    54a0:	a0 2e       	mov	r10, r16
    54a2:	b1 2c       	mov	r11, r1
    54a4:	a8 e0       	ldi	r26, 0x08	; 8
      // rather slow resonance: then re-sample with 4 or 16 times larger interval; shift variable serves to take this into account in later calculations
        if (dist0<64) {
           shift = 2;
           par = (4<<smplADC_span) | samplingADC_direct;
        } else {
           shift = 4;
    54a6:	da 2e       	mov	r13, r26
    54a8:	a8 95       	wdr
    54aa:	c1 2e       	mov	r12, r17
     for (i=0;i<8;i++) {
        wdt_reset();
        samplingADC(par, uu, 255, HiPinR_L, 0, 0, HiPinR_L);
//        if (par > (2<<smplADC_span)) goto noavg;
        if (shift > 0) goto noavg;
        par |= samplingADC_cumul;
    54ac:	e1 2c       	mov	r14, r1
    54ae:	00 e0       	ldi	r16, 0x00	; 0
        }
     }

   // we take the average of 8 measurements, to increase S/N, except when using span>1, since then the sampling takes annoyingly long and S/N usually is better anyway at these lower frequencies
     for (i=0;i<8;i++) {
        wdt_reset();
    54b0:	21 2f       	mov	r18, r17
        samplingADC(par, uu, 255, HiPinR_L, 0, 0, HiPinR_L);
    54b2:	4f ef       	ldi	r20, 0xFF	; 255
    54b4:	be 01       	movw	r22, r28
    54b6:	6f 5f       	subi	r22, 0xFF	; 255
    54b8:	7f 4f       	sbci	r23, 0xFF	; 255
    54ba:	c3 01       	movw	r24, r6
    54bc:	0e 94 34 00 	call	0x68	; 0x68 <samplingADC>
    54c0:	a1 14       	cp	r10, r1
    54c2:	b1 04       	cpc	r11, r1
    54c4:	71 f0       	breq	.+28     	; 0x54e2 <sampling_lc+0x16c>
    54c6:	64 eb       	ldi	r22, 0xB4	; 180
//        if (par > (2<<smplADC_span)) goto noavg;
        if (shift > 0) goto noavg;
    54c8:	71 e0       	ldi	r23, 0x01	; 1
    54ca:	ce 01       	movw	r24, r28
    54cc:	01 96       	adiw	r24, 0x01	; 1
    while (i--) uu[i]>>=3;   // divide all samples by 8
//   }


noavg:;
   period = peaksearch(uu,&lc_qx);
    54ce:	29 de       	rcall	.-942    	; 0x5122 <peaksearch>
    54d0:	8c 01       	movw	r16, r24
    54d2:	01 3c       	cpi	r16, 0xC1	; 193
    54d4:	8f e3       	ldi	r24, 0x3F	; 63
    54d6:	18 07       	cpc	r17, r24
    54d8:	08 f4       	brcc	.+2      	; 0x54dc <sampling_lc+0x166>
    54da:	59 c0       	rjmp	.+178    	; 0x558e <sampling_lc+0x218>
   if (period > (255<<6)) period = 0;		// set implausible period to zero
    54dc:	00 e0       	ldi	r16, 0x00	; 0
    54de:	10 e0       	ldi	r17, 0x00	; 0
    54e0:	56 c0       	rjmp	.+172    	; 0x558e <sampling_lc+0x218>
    54e2:	93 01       	movw	r18, r6
    54e4:	20 64       	ori	r18, 0x40	; 64
    54e6:	da 94       	dec	r13
    54e8:	11 f0       	breq	.+4      	; 0x54ee <sampling_lc+0x178>
    54ea:	39 01       	movw	r6, r18
     for (i=0;i<8;i++) {
        wdt_reset();
        samplingADC(par, uu, 255, HiPinR_L, 0, 0, HiPinR_L);
//        if (par > (2<<smplADC_span)) goto noavg;
        if (shift > 0) goto noavg;
        par |= samplingADC_cumul;
    54ec:	dd cf       	rjmp	.-70     	; 0x54a8 <sampling_lc+0x132>
    54ee:	21 15       	cp	r18, r1
    54f0:	34 40       	sbci	r19, 0x04	; 4
           par = (16<<smplADC_span) | samplingADC_direct;
        }
     }

   // we take the average of 8 measurements, to increase S/N, except when using span>1, since then the sampling takes annoyingly long and S/N usually is better anyway at these lower frequencies
     for (i=0;i<8;i++) {
    54f2:	10 f0       	brcs	.+4      	; 0x54f8 <sampling_lc+0x182>
        wdt_reset();
        samplingADC(par, uu, 255, HiPinR_L, 0, 0, HiPinR_L);
//        if (par > (2<<smplADC_span)) goto noavg;
        if (shift > 0) goto noavg;
        par |= samplingADC_cumul;
    54f4:	2e ef       	ldi	r18, 0xFE	; 254
    54f6:	37 c0       	rjmp	.+110    	; 0x5566 <sampling_lc+0x1f0>
     }
   if ((par >> smplADC_span) < 4) {
    54f8:	f0 92 7c 00 	sts	0x007C, r15
    54fc:	e8 94       	clt
    // case of high frequency: subtract reference measurement, and do no scaling down of accumulated amplitudes since they are small in this case
      ADMUX=LowPin|ADref1V1;   // switch to "cold" side for reference measurement
      par &= ~samplingADC_cumul;
      for (i=0;i<8;i++) {
    54fe:	66 f8       	bld	r6, 6
    5500:	f8 e0       	ldi	r31, 0x08	; 8
        if (shift > 0) goto noavg;
        par |= samplingADC_cumul;
     }
   if ((par >> smplADC_span) < 4) {
    // case of high frequency: subtract reference measurement, and do no scaling down of accumulated amplitudes since they are small in this case
      ADMUX=LowPin|ADref1V1;   // switch to "cold" side for reference measurement
    5502:	ff 2e       	mov	r15, r31
    5504:	c1 2e       	mov	r12, r17
      par &= ~samplingADC_cumul;
    5506:	e1 2c       	mov	r14, r1
    5508:	00 e0       	ldi	r16, 0x00	; 0
    550a:	21 2f       	mov	r18, r17
    550c:	44 e1       	ldi	r20, 0x14	; 20
      for (i=0;i<8;i++) {
         samplingADC(par, uu0, 20, HiPinR_L, 0, 0, HiPinR_L);
    550e:	be 01       	movw	r22, r28
    5510:	61 50       	subi	r22, 0x01	; 1
    5512:	7e 4f       	sbci	r23, 0xFE	; 254
    5514:	c3 01       	movw	r24, r6
    5516:	0e 94 34 00 	call	0x68	; 0x68 <samplingADC>
    551a:	68 94       	set
    551c:	66 f8       	bld	r6, 6
    551e:	fa 94       	dec	r15
    5520:	89 f7       	brne	.-30     	; 0x5504 <sampling_lc+0x18e>
    5522:	44 e1       	ldi	r20, 0x14	; 20
         par |= samplingADC_cumul;
    5524:	41 50       	subi	r20, 0x01	; 1
    5526:	30 f3       	brcs	.-52     	; 0x54f4 <sampling_lc+0x17e>
    5528:	84 2f       	mov	r24, r20
     }
   if ((par >> smplADC_span) < 4) {
    // case of high frequency: subtract reference measurement, and do no scaling down of accumulated amplitudes since they are small in this case
      ADMUX=LowPin|ADref1V1;   // switch to "cold" side for reference measurement
      par &= ~samplingADC_cumul;
      for (i=0;i<8;i++) {
    552a:	90 e0       	ldi	r25, 0x00	; 0
    552c:	88 0f       	add	r24, r24
         samplingADC(par, uu0, 20, HiPinR_L, 0, 0, HiPinR_L);
         par |= samplingADC_cumul;
      }
      i=20; while (i--)         // equivalent to for (i=0;i<20;i++) but saves 48 bytes of flash????
    552e:	99 1f       	adc	r25, r25
    5530:	e1 e0       	ldi	r30, 0x01	; 1
      {
         if (uu[i]>=uu0[i]) uu[i]-=uu0[i];
    5532:	f0 e0       	ldi	r31, 0x00	; 0
    5534:	ec 0f       	add	r30, r28
    5536:	fd 1f       	adc	r31, r29
    5538:	e8 0f       	add	r30, r24
    553a:	f9 1f       	adc	r31, r25
    553c:	20 81       	ld	r18, Z
    553e:	31 81       	ldd	r19, Z+1	; 0x01
    5540:	af ef       	ldi	r26, 0xFF	; 255
    5542:	b1 e0       	ldi	r27, 0x01	; 1
    5544:	ac 0f       	add	r26, r28
    5546:	bd 1f       	adc	r27, r29
    5548:	a8 0f       	add	r26, r24
    554a:	b9 1f       	adc	r27, r25
    554c:	8d 91       	ld	r24, X+
    554e:	9c 91       	ld	r25, X
    5550:	28 17       	cp	r18, r24
    5552:	39 07       	cpc	r19, r25
    5554:	28 f0       	brcs	.+10     	; 0x5560 <sampling_lc+0x1ea>
    5556:	28 1b       	sub	r18, r24
    5558:	39 0b       	sbc	r19, r25
    555a:	31 83       	std	Z+1, r19	; 0x01
    555c:	20 83       	st	Z, r18
    555e:	e2 cf       	rjmp	.-60     	; 0x5524 <sampling_lc+0x1ae>
    5560:	11 82       	std	Z+1, r1	; 0x01
    5562:	10 82       	st	Z, r1
    5564:	df cf       	rjmp	.-66     	; 0x5524 <sampling_lc+0x1ae>
    5566:	2f 3f       	cpi	r18, 0xFF	; 255
    5568:	09 f4       	brne	.+2      	; 0x556c <sampling_lc+0x1f6>
         else uu[i]=0;
    556a:	ad cf       	rjmp	.-166    	; 0x54c6 <sampling_lc+0x150>
    556c:	fe 01       	movw	r30, r28
    556e:	31 96       	adiw	r30, 0x01	; 1
      }
//   } else {
    }
    // low frequency: no reference measurement needed, but do scale amplitude by number of accumulated samples
    i=255;
    while (i--) uu[i]>>=3;   // divide all samples by 8
    5570:	e2 0f       	add	r30, r18
    5572:	f1 1d       	adc	r31, r1
    5574:	e2 0f       	add	r30, r18
    5576:	f1 1d       	adc	r31, r1
    5578:	80 81       	ld	r24, Z
    557a:	91 81       	ldd	r25, Z+1	; 0x01
    557c:	73 e0       	ldi	r23, 0x03	; 3
    557e:	96 95       	lsr	r25
    5580:	87 95       	ror	r24
    5582:	7a 95       	dec	r23
    5584:	e1 f7       	brne	.-8      	; 0x557e <sampling_lc+0x208>
    5586:	91 83       	std	Z+1, r25	; 0x01
    5588:	80 83       	st	Z, r24
    558a:	21 50       	subi	r18, 0x01	; 1
    558c:	ec cf       	rjmp	.-40     	; 0x5566 <sampling_lc+0x1f0>
    558e:	68 01       	movw	r12, r16
    5590:	e1 2c       	mov	r14, r1
    5592:	f1 2c       	mov	r15, r1
    5594:	98 01       	movw	r18, r16
    5596:	d8 01       	movw	r26, r16
	 lcd_data('p');
         DisplayValue16((period*10)/64,-1,' ',4);
 #endif

   unsigned long vv;
   vv = (unsigned long)period;         // measured period with 6 fraction bits, before applying shift, is < 256*64 = 2^14
    5598:	de d6       	rcall	.+3516   	; 0x6356 <__umulhisi3>
    559a:	23 e3       	ldi	r18, 0x33	; 51
    559c:	30 e0       	ldi	r19, 0x00	; 0
   vv = vv*vv;                            // vv < 2^28   ; this is (except for shift)  d<<12
    559e:	40 e0       	ldi	r20, 0x00	; 0
    55a0:	50 e0       	ldi	r21, 0x00	; 0
    55a2:	9b d6       	rcall	.+3382   	; 0x62da <__udivmodsi4>
    55a4:	a8 e6       	ldi	r26, 0x68	; 104
#elif F_CPU==8000000UL
//   v=(v>>12)*49473;		// for 8 MHz CPU clock, it's 49473, but we need to right-shift further to fit in 32 bit
				// 1e21 / (2*pi*16e6)**2 / (8 * 1024)      = 12.07842632, which can be computed
				// with a divide by 51 and a mul with 616 (= 12.07843137) .
				// whith better accuracy than   49473/4096 = 12.07836914
   vv = (vv/51)*616;
    55a6:	b2 e0       	ldi	r27, 0x02	; 2
    55a8:	eb d6       	rcall	.+3542   	; 0x6380 <__muluhisi3>
    55aa:	94 01       	movw	r18, r8
    55ac:	36 95       	lsr	r19
    55ae:	27 95       	ror	r18
    55b0:	40 e0       	ldi	r20, 0x00	; 0
    55b2:	50 e0       	ldi	r21, 0x00	; 0
    55b4:	92 d6       	rcall	.+3364   	; 0x62da <__udivmodsi4>
    55b6:	c5 01       	movw	r24, r10
    55b8:	01 96       	adiw	r24, 0x01	; 1
#else
   #error "CPU clocks other than 8 and 16 MHz not yet supported for SamplingADC"
   vv = 0;
#endif
//   vv/=lc_cpar;                          //          ; is (d<<2)/(2*pi*fclock)^2/c * 1e9 >>3
   vv /= (lc_cpar>>1);                          //          ; is (d<<2)/(2*pi*fclock)^2/c * 1e9 >>2
    55ba:	88 0f       	add	r24, r24
    55bc:	99 1f       	adc	r25, r25
    55be:	04 c0       	rjmp	.+8      	; 0x55c8 <sampling_lc+0x252>
    55c0:	22 0f       	add	r18, r18
    55c2:	33 1f       	adc	r19, r19
    55c4:	44 1f       	adc	r20, r20
    55c6:	55 1f       	adc	r21, r21
//   v=(v>>12)*49473;		// for 8 MHz CPU clock, it's 49473, but we need to right-shift further to fit in 32 bit
				// 1e21 / (2*pi*16e6)**2 / (8 * 1024)      = 12.07842632, which can be computed
				// with a divide by 51 and a mul with 616 (= 12.07843137) .
				// whith better accuracy than   49473/4096 = 12.07836914
   vv = (vv/51)*616;
   shift++;                          // change shift variable to compensate for that later on
    55c8:	8a 95       	dec	r24
    55ca:	d2 f7       	brpl	.-12     	; 0x55c0 <sampling_lc+0x24a>
//   vv/=lc_cpar;                          //          ; is (d<<2)/(2*pi*fclock)^2/c * 1e9 >>3
   vv /= (lc_cpar>>1);                          //          ; is (d<<2)/(2*pi*fclock)^2/c * 1e9 >>2
	// shift for 16 MHz 0, 2,  4; for 8 MHz 1, 3,  5
        // resulting factor 2,32,512            8,128,2048 
//   vv<<=1+2*shift;                      //          ; is L in 1e-9 H  
   vv <<= 2*shift;                      //          ; is L in 1e-9 H  
    55cc:	20 93 b6 01 	sts	0x01B6, r18
    55d0:	30 93 b7 01 	sts	0x01B7, r19
    55d4:	40 93 b8 01 	sts	0x01B8, r20
    55d8:	50 93 b9 01 	sts	0x01B9, r21
    55dc:	80 91 09 01 	lds	r24, 0x0109
                        // not nice: the nH number will always be even; then again, do we really measure that precisely?
   lc_lx = vv;
    55e0:	90 91 0a 01 	lds	r25, 0x010A
    55e4:	a0 91 0b 01 	lds	r26, 0x010B
    55e8:	b0 91 0c 01 	lds	r27, 0x010C
    55ec:	03 97       	sbiw	r24, 0x03	; 3
   // inductor_lpre = 0, no Inductor found 
   // unductor_lpre = 1,  rx is above 2100 Ohm
   // inductor_lpre = -5, Inductance searched without 680 Ohm, rx is below 24 Ohm
   // inductor_lpre = -4,  Inductance is searched with 680i Ohm, 24 < rx < 2100
   // probably search of 
   if (inductor_lx>2) {
    55ee:	a1 05       	cpc	r26, r1
    55f0:	b1 05       	cpc	r27, r1
    55f2:	40 f0       	brcs	.+16     	; 0x5604 <sampling_lc+0x28e>
    55f4:	10 92 b6 01 	sts	0x01B6, r1
    55f8:	10 92 b7 01 	sts	0x01B7, r1
    55fc:	10 92 b8 01 	sts	0x01B8, r1
    5600:	10 92 b9 01 	sts	0x01B9, r1
    5604:	01 15       	cp	r16, r1
      // if traditional measurement gave some meaningful-looking value ( > 20 uH, but that's rather arbitrary)
      // discard the new one, it's probably self-resonance
      // note that if a sizeable cap is in parallel, the normal measurement doesn't come up with an answer
      lc_lx=0;
    5606:	11 05       	cpc	r17, r1
    5608:	69 f4       	brne	.+26     	; 0x5624 <sampling_lc+0x2ae>
    560a:	10 92 b5 01 	sts	0x01B5, r1
    560e:	10 92 b4 01 	sts	0x01B4, r1
    5612:	10 92 b6 01 	sts	0x01B6, r1
   }

   // freq/Hz = F_CPU/d
   if (period==0) {
    5616:	10 92 b7 01 	sts	0x01B7, r1
    561a:	10 92 b8 01 	sts	0x01B8, r1
      lc_qx = 0;
    561e:	10 92 b9 01 	sts	0x01B9, r1
    5622:	21 c0       	rjmp	.+66     	; 0x5666 <sampling_lc+0x2f0>
      lc_lx = 0;
    5624:	26 e0       	ldi	r18, 0x06	; 6
    5626:	30 e0       	ldi	r19, 0x00	; 0
    5628:	2a 19       	sub	r18, r10
    562a:	3b 09       	sbc	r19, r11
    562c:	60 e0       	ldi	r22, 0x00	; 0
    562e:	72 e1       	ldi	r23, 0x12	; 18
    5630:	8a e7       	ldi	r24, 0x7A	; 122
    5632:	90 e0       	ldi	r25, 0x00	; 0
   DisplayValue16(shift,0,' ',3);
   DisplayValue16(dist0,0,' ',4);
   report_buf(ii,6);
   lcd_refresh();
#endif
      return;
    5634:	04 c0       	rjmp	.+8      	; 0x563e <sampling_lc+0x2c8>
#if F_CPU==16000000UL
   vv = (unsigned long)period<<1;
#else
   vv = (unsigned long)period;
#endif
   lc_fx = ((F_CPU<<(7-shift))/vv);
    5636:	66 0f       	add	r22, r22
    5638:	77 1f       	adc	r23, r23
    563a:	88 1f       	adc	r24, r24
    563c:	99 1f       	adc	r25, r25
    563e:	2a 95       	dec	r18
    5640:	d2 f7       	brpl	.-12     	; 0x5636 <sampling_lc+0x2c0>
    5642:	a7 01       	movw	r20, r14
    5644:	96 01       	movw	r18, r12
    5646:	49 d6       	rcall	.+3218   	; 0x62da <__udivmodsi4>
    5648:	20 93 ae 01 	sts	0x01AE, r18
    564c:	30 93 af 01 	sts	0x01AF, r19
    5650:	40 93 b0 01 	sts	0x01B0, r20
    5654:	50 93 b1 01 	sts	0x01B1, r21
    5658:	80 91 01 01 	lds	r24, 0x0101
    565c:	87 fd       	sbrc	r24, 7
    565e:	03 c0       	rjmp	.+6      	; 0x5666 <sampling_lc+0x2f0>
    5660:	8f ef       	ldi	r24, 0xFF	; 255
    5662:	80 93 01 01 	sts	0x0101, r24
    5666:	ca 5d       	subi	r28, 0xDA	; 218
    5668:	dd 4f       	sbci	r29, 0xFD	; 253
    566a:	ee e0       	ldi	r30, 0x0E	; 14

   if (inductor_lpre >= 0) inductor_lpre = -1; 	/* no ESR measurement! */
    566c:	b9 c6       	rjmp	.+3442   	; 0x63e0 <__epilogue_restores__+0x8>

0000566e <sampling_lc_calibrate>:
    566e:	cf 93       	push	r28
    5670:	df 93       	push	r29
    5672:	d8 2f       	mov	r29, r24
    5674:	0e 94 83 01 	call	0x306	; 0x306 <lcd_line1>
    5678:	84 e1       	ldi	r24, 0x14	; 20
   return;
} /* end of sampling_lc() */
    567a:	90 e0       	ldi	r25, 0x00	; 0
    567c:	0e 94 d1 01 	call	0x3a2	; 0x3a2 <lcd_fix_string>
    5680:	0e 94 4e 02 	call	0x49c	; 0x49c <lcd_clear_line>




void sampling_lc_calibrate(byte ww)
{
    5684:	c0 e0       	ldi	r28, 0x00	; 0
    5686:	10 92 b3 01 	sts	0x01B3, r1
 #define C_DIFF_LIMIT 200   /* Tolerance of capacity to rewrite eeprom */
//   lcd_clear();
   lcd_line1();
    568a:	10 92 b2 01 	sts	0x01B2, r1
   lcd_MEM2_string(cap_for_l_meas_str);		// "Cap for L meas?"
    568e:	84 e1       	ldi	r24, 0x14	; 20
    5690:	0e 94 aa 04 	call	0x954	; 0x954 <sleep_5ms>
    5694:	62 e0       	ldi	r22, 0x02	; 2
   lcd_clear_line();
    5696:	80 e0       	ldi	r24, 0x00	; 0
    5698:	0e 94 3f 15 	call	0x2a7e	; 0x2a7e <ReadCapacity>
   byte i = 0;		// no legal capacity value found
   do { 
      lc_cpartmp = 0;
    569c:	0e 94 8a 01 	call	0x314	; 0x314 <lcd_line2>
    56a0:	24 e0       	ldi	r18, 0x04	; 4
    56a2:	46 e4       	ldi	r20, 0x46	; 70
      wait_about100ms();
    56a4:	64 ef       	ldi	r22, 0xF4	; 244
    56a6:	80 91 b2 01 	lds	r24, 0x01B2
      ReadCapacity(TP1,TP3);
    56aa:	90 91 b3 01 	lds	r25, 0x01B3
    56ae:	0e 94 65 04 	call	0x8ca	; 0x8ca <DisplayValue16>
      lcd_line2();
    56b2:	60 91 b2 01 	lds	r22, 0x01B2
      DisplayValue16(lc_cpartmp,-12,'F',4);
    56b6:	70 91 b3 01 	lds	r23, 0x01B3
    56ba:	9b 01       	movw	r18, r22
    56bc:	2c 53       	subi	r18, 0x3C	; 60
    56be:	3f 40       	sbci	r19, 0x0F	; 15
    56c0:	25 39       	cpi	r18, 0x95	; 149
    56c2:	35 47       	sbci	r19, 0x75	; 117
    56c4:	80 f4       	brcc	.+32     	; 0x56e6 <sampling_lc_calibrate+0x78>
    56c6:	cf 5f       	subi	r28, 0xFF	; 255
      i++;
//      if ((lc_cpartmp<9500) || (lc_cpartmp>33000)) i=0;		// unstable or not connected
      if ((lc_cpartmp<3900) || (lc_cpartmp>34000)) i=0;		// unstable or not connected
    56c8:	c5 30       	cpi	r28, 0x05	; 5
    56ca:	70 f0       	brcs	.+28     	; 0x56e8 <sampling_lc_calibrate+0x7a>
    56cc:	8d e4       	ldi	r24, 0x4D	; 77
    56ce:	93 e0       	ldi	r25, 0x03	; 3
    56d0:	fd d6       	rcall	.+3578   	; 0x64cc <__eewr_word_m328p>
    56d2:	0e 94 67 01 	call	0x2ce	; 0x2ce <lcd_space>
    56d6:	85 eb       	ldi	r24, 0xB5	; 181
    56d8:	91 e0       	ldi	r25, 0x01	; 1
    56da:	0e 94 d1 01 	call	0x3a2	; 0x3a2 <lcd_fix_string>
 #ifdef AUTO_LC_CAP
      if ((lc_cpartmp == 0) && (ww > 249)) break;	// a coil is connected in the AUTO_LC_CAP mode
 #endif
      if (i > 4) {	// Cx measurement was stable
    56de:	84 e6       	ldi	r24, 0x64	; 100
    56e0:	0e 94 aa 04 	call	0x954	; 0x954 <sleep_5ms>
           /* new cap value is out of tolerance */
 #else
        if (1)
 #endif
         {  /* rewrite new capacity value to eeprom and report OK */
            eeprom_write_word((uint16_t *)&lc_cpar_ee,lc_cpartmp);
    56e4:	05 c0       	rjmp	.+10     	; 0x56f0 <sampling_lc_calibrate+0x82>
    56e6:	c0 e0       	ldi	r28, 0x00	; 0
    56e8:	0e 94 4e 02 	call	0x49c	; 0x49c <lcd_clear_line>
	    lcd_space();
    56ec:	df 5f       	subi	r29, 0xFF	; 255
            lcd_MEM_string(OK_str);	// Output "OK"
    56ee:	59 f6       	brne	.-106    	; 0x5686 <sampling_lc_calibrate+0x18>
    56f0:	0e 94 83 01 	call	0x306	; 0x306 <lcd_line1>
    56f4:	df 91       	pop	r29
            lcd_refresh();
            wait_about500ms();
    56f6:	cf 91       	pop	r28
    56f8:	08 95       	ret

000056fa <main>:
    56fa:	2f 92       	push	r2
         }
         break;
    56fc:	3f 92       	push	r3
      ReadCapacity(TP1,TP3);
      lcd_line2();
      DisplayValue16(lc_cpartmp,-12,'F',4);
      i++;
//      if ((lc_cpartmp<9500) || (lc_cpartmp>33000)) i=0;		// unstable or not connected
      if ((lc_cpartmp<3900) || (lc_cpartmp>34000)) i=0;		// unstable or not connected
    56fe:	4f 92       	push	r4
            lcd_refresh();
            wait_about500ms();
         }
         break;
      }  /* end (i > 4) */
      lcd_clear_line();
    5700:	5f 92       	push	r5
    5702:	7f 92       	push	r7
      lcd_refresh();
   } while (++ww != 0);
    5704:	8f 92       	push	r8
    5706:	9f 92       	push	r9
   lcd_line1();
    5708:	af 92       	push	r10
    570a:	bf 92       	push	r11
}
    570c:	cf 92       	push	r12
    570e:	df 92       	push	r13
    5710:	ef 92       	push	r14
	  // ADC_vect is always required by samplingADC()
	  EMPTY_INTERRUPT(ADC_vect);
        #endif

	//begin of transistortester program
	int main(void) {
    5712:	ff 92       	push	r15
    5714:	0f 93       	push	r16
    5716:	1f 93       	push	r17
    5718:	cf 93       	push	r28
    571a:	df 93       	push	r29
    571c:	1f 92       	push	r1
    571e:	cd b7       	in	r28, 0x3d	; 61
    5720:	de b7       	in	r29, 0x3e	; 62
        uint16_t pw;
        uint8_t pb[2];
        } rpins;
        uint8_t x, y, z;
	  //switch on
	  ON_DDR = (1<<ON_PIN);			// switch to output
    5722:	80 e4       	ldi	r24, 0x40	; 64
    5724:	8a b9       	out	0x0a, r24	; 10
	  ON_PORT = (1<<ON_PIN); 		// switch power on 
    5726:	8b b9       	out	0x0b, r24	; 11
	#ifndef PULLUP_DISABLE
	  RST_PORT |= (1<<RST_PIN); 	// enable internal Pullup for Start-Pin
	#endif
	  uint8_t tmp;
	  //ADC-Init
	  ADCSRA = (1<<ADEN) | AUTO_CLOCK_DIV;	//prescaler=8 or 64 (if 8Mhz clock)
    5728:	86 e8       	ldi	r24, 0x86	; 134
    572a:	80 93 7a 00 	sts	0x007A, r24
	 #define WDRF_HOME MCUCSR
	#else
	 #define WDRF_HOME MCUSR
	 #if FLASHEND > 0x3fff
	  // probably was a bootloader active, disable the UART
	  UCSR0B = 0;		// disable UART, if started with bootloader
    572e:	10 92 c1 00 	sts	0x00C1, r1
	 #endif
	#endif
          wait500ms();
    5732:	0e 94 8a 04 	call	0x914	; 0x914 <wait500ms>
	  SERIAL_PORT |= (1<<SERIAL_BIT);
         #endif
          SERIAL_DDR |= (1<<SERIAL_BIT);
	#endif

	  tmp = (WDRF_HOME & ((1<<WDRF)));	// save Watch Dog Flag
    5736:	14 b7       	in	r17, 0x34	; 52
	  WDRF_HOME &= ~(1<<WDRF);	 	//reset Watch Dog flag
    5738:	84 b7       	in	r24, 0x34	; 52
    573a:	87 7f       	andi	r24, 0xF7	; 247
    573c:	84 bf       	out	0x34, r24	; 52
	  wdt_disable();			// disable Watch Dog
    573e:	88 e1       	ldi	r24, 0x18	; 24
    5740:	0f b6       	in	r0, 0x3f	; 63
    5742:	f8 94       	cli
    5744:	80 93 60 00 	sts	0x0060, r24
    5748:	10 92 60 00 	sts	0x0060, r1
    574c:	0f be       	out	0x3f, r0	; 63
	//  PRR1 =  (1<<PRTIM3) ;
	 #elif PROCESSOR_TYP == 1280
	  PRR0 = (1<<PRTWI) |  (1<<PRSPI) | (1<<PRUSART1);
	  PRR1 = (1<<PRTIM5) | (1<<PRTIM4) | (1<<PRTIM3) | (1<<PRUSART3) | (1<<PRUSART2) | (1<<PRUSART3);
	 #else
	  PRR = (1<<PRTWI) | (1<<PRSPI) | (1<<PRUSART0);
    574e:	86 e8       	ldi	r24, 0x86	; 134
    5750:	80 93 64 00 	sts	0x0064, r24
	 #endif
//	disable digital inputs of Analog pins, but TP1-3 digital inputs must be left enabled for VGS measurement
	  DIDR0 = ((1<<ADC5D) | (1<<ADC4D) | (1<<ADC3D) | (1<<ADC2D) | (1<<ADC1D) | (1<<ADC0D)) & ~((1<<TP3) | (1<<TP2) | (1<<TP1));	
    5754:	88 e3       	ldi	r24, 0x38	; 56
    5756:	80 93 7e 00 	sts	0x007E, r24
	  TCCR2A = (0<<WGM21) | (0<<WGM20);		// Counter 2 normal mode
    575a:	10 92 b0 00 	sts	0x00B0, r1
	  TCCR2B = CNTR2_PRESCALER;	//prescaler set in autoconf
    575e:	87 e0       	ldi	r24, 0x07	; 7
    5760:	80 93 b1 00 	sts	0x00B1, r24
	#endif		/* INHIBIT_SLEEP_MODE */
	  sei();				// enable interrupts
    5764:	78 94       	sei
	  lcd_init();				//initialize LCD
    5766:	0e 94 f6 01 	call	0x3ec	; 0x3ec <lcd_init>
		
	//  ADC_PORT = TXD_VAL;
	//  ADC_DDR = TXD_MSK;
	  if(tmp) { 
    576a:	13 fd       	sbrc	r17, 3
    576c:	54 c5       	rjmp	.+2728   	; 0x6216 <main+0xb1c>

	#ifdef PULLUP_DISABLE
	 #ifdef __AVR_ATmega8__
	  SFIOR = (1<<PUD);		// disable Pull-Up Resistors mega8
	 #else
	  MCUCR = (1<<PUD);		// disable Pull-Up Resistors mega168 family
    576e:	80 e1       	ldi	r24, 0x10	; 16
    5770:	85 bf       	out	0x35, r24	; 53
#ifdef WITH_HARDWARE_SERIAL
//	ii = 60;
	ii = 30;
#else
	#if 1
	  for (ii=0; ii<60; ii++) {
    5772:	10 e0       	ldi	r17, 0x00	; 0
		if (RST_PIN_REG & (1 << RST_PIN))
    5774:	4f 99       	sbic	0x09, 7	; 9
    5776:	06 c0       	rjmp	.+12     	; 0x5784 <main+0x8a>
			break;	// button is released
	     wait_about10ms();
    5778:	82 e0       	ldi	r24, 0x02	; 2
    577a:	0e 94 aa 04 	call	0x954	; 0x954 <sleep_5ms>
#ifdef WITH_HARDWARE_SERIAL
//	ii = 60;
	ii = 30;
#else
	#if 1
	  for (ii=0; ii<60; ii++) {
    577e:	1f 5f       	subi	r17, 0xFF	; 255
    5780:	1c 33       	cpi	r17, 0x3C	; 60
    5782:	c1 f7       	brne	.-16     	; 0x5774 <main+0x7a>
	  if (!(RST_PIN_REG & (1<<RST_PIN))) {
	     // key is still pressed
	     ii = wait_for_key_ms(700);	
	  }
	#endif
	  display_time = OFF_WAIT_TIME;		// LONG_WAIT_TIME for single mode, else SHORT_WAIT_TIME
    5784:	8f e5       	ldi	r24, 0x5F	; 95
    5786:	9d e6       	ldi	r25, 0x6D	; 109
    5788:	90 93 13 01 	sts	0x0113, r25
    578c:	80 93 12 01 	sts	0x0112, r24
	  if (ii > 30) {
    5790:	1f 31       	cpi	r17, 0x1F	; 31
    5792:	30 f0       	brcs	.+12     	; 0x57a0 <main+0xa6>
	     display_time = LONG_WAIT_TIME;	// ... set long time display anyway
    5794:	80 e6       	ldi	r24, 0x60	; 96
    5796:	9d e6       	ldi	r25, 0x6D	; 109
    5798:	90 93 13 01 	sts	0x0113, r25
    579c:	80 93 12 01 	sts	0x0112, r24
#endif // WITH_HARDWARE_SERIAL
	#if POWER_OFF+0 > 1
	  empty_count = 0;
	  mess_count = 0;
	#endif
	  ADCconfig.RefFlag = 0;
    57a0:	10 92 2c 01 	sts	0x012C, r1
	  Calibrate_UR();		// get Ref Voltages and Pin resistance
    57a4:	0e 94 95 18 	call	0x312a	; 0x312a <Calibrate_UR>
	#ifdef WDT_enabled
	  wdt_enable(WDTO_2S);		//Watchdog on
    57a8:	2f e0       	ldi	r18, 0x0F	; 15
    57aa:	88 e1       	ldi	r24, 0x18	; 24
    57ac:	90 e0       	ldi	r25, 0x00	; 0
    57ae:	0f b6       	in	r0, 0x3f	; 63
    57b0:	f8 94       	cli
    57b2:	a8 95       	wdr
    57b4:	80 93 60 00 	sts	0x0060, r24
    57b8:	0f be       	out	0x3f, r0	; 63
    57ba:	20 93 60 00 	sts	0x0060, r18
	#endif
	#ifdef WITH_MENU
	  if (ii >= 60) {
    57be:	1c 33       	cpi	r17, 0x3C	; 60
    57c0:	20 f0       	brcs	.+8      	; 0x57ca <main+0xd0>
		while(function_menu());		// selection of function
    57c2:	0e 94 87 23 	call	0x470e	; 0x470e <function_menu>
    57c6:	81 11       	cpse	r24, r1
    57c8:	fc cf       	rjmp	.-8      	; 0x57c2 <main+0xc8>
  mess_count++;			// count measurements
#endif
  max_time = display_time;	// full specified wait time

 end2:
  ADC_DDR = (1<<TPRELAY) | TXD_MSK; 	// switch pin with reference to GND, release relay
    57ca:	10 e1       	ldi	r17, 0x10	; 16
           SerienDiodenAusgabe();
           goto end3;
        }
     } else if(NumOfDiodes == 3) {
        //Serial of 2 Diodes; was detected as 3 Diodes 
        diode_sequence = 0x33;	// 3 3
    57cc:	03 e3       	ldi	r16, 0x33	; 51
    57ce:	90 2e       	mov	r9, r16
	  lcd_clear_line1();
	#else
	  lcd_clear();				// clear total display
	#endif

	  _trans = &ntrans;			// default transistor structure to show
    57d0:	8f e3       	ldi	r24, 0x3F	; 63
    57d2:	e8 2e       	mov	r14, r24
    57d4:	81 e0       	ldi	r24, 0x01	; 1
    57d6:	f8 2e       	mov	r15, r24
       if ((ptrans.hfe < 500) && (ntrans.hfe >= 500)) cap.cpre = -16; // set PNP BE capacity to low value

       if (((n_cpre == cap.cpre) && (cap.cval > n_cval))
					|| (cap.cpre > n_cpre)) {
          // the capacity value or dimension of the PNP B-E is greater than the NPN B-E
          PartMode = PART_MODE_PNP;
    57d8:	9d e0       	ldi	r25, 0x0D	; 13
    57da:	89 2e       	mov	r8, r25
       n_cval = cap.cval;			// save the found capacity value
       n_cpre  = cap.cpre;			// and dimension
       ReadCapacity(ptrans.b, ptrans.e);	// read capacity of PNP base-emitter
       // check if one hfe is very low. If yes, simulate a very low BE capacity
       if ((ntrans.hfe < 500) && (ptrans.hfe >= 500)) n_cpre = -16; // set NPN BE capacity to low value
       if ((ptrans.hfe < 500) && (ntrans.hfe >= 500)) cap.cpre = -16; // set PNP BE capacity to low value
    57dc:	20 ef       	ldi	r18, 0xF0	; 240
    57de:	72 2e       	mov	r7, r18
end3:
        uart_newline();		// MAURO  ('H')
  // the diode  is already shown on the LCD
	if (ResistorsFound == 0)
		goto tt_end;
  ADC_DDR = (1<<TPRELAY) | TXD_MSK; 	// switch pin with reference to GND, release relay
    57e0:	30 e1       	ldi	r19, 0x10	; 16
    57e2:	d3 2e       	mov	r13, r19
          }
			if (diodes.Cathode[1] == diodes.Anode[2]) {
           diode_sequence = 0x12;	// 1 2
          }
			if (diodes.Anode[1] == diodes.Cathode[2]) {
           diode_sequence = 0x21;	// 2 1
    57e4:	41 e2       	ldi	r20, 0x21	; 33
    57e6:	c4 2e       	mov	r12, r20
          }
			if (diodes.Anode[0] == diodes.Cathode[2]) {
           diode_sequence = 0x20;	// 2 0
          }
			if (diodes.Cathode[1] == diodes.Anode[2]) {
           diode_sequence = 0x12;	// 1 2
    57e8:	52 e1       	ldi	r21, 0x12	; 18
    57ea:	b5 2e       	mov	r11, r21
          }
			if (diodes.Cathode[0] == diodes.Anode[2]) {
           diode_sequence = 0x02;	// 0 2
          }
			if (diodes.Anode[0] == diodes.Cathode[2]) {
           diode_sequence = 0x20;	// 2 0
    57ec:	60 e2       	ldi	r22, 0x20	; 32
    57ee:	a6 2e       	mov	r10, r22
	loop_start:
	#if ((LCD_ST_TYPE == 7565) || (LCD_ST_TYPE == 1306))
	  lcd_command(CMD_DISPLAY_ON);
	  lcd_command(CMD_SET_ALLPTS_NORMAL);		// 0xa4
	#endif
	  lcd_clear();			// clear the LCD
    57f0:	0e 94 b2 01 	call	0x364	; 0x364 <lcd_clear>
	  ADC_DDR = TXD_MSK;		// activate Software-UART 
    57f4:	17 b8       	out	0x07, r1	; 7
          init_parts();			// reset parts info to nothing found
    57f6:	0e 94 5a 06 	call	0xcb4	; 0xcb4 <init_parts>
	  Calibrate_UR();		// get Ref Voltages and Pin resistance
    57fa:	0e 94 95 18 	call	0x312a	; 0x312a <Calibrate_UR>
	  lcd_line1();			// Cursor to 1. row, column 1
    57fe:	0e 94 83 01 	call	0x306	; 0x306 <lcd_line1>
	  
	#ifdef BAT_CHECK
	  // Battery check is selected
        Battery_check();
    5802:	0e 94 05 0b 	call	0x160a	; 0x160a <Battery_check>
	  lcd_MEM_string(VERSION_str);		// if no Battery check, Version .. in row 1
	#endif	/* BAT_CHECK */

	  // begin tests
	#if FLASHEND > 0x1fff
	  if (WithReference) {
    5806:	80 91 3a 01 	lds	r24, 0x013A
    580a:	88 23       	and	r24, r24
    580c:	81 f0       	breq	.+32     	; 0x582e <main+0x134>
	 #if POWER_OFF+0 > 1
	     if ((mess_count == 0) && (empty_count == 0))
	 #endif
	     {
		 /* display VCC= only first time */
		 lcd_line2();
    580e:	0e 94 8a 01 	call	0x314	; 0x314 <lcd_line2>
		 lcd_MEM_string(VCC_str);		// VCC=
    5812:	80 e6       	ldi	r24, 0x60	; 96
    5814:	91 e0       	ldi	r25, 0x01	; 1
    5816:	0e 94 d1 01 	call	0x3a2	; 0x3a2 <lcd_fix_string>
		 Display_mV(ADCconfig.U_AVCC,3);	// Display 3 Digits of this mV units
    581a:	63 e0       	ldi	r22, 0x03	; 3
    581c:	80 91 2f 01 	lds	r24, 0x012F
    5820:	90 91 30 01 	lds	r25, 0x0130
    5824:	0e 94 70 04 	call	0x8e0	; 0x8e0 <Display_mV>
		 lcd_refresh();			// write the pixels to display, ST7920 only
		 wait_about1s();		// time to read the VCC= message
    5828:	88 ec       	ldi	r24, 0xC8	; 200
    582a:	0e 94 aa 04 	call	0x954	; 0x954 <sleep_5ms>
	     wait_about300ms();		// delay to read the Vext= message
	  }
	#endif /* WITH_VEXT */

	#ifndef DebugOut
	  lcd_line2();			//LCD position row 2, column 1
    582e:	0e 94 8a 01 	call	0x314	; 0x314 <lcd_line2>
	#endif
	  EntladePins();		// discharge all capacitors!
    5832:	0e 94 76 14 	call	0x28ec	; 0x28ec <EntladePins>
	  if(PartFound == PART_CELL) {
    5836:	80 91 1a 01 	lds	r24, 0x011A
    583a:	89 30       	cpi	r24, 0x09	; 9
    583c:	41 f5       	brne	.+80     	; 0x588e <main+0x194>
	    lcd_clear();
    583e:	0e 94 b2 01 	call	0x364	; 0x364 <lcd_clear>
	    lcd_MEM_string(Cell_str);	// display "Cell!"
    5842:	85 e6       	ldi	r24, 0x65	; 101
    5844:	91 e0       	ldi	r25, 0x01	; 1
    5846:	0e 94 d1 01 	call	0x3a2	; 0x3a2 <lcd_fix_string>
	#if FLASHEND > 0x3fff
	    lcd_line2();		// use LCD line 2
    584a:	0e 94 8a 01 	call	0x314	; 0x314 <lcd_line2>
	    Display_mV(cell_mv[0],3);
    584e:	63 e0       	ldi	r22, 0x03	; 3
    5850:	80 91 03 01 	lds	r24, 0x0103
    5854:	90 91 04 01 	lds	r25, 0x0104
    5858:	0e 94 70 04 	call	0x8e0	; 0x8e0 <Display_mV>
	    lcd_space();
    585c:	0e 94 67 01 	call	0x2ce	; 0x2ce <lcd_space>
	    Display_mV(cell_mv[1],3);
    5860:	63 e0       	ldi	r22, 0x03	; 3
    5862:	80 91 05 01 	lds	r24, 0x0105
    5866:	90 91 06 01 	lds	r25, 0x0106
    586a:	0e 94 70 04 	call	0x8e0	; 0x8e0 <Display_mV>
	    lcd_space();
    586e:	0e 94 67 01 	call	0x2ce	; 0x2ce <lcd_space>
	    Display_mV(cell_mv[2],3);
    5872:	63 e0       	ldi	r22, 0x03	; 3
    5874:	80 91 07 01 	lds	r24, 0x0107
    5878:	90 91 08 01 	lds	r25, 0x0108
    587c:	0e 94 70 04 	call	0x8e0	; 0x8e0 <Display_mV>
	#endif
	#ifdef WITH_SELFTEST
	    lcd_refresh();			// write the pixels to display, ST7920 only
	    wait_about2s();
    5880:	8a ec       	ldi	r24, 0xCA	; 202
    5882:	0e 94 aa 04 	call	0x954	; 0x954 <sleep_5ms>
	    AutoCheck(0x11);		// full Selftest with "Short probes" message
    5886:	81 e1       	ldi	r24, 0x11	; 17
    5888:	0e 94 dc 06 	call	0xdb8	; 0xdb8 <AutoCheck>
	#endif
	    goto tt_end;
    588c:	9e c4       	rjmp	.+2364   	; 0x61ca <main+0xad0>
	  }

	#ifdef WITH_SELFTEST
	 #ifdef AUTO_CAL
	  lcd_cursor_off();
    588e:	8c e0       	ldi	r24, 0x0C	; 12
    5890:	0e 94 7e 01 	call	0x2fc	; 0x2fc <lcd_command>
	  UnCalibrated = (eeprom_read_byte(&c_zero_tab[3]) - eeprom_read_byte(&c_zero_tab[0]));
    5894:	8b e3       	ldi	r24, 0x3B	; 59
    5896:	93 e0       	ldi	r25, 0x03	; 3
    5898:	fe d5       	rcall	.+3068   	; 0x6496 <__eerd_byte_m328p>
    589a:	08 2f       	mov	r16, r24
    589c:	88 e3       	ldi	r24, 0x38	; 56
    589e:	93 e0       	ldi	r25, 0x03	; 3
    58a0:	fa d5       	rcall	.+3060   	; 0x6496 <__eerd_byte_m328p>
    58a2:	08 1b       	sub	r16, r24
    58a4:	00 93 37 01 	sts	0x0137, r16
    58a8:	00 23       	and	r16, r16
    58aa:	19 f0       	breq	.+6      	; 0x58b2 <main+0x1b8>
	  if (UnCalibrated != 0) {
    58ac:	8e e0       	ldi	r24, 0x0E	; 14
    58ae:	0e 94 7e 01 	call	0x2fc	; 0x2fc <lcd_command>
	     // if calibrated, both c_zero_tab values are identical! c_zero_tab[3] is not used otherwise
	     lcd_cursor_on();
    58b2:	80 e0       	ldi	r24, 0x00	; 0
    58b4:	0e 94 dc 06 	call	0xdb8	; 0xdb8 <AutoCheck>
	  }
	 #endif
	 #ifdef WITH_MENU
	  AutoCheck(0x00);			//check, if selftest should be done, only calibration
    58b8:	0e 94 7b 02 	call	0x4f6	; 0x4f6 <lcd_clear_line2>
	 #else
	  AutoCheck(0x01);			//check, if selftest should be done, full selftest without MENU
	 #endif
	#endif
	#if FLASHEND > 0x1fff
          lcd_clear_line2();			//LCD position row2, column 1
    58bc:	84 eb       	ldi	r24, 0xB4	; 180
    58be:	92 e0       	ldi	r25, 0x02	; 2
        #else
          lcd_line2();				//LCD position row2, column 1
        #endif
	  lcd_MEM_string(TestRunning);		//String: testing...
    58c0:	0e 94 d1 01 	call	0x3a2	; 0x3a2 <lcd_fix_string>
    58c4:	42 e0       	ldi	r20, 0x02	; 2
    58c6:	61 e0       	ldi	r22, 0x01	; 1
	    uart_newline();			 // MAURO Added
	 #endif
//
	  // check all 6 combinations for the 3 pins 
	//         High  Low  Tri
	  CheckPins(TP1, TP2, TP3);
    58c8:	80 e0       	ldi	r24, 0x00	; 0
    58ca:	0e 94 6e 0b 	call	0x16dc	; 0x16dc <CheckPins>
    58ce:	42 e0       	ldi	r20, 0x02	; 2
    58d0:	60 e0       	ldi	r22, 0x00	; 0
	  CheckPins(TP2, TP1, TP3);
    58d2:	81 e0       	ldi	r24, 0x01	; 1
    58d4:	0e 94 6e 0b 	call	0x16dc	; 0x16dc <CheckPins>
    58d8:	41 e0       	ldi	r20, 0x01	; 1
    58da:	62 e0       	ldi	r22, 0x02	; 2

	  CheckPins(TP1, TP3, TP2);
    58dc:	80 e0       	ldi	r24, 0x00	; 0
    58de:	0e 94 6e 0b 	call	0x16dc	; 0x16dc <CheckPins>
    58e2:	41 e0       	ldi	r20, 0x01	; 1
    58e4:	60 e0       	ldi	r22, 0x00	; 0
	  CheckPins(TP3, TP1, TP2);
    58e6:	82 e0       	ldi	r24, 0x02	; 2
    58e8:	0e 94 6e 0b 	call	0x16dc	; 0x16dc <CheckPins>
    58ec:	40 e0       	ldi	r20, 0x00	; 0
    58ee:	62 e0       	ldi	r22, 0x02	; 2

	  CheckPins(TP2, TP3, TP1);
    58f0:	81 e0       	ldi	r24, 0x01	; 1
    58f2:	0e 94 6e 0b 	call	0x16dc	; 0x16dc <CheckPins>
    58f6:	40 e0       	ldi	r20, 0x00	; 0
    58f8:	61 e0       	ldi	r22, 0x01	; 1
	  CheckPins(TP3, TP2, TP1);
    58fa:	82 e0       	ldi	r24, 0x02	; 2
    58fc:	0e 94 6e 0b 	call	0x16dc	; 0x16dc <CheckPins>
    5900:	80 91 1a 01 	lds	r24, 0x011A

	  // Capacity measurement is only possible correctly with two Pins connected.
	  // A third connected pin will increase the capacity value!
	//  if(((PartFound == PART_NONE) || (PartFound == PART_RESISTOR) || (PartFound == PART_DIODE)) ) {
	  if(PartFound == PART_NONE) {
    5904:	81 11       	cpse	r24, r1
    5906:	0e c0       	rjmp	.+28     	; 0x5924 <main+0x22a>
    5908:	0e 94 76 14 	call	0x28ec	; 0x28ec <EntladePins>
	     // If no part is found yet, check separate if is is a capacitor
#ifdef DebugOut
	     lcd_data('C');
#endif
	     EntladePins();		// discharge capacities
    590c:	60 e0       	ldi	r22, 0x00	; 0
    590e:	82 e0       	ldi	r24, 0x02	; 2
	     //measurement of capacities in all 3 combinations
	     ReadCapacity(TP3, TP1);
    5910:	0e 94 3f 15 	call	0x2a7e	; 0x2a7e <ReadCapacity>
    5914:	61 e0       	ldi	r22, 0x01	; 1
    5916:	82 e0       	ldi	r24, 0x02	; 2
#ifdef DebugOut
	     lcd_data('K');
#endif
	#if DebugOut != 10
	     ReadCapacity(TP3, TP2);
    5918:	0e 94 3f 15 	call	0x2a7e	; 0x2a7e <ReadCapacity>
    591c:	60 e0       	ldi	r22, 0x00	; 0
    591e:	81 e0       	ldi	r24, 0x01	; 1
#ifdef DebugOut
	     lcd_data('K');
#endif
	     ReadCapacity(TP2, TP1);
    5920:	0e 94 3f 15 	call	0x2a7e	; 0x2a7e <ReadCapacity>
    5924:	80 91 1a 01 	lds	r24, 0x011A
	#endif
	  }

#ifdef WITH_UJT
// check for UJT
        if (PartFound==PART_DIODE       
    5928:	83 30       	cpi	r24, 0x03	; 3
    592a:	59 f4       	brne	.+22     	; 0x5942 <main+0x248>
    592c:	80 91 18 01 	lds	r24, 0x0118
            && NumOfDiodes==2                // UJT is detected as 2 diodes E-B1 and E-B2...
    5930:	82 30       	cpi	r24, 0x02	; 2
    5932:	39 f4       	brne	.+14     	; 0x5942 <main+0x248>
    5934:	90 91 89 01 	lds	r25, 0x0189
//            && ResistorsFound==1             // ...and a resistor B1-B2
            && diodes.Anode[0]==diodes.Anode[1]      // check diodes have common anode
    5938:	80 91 8a 01 	lds	r24, 0x018A
    593c:	98 13       	cpse	r25, r24
    593e:	01 c0       	rjmp	.+2      	; 0x5942 <main+0x248>
    5940:	7b d9       	rcall	.-3338   	; 0x4c38 <CheckUJT>
    5942:	0e 94 b2 01 	call	0x364	; 0x364 <lcd_clear>
//            && (unsigned char)(ResistorList[0]+diodes.Anode[0])==2    // and resistor is between cathodes
           ) 
           // note: there also exist CUJTs (complementary UJTs); they seem to be (even) rarer than UJTs, and are not supported for now
           {
            CheckUJT();
    5946:	f0 92 3d 01 	sts	0x013D, r15
	#ifdef DebugOut 
	  // only clear two lines of LCD

	  lcd_clear_line1();
	#else
	  lcd_clear();				// clear total display
    594a:	e0 92 3c 01 	sts	0x013C, r14
	#endif

	  _trans = &ntrans;			// default transistor structure to show
    594e:	80 91 1a 01 	lds	r24, 0x011A
    5952:	86 30       	cpi	r24, 0x06	; 6
	  if (PartFound == PART_THYRISTOR) {
    5954:	41 f4       	brne	.+16     	; 0x5966 <main+0x26c>
    5956:	8b e8       	ldi	r24, 0x8B	; 139
    5958:	92 e0       	ldi	r25, 0x02	; 2
    595a:	0e 94 d1 01 	call	0x3a2	; 0x3a2 <lcd_fix_string>
            lcd_big_icon(THYRISTOR|LCD_UPPER_LEFT);
            lcd_draw_trans_pins(-8, 16);
            lcd_set_cursor(0,TEXT_RIGHT_TO_ICON);		// position behind the icon, Line 1
	    lcd_MEM_string(Thyristor);		//"Thyristor"
#else
	    lcd_MEM_string(Thyristor);		//"Thyristor"
    595e:	41 e4       	ldi	r20, 0x41	; 65
    5960:	67 e4       	ldi	r22, 0x47	; 71
    5962:	83 e4       	ldi	r24, 0x43	; 67
            PinLayout(Cathode_char,'G','A'); 	// CGA= or 123=...
    5964:	19 c0       	rjmp	.+50     	; 0x5998 <main+0x29e>
    5966:	87 30       	cpi	r24, 0x07	; 7
    5968:	41 f4       	brne	.+16     	; 0x597a <main+0x280>
    596a:	84 e9       	ldi	r24, 0x94	; 148
#endif
            goto TyUfAusgabe;
          }

  if (PartFound == PART_TRIAC) {
    596c:	92 e0       	ldi	r25, 0x02	; 2
    596e:	0e 94 d1 01 	call	0x3a2	; 0x3a2 <lcd_fix_string>
    lcd_big_icon(TRIAC|LCD_UPPER_LEFT);
    lcd_draw_trans_pins(-8, 16);
    lcd_set_cursor(0,TEXT_RIGHT_TO_ICON);		// position behind the icon, Line 1
    lcd_MEM_string(Triac);		//"Triac"
#else
    lcd_MEM_string(Triac);		//"Triac"
    5972:	42 e3       	ldi	r20, 0x32	; 50
    5974:	67 e4       	ldi	r22, 0x47	; 71
    5976:	81 e3       	ldi	r24, 0x31	; 49
    PinLayout('1','G','2'); 	// CGA= or 123=...
    5978:	0f c0       	rjmp	.+30     	; 0x5998 <main+0x29e>
    597a:	8a 30       	cpi	r24, 0x0A	; 10
    597c:	f9 f4       	brne	.+62     	; 0x59bc <main+0x2c2>
    597e:	80 e1       	ldi	r24, 0x10	; 16
#endif
    goto TyUfAusgabe;
  }

#ifdef WITH_PUT
   if (PartFound == PART_PUT) {
    5980:	90 e0       	ldi	r25, 0x00	; 0
    5982:	0e 94 d1 01 	call	0x3a2	; 0x3a2 <lcd_fix_string>
      static const unsigned char PUT_str[] MEM_TEXT = "PUT";
      lcd_MEM_string(PUT_str);
    5986:	89 e5       	ldi	r24, 0x59	; 89
    5988:	91 e0       	ldi	r25, 0x01	; 1
    598a:	90 93 3d 01 	sts	0x013D, r25
      _trans=&ptrans;
    598e:	80 93 3c 01 	sts	0x013C, r24
    5992:	43 e4       	ldi	r20, 0x43	; 67
    5994:	67 e4       	ldi	r22, 0x47	; 71
    5996:	81 e4       	ldi	r24, 0x41	; 65
      PinLayout('A','G',Cathode_char);
    5998:	0e 94 c2 02 	call	0x584	; 0x584 <PinLayout>
    599c:	0e 94 8a 01 	call	0x314	; 0x314 <lcd_line2>
    59a0:	89 e7       	ldi	r24, 0x79	; 121
TyUfAusgabe:
#ifdef WITH_THYRISTOR_GATE_V
 #ifdef WITH_GRAPHICS
  lcd_set_cursor(1*PAGES_PER_LINE,TEXT_RIGHT_TO_ICON);		// position behind the icon,line 2
 #else
  lcd_line2(); //2. row 
    59a2:	91 e0       	ldi	r25, 0x01	; 1
    59a4:	0e 94 d1 01 	call	0x3a2	; 0x3a2 <lcd_fix_string>
 #endif
  lcd_MEM_string(Uf_str);		// "Uf="
    59a8:	e0 91 3c 01 	lds	r30, 0x013C
    59ac:	f0 91 3d 01 	lds	r31, 0x013D
 #ifdef WITH_PUT
  Display_mV(_trans->uBE,2);    // needed instead of ntrans for PUT, but costs 4 bytes more flash...
    59b0:	62 e0       	ldi	r22, 0x02	; 2
    59b2:	84 81       	ldd	r24, Z+4	; 0x04
    59b4:	95 81       	ldd	r25, Z+5	; 0x05
    59b6:	0e 94 70 04 	call	0x8e0	; 0x8e0 <Display_mV>
    59ba:	07 c4       	rjmp	.+2062   	; 0x61ca <main+0xad0>
    59bc:	82 30       	cpi	r24, 0x02	; 2
    59be:	09 f0       	breq	.+2      	; 0x59c2 <main+0x2c8>
    59c0:	3f c0       	rjmp	.+126    	; 0x5a40 <main+0x346>
      goto TyUfAusgabe;
   }
#endif

#ifdef WITH_UJT
   if (PartFound == PART_UJT) {
    59c2:	8c e0       	ldi	r24, 0x0C	; 12
    59c4:	90 e0       	ldi	r25, 0x00	; 0
    59c6:	0e 94 d1 01 	call	0x3a2	; 0x3a2 <lcd_fix_string>
      static const unsigned char UJT_str[] MEM_TEXT = "UJT";
      lcd_MEM_string(UJT_str);
    59ca:	42 e3       	ldi	r20, 0x32	; 50
    59cc:	65 e4       	ldi	r22, 0x45	; 69
    59ce:	81 e3       	ldi	r24, 0x31	; 49
      PinLayout('1','E','2');
    59d0:	0e 94 c2 02 	call	0x584	; 0x584 <PinLayout>
    59d4:	80 e0       	ldi	r24, 0x00	; 0
    59d6:	0e 94 54 02 	call	0x4a8	; 0x4a8 <lcd_next_line>
 #ifdef SamplingADC
      static const unsigned char eta_str[] MEM_TEXT = " eta=";
      lcd_next_line(0);
    59da:	60 91 4d 01 	lds	r22, 0x014D
    59de:	80 91 4c 01 	lds	r24, 0x014C
      ResistorChecked[ntrans.e - TP_MIN + ntrans.c - TP_MIN - 1] = 0;	// forget last resistance measurement
    59e2:	e8 2f       	mov	r30, r24
    59e4:	f0 e0       	ldi	r31, 0x00	; 0
    59e6:	e6 0f       	add	r30, r22
    59e8:	f1 1d       	adc	r31, r1
    59ea:	ee 5a       	subi	r30, 0xAE	; 174
    59ec:	fe 4f       	sbci	r31, 0xFE	; 254
    59ee:	10 82       	st	Z, r1
    59f0:	0e 94 5a 12 	call	0x24b4	; 0x24b4 <GetResistance>
    59f4:	80 91 4d 01 	lds	r24, 0x014D
      GetResistance(ntrans.c, ntrans.e);	// resistor value is in ResistorVal[resnum]
    59f8:	e0 91 4c 01 	lds	r30, 0x014C
      DisplayValue(ResistorVal[ntrans.e - TP_MIN + ntrans.c - TP_MIN - 1],-1,LCD_CHAR_OMEGA,2);
    59fc:	f0 e0       	ldi	r31, 0x00	; 0
    59fe:	e8 0f       	add	r30, r24
    5a00:	f1 1d       	adc	r31, r1
    5a02:	ee 0f       	add	r30, r30
    5a04:	ff 1f       	adc	r31, r31
    5a06:	ee 0f       	add	r30, r30
    5a08:	ff 1f       	adc	r31, r31
    5a0a:	e2 56       	subi	r30, 0x62	; 98
    5a0c:	fe 4f       	sbci	r31, 0xFE	; 254
    5a0e:	60 81       	ld	r22, Z
    5a10:	71 81       	ldd	r23, Z+1	; 0x01
    5a12:	82 81       	ldd	r24, Z+2	; 0x02
    5a14:	93 81       	ldd	r25, Z+3	; 0x03
    5a16:	02 e0       	ldi	r16, 0x02	; 2
    5a18:	24 e0       	ldi	r18, 0x04	; 4
    5a1a:	4f ef       	ldi	r20, 0xFF	; 255
    5a1c:	0e 94 76 03 	call	0x6ec	; 0x6ec <DisplayValue>
    5a20:	86 e0       	ldi	r24, 0x06	; 6
    5a22:	90 e0       	ldi	r25, 0x00	; 0
    5a24:	0e 94 d1 01 	call	0x3a2	; 0x3a2 <lcd_fix_string>
      lcd_MEM_string(eta_str);		//"eta="
    5a28:	60 91 49 01 	lds	r22, 0x0149
    5a2c:	70 91 4a 01 	lds	r23, 0x014A
      DisplayValue(ntrans.gthvoltage,0,'%',3);
    5a30:	80 e0       	ldi	r24, 0x00	; 0
    5a32:	90 e0       	ldi	r25, 0x00	; 0
    5a34:	03 e0       	ldi	r16, 0x03	; 3
    5a36:	25 e2       	ldi	r18, 0x25	; 37
    5a38:	40 e0       	ldi	r20, 0x00	; 0
    5a3a:	0e 94 76 03 	call	0x6ec	; 0x6ec <DisplayValue>
    5a3e:	c5 c3       	rjmp	.+1930   	; 0x61ca <main+0xad0>
    5a40:	88 30       	cpi	r24, 0x08	; 8
    5a42:	81 f4       	brne	.+32     	; 0x5a64 <main+0x36a>
      lcd_MEM_string(R12_str);		//"R12="
      DisplayValue(ResistorVal[ntrans.e - TP_MIN + ntrans.c - TP_MIN - 1],-1,LCD_CHAR_OMEGA,2);
      lcd_data(',');
      DisplayValue(((RR680PL * (unsigned long)(ADCconfig.U_AVCC - ntrans.uBE)) / ntrans.uBE)-RRpinPL,-1,LCD_CHAR_OMEGA,3);
 #endif	 /* SamplingADC */
      goto tt_end;
    5a44:	20 91 83 01 	lds	r18, 0x0183
   }
#endif /* WITH_UJT */

  if (PartFound == PART_CAPACITOR) {
    5a48:	80 91 84 01 	lds	r24, 0x0184
#if FLASHEND > 0x3fff
     if ((cap.ca + cap.cb) == (TP1 + TP3)) {
    5a4c:	90 e0       	ldi	r25, 0x00	; 0
    5a4e:	82 0f       	add	r24, r18
    5a50:	91 1d       	adc	r25, r1
    5a52:	02 97       	sbiw	r24, 0x02	; 2
    5a54:	19 f4       	brne	.+6      	; 0x5a5c <main+0x362>
    5a56:	0e 94 fc 1a 	call	0x35f8	; 0x35f8 <show_Cap13>
    5a5a:	c9 c3       	rjmp	.+1938   	; 0x61ee <main+0xaf4>
        show_Cap13();		// repeated capacity measurement
    5a5c:	80 e0       	ldi	r24, 0x00	; 0
    5a5e:	0e 94 12 1a 	call	0x3424	; 0x3424 <show_cap>
        goto shut_off;		// key was pressed or timeout
     }
     show_cap(0);		// show capacity in normal way and measure additional parameters
    5a62:	b3 c3       	rjmp	.+1894   	; 0x61ca <main+0xad0>
    5a64:	83 30       	cpi	r24, 0x03	; 3
    5a66:	09 f0       	breq	.+2      	; 0x5a6a <main+0x370>
#else
     show_cap_simple();		// show capacity in normal way and measure additional parameters
#endif
     goto tt_end;
    5a68:	c9 c0       	rjmp	.+402    	; 0x5bfc <main+0x502>
      goto tt_end;
  }
#endif

  // ========================================
  if(PartFound == PART_DIODE) {
    5a6a:	80 91 18 01 	lds	r24, 0x0118
    5a6e:	81 30       	cpi	r24, 0x01	; 1
  // ========================================
     if(NumOfDiodes == 1) {		//single Diode
    5a70:	09 f0       	breq	.+2      	; 0x5a74 <main+0x37a>
    5a72:	44 c0       	rjmp	.+136    	; 0x5afc <main+0x402>
    5a74:	80 e0       	ldi	r24, 0x00	; 0
    5a76:	0e 94 4e 03 	call	0x69c	; 0x69c <DiodeSymbol_withPins>
//        lcd_MEM_string(Diode);		//"Diode: "
#if FLASHEND > 0x1fff
        // enough memory (>8k) to sort the pins and additional Ir=
        DiodeSymbol_withPins(0);
    5a7a:	60 91 89 01 	lds	r22, 0x0189
    5a7e:	80 91 8f 01 	lds	r24, 0x018F
	GetIr(diodes.Cathode[0],diodes.Anode[0]);	// measure and output Ir=x.xuA
    5a82:	0e 94 b9 0a 	call	0x1572	; 0x1572 <GetIr>
    5a86:	80 e7       	ldi	r24, 0x70	; 112
    5a88:	0e 94 27 03 	call	0x64e	; 0x64e <UfAusgabe>
#else
        // too less memory to sort the pins
        DiodeSymbol_withPins(0);
#endif
        UfAusgabe(0x70);		// mark for additional resistor and output Uf= in line 2
    5a8c:	40 e0       	ldi	r20, 0x00	; 0
    5a8e:	60 91 89 01 	lds	r22, 0x0189
           DisplayValue(cap.cval,cap.cpre,'F',2);
 #endif
        }
#else  // SamplingADC
showdiodecap:
        cap.cval=sampling_cap(diodes.Cathode[0],diodes.Anode[0],0);   // at low voltage
    5a92:	80 91 8f 01 	lds	r24, 0x018F
    5a96:	ec d9       	rcall	.-3112   	; 0x4e70 <sampling_cap>
    5a98:	60 93 73 01 	sts	0x0173, r22
    5a9c:	70 93 74 01 	sts	0x0174, r23
    5aa0:	80 93 75 01 	sts	0x0175, r24
    5aa4:	90 93 76 01 	sts	0x0176, r25
    5aa8:	80 e0       	ldi	r24, 0x00	; 0
    5aaa:	0e 94 74 02 	call	0x4e8	; 0x4e8 <lcd_next_line_wait>
    5aae:	60 91 73 01 	lds	r22, 0x0173
        lcd_next_line_wait(0);		// next line, wait 5s and clear line 2
    5ab2:	70 91 74 01 	lds	r23, 0x0174
        DisplayValue(cap.cval,sampling_cap_pre,'F',2);
    5ab6:	80 91 75 01 	lds	r24, 0x0175
    5aba:	90 91 76 01 	lds	r25, 0x0176
    5abe:	02 e0       	ldi	r16, 0x02	; 2
    5ac0:	26 e4       	ldi	r18, 0x46	; 70
    5ac2:	42 ef       	ldi	r20, 0xF2	; 242
    5ac4:	0e 94 76 03 	call	0x6ec	; 0x6ec <DisplayValue>
    5ac8:	8d e2       	ldi	r24, 0x2D	; 45
    5aca:	0e 94 59 01 	call	0x2b2	; 0x2b2 <lcd_data>
    5ace:	41 e0       	ldi	r20, 0x01	; 1
 #ifdef PULLUP_DISABLE
        lcd_data('-');
    5ad0:	60 91 89 01 	lds	r22, 0x0189
    5ad4:	80 91 8f 01 	lds	r24, 0x018F
        cap.cval=sampling_cap(diodes.Cathode[0],diodes.Anode[0],1);   // at high voltage
    5ad8:	cb d9       	rcall	.-3178   	; 0x4e70 <sampling_cap>
    5ada:	60 93 73 01 	sts	0x0173, r22
    5ade:	70 93 74 01 	sts	0x0174, r23
    5ae2:	80 93 75 01 	sts	0x0175, r24
    5ae6:	90 93 76 01 	sts	0x0176, r25
    5aea:	26 e4       	ldi	r18, 0x46	; 70
    5aec:	42 ef       	ldi	r20, 0xF2	; 242
    5aee:	0e 94 76 03 	call	0x6ec	; 0x6ec <DisplayValue>
    5af2:	8b e3       	ldi	r24, 0x3B	; 59
        if (cap.cval < 0) cap.cval = 0;		// don't show negativ value
        DisplayValue(cap.cval,sampling_cap_pre,'F',2);
    5af4:	91 e0       	ldi	r25, 0x01	; 1
    5af6:	0e 94 d1 01 	call	0x3a2	; 0x3a2 <lcd_fix_string>
    5afa:	b5 c2       	rjmp	.+1386   	; 0x6066 <main+0x96c>
  #if LCD_LINE_LENGTH > 16
        lcd_MEM_string(AT05volt);	// " @0-5V"
  #else
        lcd_MEM_string(AT05volt+1);	// "@0-5V"
    5afc:	82 30       	cpi	r24, 0x02	; 2
    5afe:	69 f5       	brne	.+90     	; 0x5b5a <main+0x460>
    5b00:	82 e3       	ldi	r24, 0x32	; 50
    5b02:	0e 94 59 01 	call	0x2b2	; 0x2b2 <lcd_data>
 #else
  #warning Capacity measurement from high to low not possible for diodes without PULLUP_DISABLE option!
 #endif  /* PULLUP_DISABLE */
#endif
        goto end3;
     } else if(NumOfDiodes == 2) { // double diode
    5b06:	8b e2       	ldi	r24, 0x2B	; 43
    5b08:	91 e0       	ldi	r25, 0x01	; 1
        lcd_data('2');
    5b0a:	0e 94 d1 01 	call	0x3a2	; 0x3a2 <lcd_fix_string>
    5b0e:	80 91 89 01 	lds	r24, 0x0189
        lcd_MEM_string(Dioden);		//"diodes "
    5b12:	20 91 8a 01 	lds	r18, 0x018A
    5b16:	82 13       	cpse	r24, r18
        if(diodes.Anode[0] == diodes.Anode[1]) { //Common Anode
    5b18:	07 c0       	rjmp	.+14     	; 0x5b28 <main+0x42e>
    5b1a:	80 e0       	ldi	r24, 0x00	; 0
    5b1c:	0e 94 68 03 	call	0x6d0	; 0x6d0 <DiodeSymbol_CpinApin>
    5b20:	81 e0       	ldi	r24, 0x01	; 1
    5b22:	0e 94 60 03 	call	0x6c0	; 0x6c0 <DiodeSymbol_ACpin>
           DiodeSymbol_CpinApin(0);	// 1-|<-2
    5b26:	0c c0       	rjmp	.+24     	; 0x5b40 <main+0x446>
    5b28:	30 91 8f 01 	lds	r19, 0x018F
           DiodeSymbol_ACpin(1);	//  ->|-3
    5b2c:	90 91 90 01 	lds	r25, 0x0190
    5b30:	39 13       	cpse	r19, r25
           goto showdiodecap;   // double diodes are often varicap; measure capacitance of one of them
#else
           goto end3;
#endif
        } 
        if(diodes.Cathode[0] == diodes.Cathode[1]) { //Common Cathode
    5b32:	08 c0       	rjmp	.+16     	; 0x5b44 <main+0x44a>
    5b34:	80 e0       	ldi	r24, 0x00	; 0
    5b36:	0e 94 5a 03 	call	0x6b4	; 0x6b4 <DiodeSymbol_ApinCpin>
    5b3a:	81 e0       	ldi	r24, 0x01	; 1
    5b3c:	0e 94 6e 03 	call	0x6dc	; 0x6dc <DiodeSymbol_CApin>
           DiodeSymbol_ApinCpin(0);	// 1->|-2
    5b40:	81 e0       	ldi	r24, 0x01	; 1
    5b42:	a2 cf       	rjmp	.-188    	; 0x5a88 <main+0x38e>
           DiodeSymbol_CApin(1);	//  -|<-3
    5b44:	32 13       	cpse	r19, r18
    5b46:	04 c0       	rjmp	.+8      	; 0x5b50 <main+0x456>
    5b48:	81 e0       	ldi	r24, 0x01	; 1
           UfAusgabe(0x01);
    5b4a:	80 93 0d 01 	sts	0x010D, r24
#else
           goto end3;
#endif
//        else if ((diodes.Cathode[0] == diodes.Anode[1]) && (diodes.Cathode[1] == diodes.Anode[0])) 
        } 
        if (diodes.Cathode[0] == diodes.Anode[1]) {
    5b4e:	3a c0       	rjmp	.+116    	; 0x5bc4 <main+0x4ca>
    5b50:	98 13       	cpse	r25, r24
           // normaly two serial diodes are detected as three diodes, but if the threshold is high
           // for both diodes, the third diode is not detected.
           // can also be Antiparallel
           diode_sequence = 0x01;	// 0 1
    5b52:	3b c0       	rjmp	.+118    	; 0x5bca <main+0x4d0>
    5b54:	d0 92 0d 01 	sts	0x010D, r13
    5b58:	35 c0       	rjmp	.+106    	; 0x5bc4 <main+0x4ca>
           SerienDiodenAusgabe();
           goto end3;
        } 
        if (diodes.Cathode[1] == diodes.Anode[0]) {
    5b5a:	83 30       	cpi	r24, 0x03	; 3
    5b5c:	b1 f5       	brne	.+108    	; 0x5bca <main+0x4d0>
           diode_sequence = 0x10;	// 1 0
    5b5e:	90 92 0d 01 	sts	0x010D, r9
    5b62:	80 91 8f 01 	lds	r24, 0x018F
           SerienDiodenAusgabe();
           goto end3;
        }
     } else if(NumOfDiodes == 3) {
    5b66:	90 91 8a 01 	lds	r25, 0x018A
        //Serial of 2 Diodes; was detected as 3 Diodes 
        diode_sequence = 0x33;	// 3 3
    5b6a:	89 13       	cpse	r24, r25
        /* Check for any constellation of 2 serial diodes:
          Only once the pin No of anyone Cathode is identical of another anode.
          two diodes in series is additionally detected as third big diode.
        */
			if (diodes.Cathode[0] == diodes.Anode[1]) {
    5b6c:	03 c0       	rjmp	.+6      	; 0x5b74 <main+0x47a>
    5b6e:	21 e0       	ldi	r18, 0x01	; 1
    5b70:	20 93 0d 01 	sts	0x010D, r18
    5b74:	40 91 89 01 	lds	r20, 0x0189
           diode_sequence = 0x01;	// 0 1
    5b78:	30 91 90 01 	lds	r19, 0x0190
    5b7c:	43 13       	cpse	r20, r19
          }
			if (diodes.Anode[0] == diodes.Cathode[1]) {
    5b7e:	02 c0       	rjmp	.+4      	; 0x5b84 <main+0x48a>
    5b80:	d0 92 0d 01 	sts	0x010D, r13
    5b84:	20 91 8b 01 	lds	r18, 0x018B
    5b88:	82 13       	cpse	r24, r18
           diode_sequence = 0x10;	// 1 0
    5b8a:	03 c0       	rjmp	.+6      	; 0x5b92 <main+0x498>
    5b8c:	82 e0       	ldi	r24, 0x02	; 2
          }
			if (diodes.Cathode[0] == diodes.Anode[2]) {
    5b8e:	80 93 0d 01 	sts	0x010D, r24
    5b92:	80 91 91 01 	lds	r24, 0x0191
           diode_sequence = 0x02;	// 0 2
    5b96:	48 13       	cpse	r20, r24
    5b98:	02 c0       	rjmp	.+4      	; 0x5b9e <main+0x4a4>
    5b9a:	a0 92 0d 01 	sts	0x010D, r10
          }
			if (diodes.Anode[0] == diodes.Cathode[2]) {
    5b9e:	32 13       	cpse	r19, r18
    5ba0:	02 c0       	rjmp	.+4      	; 0x5ba6 <main+0x4ac>
    5ba2:	b0 92 0d 01 	sts	0x010D, r11
           diode_sequence = 0x20;	// 2 0
    5ba6:	98 13       	cpse	r25, r24
          }
			if (diodes.Cathode[1] == diodes.Anode[2]) {
    5ba8:	02 c0       	rjmp	.+4      	; 0x5bae <main+0x4b4>
    5baa:	c0 92 0d 01 	sts	0x010D, r12
           diode_sequence = 0x12;	// 1 2
    5bae:	80 91 0d 01 	lds	r24, 0x010D
          }
			if (diodes.Anode[1] == diodes.Cathode[2]) {
    5bb2:	82 32       	cpi	r24, 0x22	; 34
           diode_sequence = 0x21;	// 2 1
    5bb4:	50 f4       	brcc	.+20     	; 0x5bca <main+0x4d0>
    5bb6:	83 e3       	ldi	r24, 0x33	; 51
          }
//        if((ptrans.b<3) && (ptrans.c<3)) 
        if(diode_sequence < 0x22) {
    5bb8:	0e 94 59 01 	call	0x2b2	; 0x2b2 <lcd_data>
    5bbc:	8b e2       	ldi	r24, 0x2B	; 43
    5bbe:	91 e0       	ldi	r25, 0x01	; 1
           lcd_data('3');
    5bc0:	0e 94 d1 01 	call	0x3a2	; 0x3a2 <lcd_fix_string>
    5bc4:	0e 94 3d 03 	call	0x67a	; 0x67a <SerienDiodenAusgabe>
           lcd_MEM_string(Dioden);	//"Diodes "
    5bc8:	4e c2       	rjmp	.+1180   	; 0x6066 <main+0x96c>
    5bca:	8a e9       	ldi	r24, 0x9A	; 154
    5bcc:	92 e0       	ldi	r25, 0x02	; 2
           SerienDiodenAusgabe();
    5bce:	0e 94 d1 01 	call	0x3a2	; 0x3a2 <lcd_fix_string>
           goto end3;
    5bd2:	82 e8       	ldi	r24, 0x82	; 130
        }
     }  // end (NumOfDiodes == 3)
     lcd_MEM_string(Bauteil);		//"Bauteil"
    5bd4:	92 e0       	ldi	r25, 0x02	; 2
    5bd6:	0e 94 d1 01 	call	0x3a2	; 0x3a2 <lcd_fix_string>
    5bda:	0e 94 8a 01 	call	0x314	; 0x314 <lcd_line2>
     lcd_MEM_string(Unknown); 		//" unbek."
    5bde:	80 91 18 01 	lds	r24, 0x0118
    5be2:	80 5d       	subi	r24, 0xD0	; 208
     lcd_line2(); //2. row 
    5be4:	0e 94 59 01 	call	0x2b2	; 0x2b2 <lcd_data>
     lcd_data(NumOfDiodes + '0');
    5be8:	8a e2       	ldi	r24, 0x2A	; 42
    5bea:	0e 94 59 01 	call	0x2b2	; 0x2b2 <lcd_data>
    5bee:	85 e4       	ldi	r24, 0x45	; 69
    5bf0:	91 e0       	ldi	r25, 0x01	; 1
     lcd_data('*');
    5bf2:	0e 94 d1 01 	call	0x3a2	; 0x3a2 <lcd_fix_string>
    5bf6:	88 e6       	ldi	r24, 0x68	; 104
     lcd_MEM_string(AnKat_str);		//"->|-"
    5bf8:	92 e0       	ldi	r25, 0x02	; 2
    5bfa:	e2 c2       	rjmp	.+1476   	; 0x61c0 <main+0xac6>
    5bfc:	84 30       	cpi	r24, 0x04	; 4
    5bfe:	09 f0       	breq	.+2      	; 0x5c02 <main+0x508>
     lcd_MEM_string(Detected);		//" detected"
    5c00:	4c c1       	rjmp	.+664    	; 0x5e9a <main+0x7a0>
    5c02:	80 91 68 01 	lds	r24, 0x0168
     goto not_known;
     // end (PartFound == PART_DIODE)
  // ========================================
  } else if (PartFound == PART_TRANSISTOR) {
    5c06:	88 23       	and	r24, r24
    5c08:	09 f4       	brne	.+2      	; 0x5c0c <main+0x512>
    5c0a:	5e c0       	rjmp	.+188    	; 0x5cc8 <main+0x5ce>
  // ========================================
#ifdef SEARCH_PARASITIC
    if ((ptrans.count != 0) && (ntrans.count !=0)) {
    5c0c:	80 91 4e 01 	lds	r24, 0x014E
    5c10:	88 23       	and	r24, r24
    5c12:	09 f4       	brne	.+2      	; 0x5c16 <main+0x51c>
    5c14:	59 c0       	rjmp	.+178    	; 0x5cc8 <main+0x5ce>
    5c16:	60 91 4b 01 	lds	r22, 0x014B
    5c1a:	80 91 4d 01 	lds	r24, 0x014D
    5c1e:	0e 94 3f 15 	call	0x2a7e	; 0x2a7e <ReadCapacity>
       // Special Handling of NPNp and PNPn Transistor.
       // If a protection diode is built on the same structur as the NPN-Transistor,
       // a parasitic PNP-Transistor will be detected. 
       ReadCapacity(ntrans.e, ntrans.b);	// read capacity of NPN base-emitter
    5c22:	20 90 73 01 	lds	r2, 0x0173
    5c26:	30 90 74 01 	lds	r3, 0x0174
    5c2a:	40 90 75 01 	lds	r4, 0x0175
       n_cval = cap.cval;			// save the found capacity value
    5c2e:	50 90 76 01 	lds	r5, 0x0176
    5c32:	00 91 85 01 	lds	r16, 0x0185
    5c36:	60 91 67 01 	lds	r22, 0x0167
    5c3a:	80 91 65 01 	lds	r24, 0x0165
       n_cpre  = cap.cpre;			// and dimension
    5c3e:	0e 94 3f 15 	call	0x2a7e	; 0x2a7e <ReadCapacity>
       ReadCapacity(ptrans.b, ptrans.e);	// read capacity of PNP base-emitter
    5c42:	80 91 3f 01 	lds	r24, 0x013F
    5c46:	90 91 40 01 	lds	r25, 0x0140
    5c4a:	a0 91 41 01 	lds	r26, 0x0141
       // check if one hfe is very low. If yes, simulate a very low BE capacity
       if ((ntrans.hfe < 500) && (ptrans.hfe >= 500)) n_cpre = -16; // set NPN BE capacity to low value
    5c4e:	b0 91 42 01 	lds	r27, 0x0142
    5c52:	40 91 59 01 	lds	r20, 0x0159
    5c56:	50 91 5a 01 	lds	r21, 0x015A
    5c5a:	60 91 5b 01 	lds	r22, 0x015B
    5c5e:	70 91 5c 01 	lds	r23, 0x015C
    5c62:	84 3f       	cpi	r24, 0xF4	; 244
    5c64:	e1 e0       	ldi	r30, 0x01	; 1
    5c66:	9e 07       	cpc	r25, r30
    5c68:	a1 05       	cpc	r26, r1
    5c6a:	b1 05       	cpc	r27, r1
    5c6c:	38 f4       	brcc	.+14     	; 0x5c7c <main+0x582>
    5c6e:	44 3f       	cpi	r20, 0xF4	; 244
    5c70:	f1 e0       	ldi	r31, 0x01	; 1
    5c72:	5f 07       	cpc	r21, r31
    5c74:	61 05       	cpc	r22, r1
    5c76:	71 05       	cpc	r23, r1
    5c78:	08 f0       	brcs	.+2      	; 0x5c7c <main+0x582>
    5c7a:	00 ef       	ldi	r16, 0xF0	; 240
    5c7c:	44 3f       	cpi	r20, 0xF4	; 244
    5c7e:	51 40       	sbci	r21, 0x01	; 1
    5c80:	61 05       	cpc	r22, r1
    5c82:	71 05       	cpc	r23, r1
    5c84:	38 f4       	brcc	.+14     	; 0x5c94 <main+0x59a>
       if ((ptrans.hfe < 500) && (ntrans.hfe >= 500)) cap.cpre = -16; // set PNP BE capacity to low value
    5c86:	84 3f       	cpi	r24, 0xF4	; 244
    5c88:	91 40       	sbci	r25, 0x01	; 1
    5c8a:	a1 05       	cpc	r26, r1
    5c8c:	b1 05       	cpc	r27, r1
    5c8e:	10 f0       	brcs	.+4      	; 0x5c94 <main+0x59a>
    5c90:	70 92 85 01 	sts	0x0185, r7
    5c94:	80 91 85 01 	lds	r24, 0x0185
    5c98:	08 13       	cpse	r16, r24
    5c9a:	0e c0       	rjmp	.+28     	; 0x5cb8 <main+0x5be>
    5c9c:	80 91 73 01 	lds	r24, 0x0173

       if (((n_cpre == cap.cpre) && (cap.cval > n_cval))
    5ca0:	90 91 74 01 	lds	r25, 0x0174
    5ca4:	a0 91 75 01 	lds	r26, 0x0175
    5ca8:	b0 91 76 01 	lds	r27, 0x0176
    5cac:	28 16       	cp	r2, r24
    5cae:	39 06       	cpc	r3, r25
    5cb0:	4a 06       	cpc	r4, r26
    5cb2:	5b 06       	cpc	r5, r27
    5cb4:	18 f0       	brcs	.+6      	; 0x5cbc <main+0x5c2>
    5cb6:	05 c0       	rjmp	.+10     	; 0x5cc2 <main+0x5c8>
    5cb8:	08 17       	cp	r16, r24
    5cba:	1c f4       	brge	.+6      	; 0x5cc2 <main+0x5c8>
    5cbc:	80 92 19 01 	sts	0x0119, r8
    5cc0:	03 c0       	rjmp	.+6      	; 0x5cc8 <main+0x5ce>
					|| (cap.cpre > n_cpre)) {
    5cc2:	8c e0       	ldi	r24, 0x0C	; 12
    5cc4:	80 93 19 01 	sts	0x0119, r24
          // the capacity value or dimension of the PNP B-E is greater than the NPN B-E
          PartMode = PART_MODE_PNP;
    5cc8:	80 91 68 01 	lds	r24, 0x0168
       } else {
          PartMode = PART_MODE_NPN;
    5ccc:	88 23       	and	r24, r24
    5cce:	61 f0       	breq	.+24     	; 0x5ce8 <main+0x5ee>
    5cd0:	80 91 4e 01 	lds	r24, 0x014E
       }
    }  /* end ((ptrans.count != 0) && (ntrans.count !=0)) */
#endif
    // not possible for mega8, change Pin sequence instead.
		if ((ptrans.count != 0) && (ntrans.count != 0)
    5cd4:	88 23       	and	r24, r24
    5cd6:	41 f0       	breq	.+16     	; 0x5ce8 <main+0x5ee>
    5cd8:	4f 99       	sbic	0x09, 7	; 9
    5cda:	06 c0       	rjmp	.+12     	; 0x5ce8 <main+0x5ee>
    5cdc:	80 91 19 01 	lds	r24, 0x0119
    5ce0:	91 e0       	ldi	r25, 0x01	; 1
				&& (!(RST_PIN_REG & (1 << RST_PIN)))) {
    5ce2:	89 27       	eor	r24, r25
    5ce4:	80 93 19 01 	sts	0x0119, r24
          PartMode = PART_MODE_PNP;	// switch to parasitic transistor
       } else {
          PartMode = PART_MODE_NPN;	// switch to parasitic transistor
       }
#else
       PartMode ^= (PART_MODE_PNP - PART_MODE_NPN);
    5ce8:	80 91 19 01 	lds	r24, 0x0119
    5cec:	8c 30       	cpi	r24, 0x0C	; 12
    5cee:	51 f4       	brne	.+20     	; 0x5d04 <main+0x60a>
    5cf0:	8c e8       	ldi	r24, 0x8C	; 140
       if (ntrans.count != 0) {
          lcd_data('n');		// mark for parasitic NPn
       }
    }
#else 	/* only character display */
    if(PartMode == PART_MODE_NPN) {
    5cf2:	91 e0       	ldi	r25, 0x01	; 1
    5cf4:	0e 94 d1 01 	call	0x3a2	; 0x3a2 <lcd_fix_string>
    5cf8:	80 91 68 01 	lds	r24, 0x0168
//       _trans = &ntrans;  is allready selected a default
       lcd_MEM_string(NPN_str);		//"NPN "
    5cfc:	88 23       	and	r24, r24
    5cfe:	99 f0       	breq	.+38     	; 0x5d26 <main+0x62c>
    5d00:	80 e7       	ldi	r24, 0x70	; 112
       if (ptrans.count != 0) {
    5d02:	0f c0       	rjmp	.+30     	; 0x5d22 <main+0x628>
    5d04:	89 e5       	ldi	r24, 0x59	; 89
    5d06:	91 e0       	ldi	r25, 0x01	; 1
    5d08:	90 93 3d 01 	sts	0x013D, r25
          lcd_data('p');		// mark for parasitic PNp
    5d0c:	80 93 3c 01 	sts	0x013C, r24
       }
    } else {
       _trans = &ptrans;		// change transistor structure
    5d10:	88 e8       	ldi	r24, 0x88	; 136
    5d12:	91 e0       	ldi	r25, 0x01	; 1
    5d14:	0e 94 d1 01 	call	0x3a2	; 0x3a2 <lcd_fix_string>
    5d18:	80 91 4e 01 	lds	r24, 0x014E
       lcd_MEM_string(PNP_str);		//"PNP "
    5d1c:	88 23       	and	r24, r24
    5d1e:	19 f0       	breq	.+6      	; 0x5d26 <main+0x62c>
    5d20:	8e e6       	ldi	r24, 0x6E	; 110
       if (ntrans.count != 0) {
    5d22:	0e 94 59 01 	call	0x2b2	; 0x2b2 <lcd_data>
    5d26:	0e 94 67 01 	call	0x2ce	; 0x2ce <lcd_space>
          lcd_data('n');		// mark for parasitic NPn
    5d2a:	0e 94 30 06 	call	0xc60	; 0xc60 <search_vak_diode>
    5d2e:	58 2e       	mov	r5, r24
       }
    }
    lcd_space();
    5d30:	94 e0       	ldi	r25, 0x04	; 4
    5d32:	98 17       	cp	r25, r24
#endif

    // show the protection diode of the BJT
    vak_diode_nr = search_vak_diode();
    5d34:	c0 f0       	brcs	.+48     	; 0x5d66 <main+0x66c>
    5d36:	80 91 19 01 	lds	r24, 0x0119
    if (vak_diode_nr < 5) {
    5d3a:	8c 30       	cpi	r24, 0x0C	; 12
    5d3c:	39 f4       	brne	.+14     	; 0x5d4c <main+0x652>
    5d3e:	90 91 4c 01 	lds	r25, 0x014C
       an_cat = (PartMode == PART_MODE_NPN);
  #endif
 #else
       // Layout with 123= style
       an_cat = (((PartMode == PART_MODE_NPN) && (ntrans.c > ntrans.e))
		|| ((PartMode != PART_MODE_NPN) && (ptrans.c < ptrans.e)));
    5d42:	80 91 4d 01 	lds	r24, 0x014D
    5d46:	89 17       	cp	r24, r25
       // Layout with EBC= style
       an_cat = (PartMode == PART_MODE_NPN);
  #endif
 #else
       // Layout with 123= style
       an_cat = (((PartMode == PART_MODE_NPN) && (ntrans.c > ntrans.e))
    5d48:	38 f0       	brcs	.+14     	; 0x5d58 <main+0x65e>
    5d4a:	09 c0       	rjmp	.+18     	; 0x5d5e <main+0x664>
    5d4c:	90 91 66 01 	lds	r25, 0x0166
    5d50:	80 91 67 01 	lds	r24, 0x0167
    5d54:	98 17       	cp	r25, r24
		|| ((PartMode != PART_MODE_NPN) && (ptrans.c < ptrans.e)));
    5d56:	18 f4       	brcc	.+6      	; 0x5d5e <main+0x664>
    5d58:	85 e4       	ldi	r24, 0x45	; 69
    5d5a:	91 e0       	ldi	r25, 0x01	; 1
    5d5c:	02 c0       	rjmp	.+4      	; 0x5d62 <main+0x668>
    5d5e:	81 e4       	ldi	r24, 0x41	; 65
    5d60:	91 e0       	ldi	r25, 0x01	; 1
 #endif
       if (an_cat) {
          lcd_MEM_string(AnKat_str);	//"->|-"
    5d62:	0e 94 d1 01 	call	0x3a2	; 0x3a2 <lcd_fix_string>
    5d66:	43 e4       	ldi	r20, 0x43	; 67
       } else {
          lcd_MEM_string(KatAn_str);	//"-|<-"
    5d68:	62 e4       	ldi	r22, 0x42	; 66
    5d6a:	85 e4       	ldi	r24, 0x45	; 69
    5d6c:	0e 94 c2 02 	call	0x584	; 0x584 <PinLayout>
       lcd_MEM2_string(ICEs_str);		// "ICEs="
       DisplayValue16(_trans->ices,-6,'A',2);	// display ICEs
    }
 #endif
#else		/* character display */
    PinLayout('E','B','C'); 		//  EBC= or 123=...
    5d70:	0e 94 8a 01 	call	0x314	; 0x314 <lcd_line2>
    5d74:	86 e9       	ldi	r24, 0x96	; 150
    5d76:	91 e0       	ldi	r25, 0x01	; 1
    5d78:	0e 94 d1 01 	call	0x3a2	; 0x3a2 <lcd_fix_string>
    lcd_line2(); //2. row 
    5d7c:	e0 91 3c 01 	lds	r30, 0x013C
    lcd_MEM_string(hfe_str);		//"B="  (hFE)
    5d80:	f0 91 3d 01 	lds	r31, 0x013D
    5d84:	60 81       	ld	r22, Z
    DisplayValue(_trans->hfe,-2,0,3);
    5d86:	71 81       	ldd	r23, Z+1	; 0x01
    5d88:	82 81       	ldd	r24, Z+2	; 0x02
    5d8a:	93 81       	ldd	r25, Z+3	; 0x03
    5d8c:	03 e0       	ldi	r16, 0x03	; 3
    5d8e:	20 e0       	ldi	r18, 0x00	; 0
    5d90:	4e ef       	ldi	r20, 0xFE	; 254
    5d92:	0e 94 76 03 	call	0x6ec	; 0x6ec <DisplayValue>
    5d96:	0e 94 67 01 	call	0x2ce	; 0x2ce <lcd_space>
    5d9a:	89 e4       	ldi	r24, 0x49	; 73
    5d9c:	0e 94 59 01 	call	0x2b2	; 0x2b2 <lcd_data>
 #if FLASHEND > 0x1fff
    lcd_space();
    5da0:	e0 91 3c 01 	lds	r30, 0x013C

    lcd_data('I');
    5da4:	f0 91 3d 01 	lds	r31, 0x013D
    5da8:	86 81       	ldd	r24, Z+6	; 0x06
    if (_trans->current >= 10000) {
    5daa:	97 81       	ldd	r25, Z+7	; 0x07
    5dac:	80 31       	cpi	r24, 0x10	; 16
    5dae:	97 42       	sbci	r25, 0x27	; 39
    5db0:	70 f0       	brcs	.+28     	; 0x5dce <main+0x6d4>
    5db2:	85 e6       	ldi	r24, 0x65	; 101
    5db4:	0e 94 59 01 	call	0x2b2	; 0x2b2 <lcd_data>
    5db8:	e0 91 3c 01 	lds	r30, 0x013C
       lcd_data('e');				// emitter current has 10mA offset
    5dbc:	f0 91 3d 01 	lds	r31, 0x013D
    5dc0:	86 81       	ldd	r24, Z+6	; 0x06
       _trans->current -= 10000;
    5dc2:	97 81       	ldd	r25, Z+7	; 0x07
    5dc4:	80 51       	subi	r24, 0x10	; 16
    5dc6:	97 42       	sbci	r25, 0x27	; 39
    5dc8:	97 83       	std	Z+7, r25	; 0x07
    5dca:	86 83       	std	Z+6, r24	; 0x06
    5dcc:	03 c0       	rjmp	.+6      	; 0x5dd4 <main+0x6da>
    5dce:	83 e6       	ldi	r24, 0x63	; 99
    5dd0:	0e 94 59 01 	call	0x2b2	; 0x2b2 <lcd_data>
    5dd4:	0e 94 7b 01 	call	0x2f6	; 0x2f6 <lcd_equal>
    } else {
       lcd_data('c');
    5dd8:	e0 91 3c 01 	lds	r30, 0x013C
    5ddc:	f0 91 3d 01 	lds	r31, 0x013D
    }
    lcd_equal();			// lcd_data('=');
    5de0:	22 e0       	ldi	r18, 0x02	; 2
    DisplayValue16(_trans->current,-6,'A',2);	// display Ic or Ie current
    5de2:	41 e4       	ldi	r20, 0x41	; 65
    5de4:	6a ef       	ldi	r22, 0xFA	; 250
    5de6:	86 81       	ldd	r24, Z+6	; 0x06
    5de8:	97 81       	ldd	r25, Z+7	; 0x07
    5dea:	0e 94 65 04 	call	0x8ca	; 0x8ca <DisplayValue16>
    5dee:	80 e0       	ldi	r24, 0x00	; 0
    5df0:	0e 94 74 02 	call	0x4e8	; 0x4e8 <lcd_next_line_wait>
    5df4:	8d e7       	ldi	r24, 0x7D	; 125
    5df6:	91 e0       	ldi	r25, 0x01	; 1
 #endif

 #if defined(SHOW_ICE)
    lcd_next_line_wait(0);		// next line, wait 5s and clear line 2
    5df8:	0e 94 d1 01 	call	0x3a2	; 0x3a2 <lcd_fix_string>
    5dfc:	e0 91 3c 01 	lds	r30, 0x013C
    lcd_MEM_string(Ube_str);		//"Ube=" 
    5e00:	f0 91 3d 01 	lds	r31, 0x013D
    5e04:	63 e0       	ldi	r22, 0x03	; 3
    Display_mV(_trans->uBE,3);
    5e06:	84 81       	ldd	r24, Z+4	; 0x04
    5e08:	95 81       	ldd	r25, Z+5	; 0x05
    5e0a:	0e 94 70 04 	call	0x8e0	; 0x8e0 <Display_mV>
    5e0e:	e0 91 3c 01 	lds	r30, 0x013C
    5e12:	f0 91 3d 01 	lds	r31, 0x013D
    5e16:	80 85       	ldd	r24, Z+8	; 0x08

    if (_trans->ice0 > 0) {
    5e18:	91 85       	ldd	r25, Z+9	; 0x09
    5e1a:	89 2b       	or	r24, r25
    5e1c:	91 f0       	breq	.+36     	; 0x5e42 <main+0x748>
    5e1e:	80 e0       	ldi	r24, 0x00	; 0
    5e20:	0e 94 74 02 	call	0x4e8	; 0x4e8 <lcd_next_line_wait>
    5e24:	8d e0       	ldi	r24, 0x0D	; 13
    5e26:	91 e0       	ldi	r25, 0x01	; 1
       lcd_next_line_wait(0);		// next line, wait 5s and clear line 2
    5e28:	0e 94 d1 01 	call	0x3a2	; 0x3a2 <lcd_fix_string>
    5e2c:	e0 91 3c 01 	lds	r30, 0x013C
       lcd_MEM2_string(ICE0_str);		// "ICE0="
    5e30:	f0 91 3d 01 	lds	r31, 0x013D
    5e34:	23 e0       	ldi	r18, 0x03	; 3
       DisplayValue16(_trans->ice0,-6,'A',3);
    5e36:	41 e4       	ldi	r20, 0x41	; 65
    5e38:	6a ef       	ldi	r22, 0xFA	; 250
    5e3a:	80 85       	ldd	r24, Z+8	; 0x08
    5e3c:	91 85       	ldd	r25, Z+9	; 0x09
    5e3e:	0e 94 65 04 	call	0x8ca	; 0x8ca <DisplayValue16>
    5e42:	e0 91 3c 01 	lds	r30, 0x013C
    5e46:	f0 91 3d 01 	lds	r31, 0x013D
    5e4a:	82 85       	ldd	r24, Z+10	; 0x0a
    }
    if (_trans->ices > 0) {
    5e4c:	93 85       	ldd	r25, Z+11	; 0x0b
    5e4e:	89 2b       	or	r24, r25
    5e50:	91 f0       	breq	.+36     	; 0x5e76 <main+0x77c>
    5e52:	80 e0       	ldi	r24, 0x00	; 0
    5e54:	0e 94 74 02 	call	0x4e8	; 0x4e8 <lcd_next_line_wait>
    5e58:	87 e0       	ldi	r24, 0x07	; 7
    5e5a:	91 e0       	ldi	r25, 0x01	; 1
       lcd_next_line_wait(0);		// next line, wait 5s and clear line 2
    5e5c:	0e 94 d1 01 	call	0x3a2	; 0x3a2 <lcd_fix_string>
    5e60:	e0 91 3c 01 	lds	r30, 0x013C
       lcd_MEM2_string(ICEs_str);		// "ICEs="
    5e64:	f0 91 3d 01 	lds	r31, 0x013D
    5e68:	23 e0       	ldi	r18, 0x03	; 3
       DisplayValue16(_trans->ices,-6,'A',3);
    5e6a:	41 e4       	ldi	r20, 0x41	; 65
    5e6c:	6a ef       	ldi	r22, 0xFA	; 250
    5e6e:	82 85       	ldd	r24, Z+10	; 0x0a
    5e70:	93 85       	ldd	r25, Z+11	; 0x0b
    5e72:	0e 94 65 04 	call	0x8ca	; 0x8ca <DisplayValue16>
    5e76:	f4 e0       	ldi	r31, 0x04	; 4
    5e78:	f5 15       	cp	r31, r5
    5e7a:	08 f4       	brcc	.+2      	; 0x5e7e <main+0x784>
    5e7c:	a6 c1       	rjmp	.+844    	; 0x61ca <main+0xad0>
    5e7e:	80 e0       	ldi	r24, 0x00	; 0
    }
 #endif
#endif  /* WITH_GRAPHICS */
#ifdef SHOW_VAKDIODE
    if (vak_diode_nr < 5) {
    5e80:	0e 94 74 02 	call	0x4e8	; 0x4e8 <lcd_next_line_wait>
    5e84:	85 2d       	mov	r24, r5
    5e86:	0e 94 4e 03 	call	0x69c	; 0x69c <DiodeSymbol_withPins>
       lcd_next_line_wait(0); 		// next line, wait 5s and clear line 2/4
    5e8a:	89 e7       	ldi	r24, 0x79	; 121
    5e8c:	91 e0       	ldi	r25, 0x01	; 1
       DiodeSymbol_withPins(vak_diode_nr);
    5e8e:	0e 94 d1 01 	call	0x3a2	; 0x3a2 <lcd_fix_string>
    5e92:	85 2d       	mov	r24, r5
       lcd_MEM_string(Uf_str);			//"Uf="
    5e94:	0e 94 19 03 	call	0x632	; 0x632 <mVAusgabe>
    5e98:	98 c1       	rjmp	.+816    	; 0x61ca <main+0xad0>
    5e9a:	85 30       	cpi	r24, 0x05	; 5
       mVAusgabe(vak_diode_nr);
    5e9c:	09 f0       	breq	.+2      	; 0x5ea0 <main+0x7a6>
    5e9e:	fb c0       	rjmp	.+502    	; 0x6096 <main+0x99c>
    5ea0:	80 91 19 01 	lds	r24, 0x0119
#endif
    goto tt_end;
    // end (PartFound == PART_TRANSISTOR)

  // ========================================
  } else if (PartFound == PART_FET) {	/* JFET or MOSFET */
    5ea4:	84 ff       	sbrs	r24, 4
    5ea6:	0a c0       	rjmp	.+20     	; 0x5ebc <main+0x7c2>
    5ea8:	80 e5       	ldi	r24, 0x50	; 80
  // ========================================
#ifdef WITH_GRAPHICS
    unsigned char fetidx = 0;
    lcd_set_cursor(0,TEXT_RIGHT_TO_ICON);	// position behind the icon, Line 1
#endif
    if((PartMode&P_CHANNEL) == P_CHANNEL) {
    5eaa:	0e 94 59 01 	call	0x2b2	; 0x2b2 <lcd_data>
    5eae:	89 e5       	ldi	r24, 0x59	; 89
    5eb0:	91 e0       	ldi	r25, 0x01	; 1
       lcd_data('P');			//P-channel
    5eb2:	90 93 3d 01 	sts	0x013D, r25
    5eb6:	80 93 3c 01 	sts	0x013C, r24
       _trans = &ptrans;
    5eba:	03 c0       	rjmp	.+6      	; 0x5ec2 <main+0x7c8>
    5ebc:	8e e4       	ldi	r24, 0x4E	; 78
    5ebe:	0e 94 59 01 	call	0x2b2	; 0x2b2 <lcd_data>
    5ec2:	8d e2       	ldi	r24, 0x2D	; 45
    5ec4:	0e 94 59 01 	call	0x2b2	; 0x2b2 <lcd_data>
#ifdef WITH_GRAPHICS
       fetidx = 2;
#endif
    } else {
       lcd_data('N');			//N-channel
    5ec8:	80 91 19 01 	lds	r24, 0x0119
//       _trans = &ntrans;	is allready selected as default
    }
    lcd_data('-');		// minus is used for JFET, D-MOS, E-MOS ...
    5ecc:	08 2f       	mov	r16, r24
    5ece:	0f 70       	andi	r16, 0x0F	; 15
    5ed0:	04 30       	cpi	r16, 0x04	; 4

    uint8_t part_code;
    part_code = PartMode&0x0f;
    5ed2:	41 f4       	brne	.+16     	; 0x5ee4 <main+0x7ea>
    5ed4:	8f e9       	ldi	r24, 0x9F	; 159
    5ed6:	91 e0       	ldi	r25, 0x01	; 1
    5ed8:	0e 94 d1 01 	call	0x3a2	; 0x3a2 <lcd_fix_string>
          if (fetidx == 2)  lcd_update_icon(bmp_p_e_mos);
          if (fetidx == 3)  lcd_update_icon(bmp_p_d_mos);
       }
    } /* end PART_MODE_JFET */
#else	/* normal character display */
    if (part_code == PART_MODE_JFET) {
    5edc:	4f e3       	ldi	r20, 0x3F	; 63
       lcd_MEM_string(jfet_str);	//"-JFET"
    5ede:	67 e4       	ldi	r22, 0x47	; 71
    5ee0:	8f e3       	ldi	r24, 0x3F	; 63
    5ee2:	18 c0       	rjmp	.+48     	; 0x5f14 <main+0x81a>
    5ee4:	85 ff       	sbrs	r24, 5
    } /* end PART_MODE_JFET */

    if (part_code == PART_MODE_IGBT) {
       PinLayout('E','G','C'); 		//  SGD= or 123=...
    } else if (part_code == PART_MODE_JFET) {
       PinLayout('?','G','?'); 		//  ?G?= or 123=...
    5ee6:	02 c0       	rjmp	.+4      	; 0x5eec <main+0x7f2>
    5ee8:	84 e4       	ldi	r24, 0x44	; 68
    5eea:	01 c0       	rjmp	.+2      	; 0x5eee <main+0x7f4>
    5eec:	85 e4       	ldi	r24, 0x45	; 69
    } /* end PART_MODE_JFET */
#else	/* normal character display */
    if (part_code == PART_MODE_JFET) {
       lcd_MEM_string(jfet_str);	//"-JFET"
    } else {		// no JFET
       if ((PartMode&D_MODE) == D_MODE) {
    5eee:	0e 94 59 01 	call	0x2b2	; 0x2b2 <lcd_data>
          lcd_data('D');			// N-D or P-D
    5ef2:	03 30       	cpi	r16, 0x03	; 3
    5ef4:	41 f4       	brne	.+16     	; 0x5f06 <main+0x80c>
       } else {
          lcd_data('E');			// N-E or P-E
    5ef6:	89 e9       	ldi	r24, 0x99	; 153
    5ef8:	91 e0       	ldi	r25, 0x01	; 1
    5efa:	0e 94 d1 01 	call	0x3a2	; 0x3a2 <lcd_fix_string>
       }
       if (part_code == (PART_MODE_IGBT)) {
    5efe:	43 e4       	ldi	r20, 0x43	; 67
          lcd_MEM_string(igbt_str);	//"-IGBT"
    5f00:	67 e4       	ldi	r22, 0x47	; 71
    5f02:	85 e4       	ldi	r24, 0x45	; 69
    5f04:	07 c0       	rjmp	.+14     	; 0x5f14 <main+0x81a>
    5f06:	84 ea       	ldi	r24, 0xA4	; 164
          lcd_MEM_string(mosfet_str);	//"-MOS "
       }
    } /* end PART_MODE_JFET */

    if (part_code == PART_MODE_IGBT) {
       PinLayout('E','G','C'); 		//  SGD= or 123=...
    5f08:	91 e0       	ldi	r25, 0x01	; 1
    5f0a:	0e 94 d1 01 	call	0x3a2	; 0x3a2 <lcd_fix_string>
    5f0e:	44 e4       	ldi	r20, 0x44	; 68
          lcd_data('E');			// N-E or P-E
       }
       if (part_code == (PART_MODE_IGBT)) {
          lcd_MEM_string(igbt_str);	//"-IGBT"
       } else {
          lcd_MEM_string(mosfet_str);	//"-MOS "
    5f10:	67 e4       	ldi	r22, 0x47	; 71
    5f12:	83 e5       	ldi	r24, 0x53	; 83
    5f14:	0e 94 c2 02 	call	0x584	; 0x584 <PinLayout>
    if (part_code == PART_MODE_IGBT) {
       PinLayout('E','G','C'); 		//  SGD= or 123=...
    } else if (part_code == PART_MODE_JFET) {
       PinLayout('?','G','?'); 		//  ?G?= or 123=...
    } else {
       PinLayout('S','G','D'); 		//  SGD= or 123=...
    5f18:	80 91 19 01 	lds	r24, 0x0119
    5f1c:	85 fd       	sbrc	r24, 5
    5f1e:	18 c0       	rjmp	.+48     	; 0x5f50 <main+0x856>
    5f20:	0e 94 8a 01 	call	0x314	; 0x314 <lcd_line2>
 #ifdef SHOW_R_DS
       lcd_show_rds(0);                // show Drain-Source resistance RDS at column 0
 #endif
    }	/* end of enhancement or depletion mode WITH_GRAPHICS */
#else	/* character display */
    if((PartMode&D_MODE) != D_MODE) {	//enhancement-MOSFET
    5f24:	e0 91 3c 01 	lds	r30, 0x013C
    5f28:	f0 91 3d 01 	lds	r31, 0x013D
	//Gate capacity
       lcd_line2();		// line 2
    5f2c:	66 85       	ldd	r22, Z+14	; 0x0e
       ReadCapacity(_trans->b,_trans->e);	//measure capacity
    5f2e:	84 85       	ldd	r24, Z+12	; 0x0c
    5f30:	0e 94 3f 15 	call	0x2a7e	; 0x2a7e <ReadCapacity>
    5f34:	0e 94 80 02 	call	0x500	; 0x500 <lcd_show_Cg>
    5f38:	84 e7       	ldi	r24, 0x74	; 116
    5f3a:	91 e0       	ldi	r25, 0x01	; 1
    5f3c:	0e 94 d1 01 	call	0x3a2	; 0x3a2 <lcd_fix_string>
       lcd_show_Cg();	// show Cg=xxxpF
    5f40:	e0 91 3c 01 	lds	r30, 0x013C
       lcd_MEM_string(vt_str);		// " Vt="
    5f44:	f0 91 3d 01 	lds	r31, 0x013D
    5f48:	62 e0       	ldi	r22, 0x02	; 2
       Display_mV(_trans->gthvoltage,2);	//Gate-threshold voltage
    5f4a:	82 85       	ldd	r24, Z+10	; 0x0a
    5f4c:	93 85       	ldd	r25, Z+11	; 0x0b
    5f4e:	6e c0       	rjmp	.+220    	; 0x602c <main+0x932>
    5f50:	8f 70       	andi	r24, 0x0F	; 15
    5f52:	84 30       	cpi	r24, 0x04	; 4
    5f54:	71 f0       	breq	.+28     	; 0x5f72 <main+0x878>
    5f56:	80 e0       	ldi	r24, 0x00	; 0
    5f58:	0e 94 54 02 	call	0x4a8	; 0x4a8 <lcd_next_line>
       lcd_show_rds(0);                // show Drain-Source resistance RDS at column 0
  #endif
    } else {
      // depletion
 #if FLASHEND > 0x1fff
       if ((PartMode&0x0f)  != PART_MODE_JFET) {     /* kein JFET */
    5f5c:	e0 91 3c 01 	lds	r30, 0x013C
          lcd_next_line(0);		// line 2
    5f60:	f0 91 3d 01 	lds	r31, 0x013D
    5f64:	66 85       	ldd	r22, Z+14	; 0x0e
          ReadCapacity(_trans->b,_trans->e);	//measure capacity
    5f66:	84 85       	ldd	r24, Z+12	; 0x0c
    5f68:	0e 94 3f 15 	call	0x2a7e	; 0x2a7e <ReadCapacity>
    5f6c:	0e 94 80 02 	call	0x500	; 0x500 <lcd_show_Cg>
    5f70:	1a c0       	rjmp	.+52     	; 0x5fa6 <main+0x8ac>
    5f72:	e0 91 3c 01 	lds	r30, 0x013C
          lcd_show_Cg();	// show Cg=xxxpF
    5f76:	f0 91 3d 01 	lds	r31, 0x013D
    5f7a:	84 81       	ldd	r24, Z+4	; 0x04
  #ifdef FET_Idss
       } else {     // it is a JFET
          // display the I_DSS, if measured
          if (_trans->uBE!=0) {
    5f7c:	95 81       	ldd	r25, Z+5	; 0x05
    5f7e:	89 2b       	or	r24, r25
    5f80:	91 f0       	breq	.+36     	; 0x5fa6 <main+0x8ac>
    5f82:	80 e0       	ldi	r24, 0x00	; 0
    5f84:	0e 94 54 02 	call	0x4a8	; 0x4a8 <lcd_next_line>
    5f88:	80 e0       	ldi	r24, 0x00	; 0
    5f8a:	90 e0       	ldi	r25, 0x00	; 0
             lcd_next_line(0);
    5f8c:	0e 94 d1 01 	call	0x3a2	; 0x3a2 <lcd_fix_string>
    5f90:	e0 91 3c 01 	lds	r30, 0x013C
             static const unsigned char str_Idss[] MEM_TEXT = "Idss=";
             lcd_MEM_string(str_Idss);
    5f94:	f0 91 3d 01 	lds	r31, 0x013D
    5f98:	22 e0       	ldi	r18, 0x02	; 2
             DisplayValue16(_trans->uBE,-6,'A',2);
    5f9a:	41 e4       	ldi	r20, 0x41	; 65
    5f9c:	6a ef       	ldi	r22, 0xFA	; 250
    5f9e:	84 81       	ldd	r24, Z+4	; 0x04
    5fa0:	95 81       	ldd	r25, Z+5	; 0x05
    5fa2:	0e 94 65 04 	call	0x8ca	; 0x8ca <DisplayValue16>
    5fa6:	80 e0       	ldi	r24, 0x00	; 0
    5fa8:	0e 94 74 02 	call	0x4e8	; 0x4e8 <lcd_next_line_wait>
    5fac:	89 e4       	ldi	r24, 0x49	; 73
    5fae:	0e 94 59 01 	call	0x2b2	; 0x2b2 <lcd_data>
          }
  #endif
       }
       lcd_next_line_wait(0);		// line 2 or 3, if possible & wait and clear last line
    5fb2:	0e 94 7b 01 	call	0x2f6	; 0x2f6 <lcd_equal>
 #endif
       lcd_data('I');			// show I=xmA@Vg=y.yV at line 2 or 3
    5fb6:	e0 91 3c 01 	lds	r30, 0x013C
    5fba:	f0 91 3d 01 	lds	r31, 0x013D
 #if (LCD_LINE_LENGTH > 17)
       lcd_data('d');
 #endif
       lcd_equal();			// lcd_data('=');
    5fbe:	22 e0       	ldi	r18, 0x02	; 2
       DisplayValue16(_trans->current,-6,'A',2);
    5fc0:	41 e4       	ldi	r20, 0x41	; 65
    5fc2:	6a ef       	ldi	r22, 0xFA	; 250
    5fc4:	86 81       	ldd	r24, Z+6	; 0x06
    5fc6:	97 81       	ldd	r25, Z+7	; 0x07
    5fc8:	0e 94 65 04 	call	0x8ca	; 0x8ca <DisplayValue16>
    5fcc:	8f e6       	ldi	r24, 0x6F	; 111
    5fce:	91 e0       	ldi	r25, 0x01	; 1
    5fd0:	0e 94 d1 01 	call	0x3a2	; 0x3a2 <lcd_fix_string>
    5fd4:	e0 91 3c 01 	lds	r30, 0x013C
       lcd_MEM_string(Vgs_str);		// "@Vg="
    5fd8:	f0 91 3d 01 	lds	r31, 0x013D
    5fdc:	62 e0       	ldi	r22, 0x02	; 2
       Display_mV(_trans->gthvoltage,2);	//Gate-threshold voltage
    5fde:	82 85       	ldd	r24, Z+10	; 0x0a
    5fe0:	93 85       	ldd	r25, Z+11	; 0x0b
    5fe2:	0e 94 70 04 	call	0x8e0	; 0x8e0 <Display_mV>
    5fe6:	e0 91 3c 01 	lds	r30, 0x013C
    5fea:	f0 91 3d 01 	lds	r31, 0x013D
    5fee:	80 85       	ldd	r24, Z+8	; 0x08
 #ifdef SHOW_ICE
       // Display also the cutoff gate voltage, idea from Pieter-Tjerk
       if (_trans->ice0<4800) { // can't trust cutoff voltage if close to 5V supply voltage, since then the transistor may not have been cut off at all
    5ff0:	91 85       	ldd	r25, Z+9	; 0x09
    5ff2:	80 3c       	cpi	r24, 0xC0	; 192
    5ff4:	92 41       	sbci	r25, 0x12	; 18
    5ff6:	e0 f4       	brcc	.+56     	; 0x6030 <main+0x936>
    5ff8:	80 e0       	ldi	r24, 0x00	; 0
    5ffa:	0e 94 74 02 	call	0x4e8	; 0x4e8 <lcd_next_line_wait>
    5ffe:	89 e4       	ldi	r24, 0x49	; 73
    6000:	0e 94 59 01 	call	0x2b2	; 0x2b2 <lcd_data>
          lcd_next_line_wait(0);
    6004:	0e 94 7b 01 	call	0x2f6	; 0x2f6 <lcd_equal>
          lcd_data('I');
    6008:	22 e0       	ldi	r18, 0x02	; 2
    600a:	41 e4       	ldi	r20, 0x41	; 65
    600c:	6b ef       	ldi	r22, 0xFB	; 251
  #if (LCD_LINE_LENGTH > 17)
          lcd_data('d');
  #endif
          lcd_equal();			// lcd_data('=');
    600e:	80 e0       	ldi	r24, 0x00	; 0
    6010:	90 e0       	ldi	r25, 0x00	; 0
          DisplayValue16(0,-5,'A',2);
    6012:	0e 94 65 04 	call	0x8ca	; 0x8ca <DisplayValue16>
    6016:	8f e6       	ldi	r24, 0x6F	; 111
    6018:	91 e0       	ldi	r25, 0x01	; 1
    601a:	0e 94 d1 01 	call	0x3a2	; 0x3a2 <lcd_fix_string>
    601e:	e0 91 3c 01 	lds	r30, 0x013C
          lcd_MEM_string(Vgs_str);		// "@Vg="
    6022:	f0 91 3d 01 	lds	r31, 0x013D
    6026:	62 e0       	ldi	r22, 0x02	; 2
          Display_mV(_trans->ice0,2);	// cutoff Gate voltage
    6028:	80 85       	ldd	r24, Z+8	; 0x08
    602a:	91 85       	ldd	r25, Z+9	; 0x09
    602c:	0e 94 70 04 	call	0x8e0	; 0x8e0 <Display_mV>
    6030:	80 e0       	ldi	r24, 0x00	; 0
    6032:	0e 94 98 02 	call	0x530	; 0x530 <lcd_show_rds>
    6036:	04 30       	cpi	r16, 0x04	; 4
    6038:	09 f4       	brne	.+2      	; 0x603c <main+0x942>
       }
 #endif
 #ifdef SHOW_R_DS
       lcd_show_rds(0);                // show Drain-Source resistance RDS at column 0
    603a:	c7 c0       	rjmp	.+398    	; 0x61ca <main+0xad0>
    603c:	00 e0       	ldi	r16, 0x00	; 0
    603e:	80 91 18 01 	lds	r24, 0x0118
    lcd_data('|');
    lcd_space();
    DisplayValue16(NumOfDiodes,0,' ',3);
#endif
#if FLASHEND > 0x1fff
    if (part_code != PART_MODE_JFET) {
    6042:	08 17       	cp	r16, r24
    6044:	08 f0       	brcs	.+2      	; 0x6048 <main+0x94e>
    6046:	c1 c0       	rjmp	.+386    	; 0x61ca <main+0xad0>
       for (ii=0;ii<NumOfDiodes;ii++) {
    6048:	80 e0       	ldi	r24, 0x00	; 0
    604a:	0e 94 74 02 	call	0x4e8	; 0x4e8 <lcd_next_line_wait>
    604e:	80 2f       	mov	r24, r16
    6050:	0e 94 4e 03 	call	0x69c	; 0x69c <DiodeSymbol_withPins>
          // there is enough space for long form of presenting protection diode
 #if LCD_LINES > 6
          if (ii == 0) lcd_next_line(0);		// line 5 , if possible
 #endif
          lcd_next_line_wait(0);		// line 4, if possible & wait 5s and clear last line 
    6054:	89 e7       	ldi	r24, 0x79	; 121
    6056:	91 e0       	ldi	r25, 0x01	; 1
          DiodeSymbol_withPins(ii);
    6058:	0e 94 d1 01 	call	0x3a2	; 0x3a2 <lcd_fix_string>
    605c:	80 2f       	mov	r24, r16
          lcd_MEM_string(Uf_str);			//"Uf="
    605e:	0e 94 19 03 	call	0x632	; 0x632 <mVAusgabe>
    6062:	0f 5f       	subi	r16, 0xFF	; 255
    6064:	ec cf       	rjmp	.-40     	; 0x603e <main+0x944>
          mVAusgabe(ii);
    6066:	80 91 6f 01 	lds	r24, 0x016F
    606a:	88 23       	and	r24, r24
    lcd_space();
    DisplayValue16(NumOfDiodes,0,' ',3);
#endif
#if FLASHEND > 0x1fff
    if (part_code != PART_MODE_JFET) {
       for (ii=0;ii<NumOfDiodes;ii++) {
    606c:	09 f4       	brne	.+2      	; 0x6070 <main+0x976>
    606e:	ad c0       	rjmp	.+346    	; 0x61ca <main+0xad0>
//  return 0;

end3:
        uart_newline();		// MAURO  ('H')
  // the diode  is already shown on the LCD
	if (ResistorsFound == 0)
    6070:	17 b9       	out	0x07, r17	; 7
    6072:	80 91 12 01 	lds	r24, 0x0112
    6076:	90 91 13 01 	lds	r25, 0x0113
		goto tt_end;
  ADC_DDR = (1<<TPRELAY) | TXD_MSK; 	// switch pin with reference to GND, release relay
    607a:	0e 94 54 05 	call	0xaa8	; 0xaa8 <wait_for_key_ms>
  lcd_next_line_wait(0);
 #else
  lcd_line3();
 #endif
#else
  wait_for_key_ms(display_time);
    607e:	17 b8       	out	0x07, r1	; 7
    6080:	0e 94 b2 01 	call	0x364	; 0x364 <lcd_clear>
    6084:	80 91 18 01 	lds	r24, 0x0118
  ADC_DDR =  TXD_MSK; 	// switch pin with reference to input, activate relay
    6088:	80 5d       	subi	r24, 0xD0	; 208
  lcd_clear();
    608a:	0e 94 59 01 	call	0x2b2	; 0x2b2 <lcd_data>
//#if FLASHEND > 0x1fff
  lcd_data('0'+NumOfDiodes);
    608e:	8b e2       	ldi	r24, 0x2B	; 43
    6090:	91 e0       	ldi	r25, 0x01	; 1
    6092:	0e 94 d1 01 	call	0x3a2	; 0x3a2 <lcd_fix_string>
    6096:	50 90 6f 01 	lds	r5, 0x016F
  lcd_MEM_string(Dioden);	//"Diodes "
    609a:	55 20       	and	r5, r5
    609c:	09 f4       	brne	.+2      	; 0x60a0 <main+0x9a6>
    609e:	84 c0       	rjmp	.+264    	; 0x61a8 <main+0xaae>
    goto tt_end;
  }  /* end (PartFound == PART_FET) */

//   if(PartFound == PART_RESISTOR) 
resistor_out:
  if (ResistorsFound != 0) {
    60a0:	f1 e0       	ldi	r31, 0x01	; 1
    60a2:	5f 12       	cpse	r5, r31
    60a4:	14 c0       	rjmp	.+40     	; 0x60ce <main+0x9d4>
    60a6:	80 91 56 01 	lds	r24, 0x0156
    if (ResistorsFound == 1) { // single resistor
    60aa:	0e 94 e9 02 	call	0x5d2	; 0x5d2 <Rnum2pins>
    60ae:	20 91 56 01 	lds	r18, 0x0156

       rpins.pw = Rnum2pins(ResistorList[0]);	// get pin numbers for resistor 1
    60b2:	21 30       	cpi	r18, 0x01	; 1
    60b4:	39 f4       	brne	.+14     	; 0x60c4 <main+0x9ca>
    60b6:	20 91 18 01 	lds	r18, 0x0118
       lcd_testpin(rpins.pb[1]);	//Pin-number 2
       lcd_line2(); //2. row 
       RvalOut(ResistorList[0]);
#else
 #if FLASHEND > 0x3fff
       if ((ResistorList[0] == 1) && (NumOfDiodes == 0)) {
    60ba:	21 11       	cpse	r18, r1
    60bc:	03 c0       	rjmp	.+6      	; 0x60c4 <main+0x9ca>
    60be:	0e 94 c1 1a 	call	0x3582	; 0x3582 <show_Resis13>
    60c2:	95 c0       	rjmp	.+298    	; 0x61ee <main+0xaf4>
    60c4:	40 e0       	ldi	r20, 0x00	; 0
    60c6:	69 2f       	mov	r22, r25
          // is the TP1:TP3 resistor and no additional diode
          show_Resis13();		// call of the special resistor measurement
    60c8:	0e 94 5e 19 	call	0x32bc	; 0x32bc <show_resis>
          goto shut_off;		// key is pressed or timeout
    60cc:	7e c0       	rjmp	.+252    	; 0x61ca <main+0xad0>
       }
 #endif
       show_resis(rpins.pb[0],rpins.pb[1],0);
    60ce:	00 91 56 01 	lds	r16, 0x0156
    60d2:	30 91 57 01 	lds	r19, 0x0157
    60d6:	24 e0       	ldi	r18, 0x04	; 4
#endif

    } else { // multiple resistors found, R-Max suchen

       ii = ResistorList[0];	// first resistor in the list with number 0,1,2
    60d8:	32 9f       	mul	r19, r18
    60da:	d0 01       	movw	r26, r0
       if (ResistorVal[ResistorList[1]] > ResistorVal[ii])
    60dc:	11 24       	eor	r1, r1
    60de:	ae 55       	subi	r26, 0x5E	; 94
    60e0:	be 4f       	sbci	r27, 0xFE	; 254
    60e2:	84 e0       	ldi	r24, 0x04	; 4
    60e4:	08 9f       	mul	r16, r24
    60e6:	f0 01       	movw	r30, r0
    60e8:	11 24       	eor	r1, r1
    60ea:	ee 55       	subi	r30, 0x5E	; 94
    60ec:	fe 4f       	sbci	r31, 0xFE	; 254
    60ee:	4d 91       	ld	r20, X+
    60f0:	5d 91       	ld	r21, X+
    60f2:	6d 91       	ld	r22, X+
    60f4:	7c 91       	ld	r23, X
    60f6:	80 81       	ld	r24, Z
    60f8:	91 81       	ldd	r25, Z+1	; 0x01
    60fa:	a2 81       	ldd	r26, Z+2	; 0x02
    60fc:	b3 81       	ldd	r27, Z+3	; 0x03
    60fe:	84 17       	cp	r24, r20
    6100:	95 07       	cpc	r25, r21
    6102:	a6 07       	cpc	r26, r22
    6104:	b7 07       	cpc	r27, r23
    6106:	10 f0       	brcs	.+4      	; 0x610c <main+0xa12>
    6108:	20 2f       	mov	r18, r16
    610a:	01 c0       	rjmp	.+2      	; 0x610e <main+0xa14>
    610c:	23 2f       	mov	r18, r19
    610e:	92 e0       	ldi	r25, 0x02	; 2
    6110:	59 12       	cpse	r5, r25
       show_resis(rpins.pb[0],rpins.pb[1],0);
#endif

    } else { // multiple resistors found, R-Max suchen

       ii = ResistorList[0];	// first resistor in the list with number 0,1,2
    6112:	04 c0       	rjmp	.+8      	; 0x611c <main+0xa22>
    6114:	30 0f       	add	r19, r16
       if (ResistorVal[ResistorList[1]] > ResistorVal[ii])
          ii = ResistorList[1]; // second resistor in the list with number 0,1,2
    6116:	03 e0       	ldi	r16, 0x03	; 3
       if (ResistorsFound == 2) {
    6118:	03 1b       	sub	r16, r19
    611a:	1c c0       	rjmp	.+56     	; 0x6154 <main+0xa5a>
    611c:	00 91 58 01 	lds	r16, 0x0158
          ii = (3 - ResistorList[0] - ResistorList[1]);
    6120:	e4 e0       	ldi	r30, 0x04	; 4
    6122:	0e 9f       	mul	r16, r30
    6124:	d0 01       	movw	r26, r0
       } else {
          if (ResistorVal[ResistorList[2]] > ResistorVal[ii]) {
    6126:	11 24       	eor	r1, r1
    6128:	ae 55       	subi	r26, 0x5E	; 94
    612a:	be 4f       	sbci	r27, 0xFE	; 254
    612c:	84 e0       	ldi	r24, 0x04	; 4
    612e:	28 9f       	mul	r18, r24
    6130:	f0 01       	movw	r30, r0
    6132:	11 24       	eor	r1, r1
    6134:	ee 55       	subi	r30, 0x5E	; 94
    6136:	fe 4f       	sbci	r31, 0xFE	; 254
    6138:	4d 91       	ld	r20, X+
    613a:	5d 91       	ld	r21, X+
    613c:	6d 91       	ld	r22, X+
    613e:	7c 91       	ld	r23, X
    6140:	80 81       	ld	r24, Z
    6142:	91 81       	ldd	r25, Z+1	; 0x01
    6144:	a2 81       	ldd	r26, Z+2	; 0x02
    6146:	b3 81       	ldd	r27, Z+3	; 0x03
    6148:	84 17       	cp	r24, r20
    614a:	95 07       	cpc	r25, r21
    614c:	a6 07       	cpc	r26, r22
    614e:	b7 07       	cpc	r27, r23
    6150:	08 f0       	brcs	.+2      	; 0x6154 <main+0xa5a>
    6152:	02 2f       	mov	r16, r18
    6154:	40 2e       	mov	r4, r16
    6156:	46 94       	lsr	r4
    6158:	a2 e0       	ldi	r26, 0x02	; 2
    615a:	5a 2e       	mov	r5, r26
    615c:	50 1a       	sub	r5, r16
          y = TP1;
          z = TP3;
       }
#else
    // the following does the same as the above, but more cryptically (and in fewer instructions)
       x = TP1+(ii>>1);
    615e:	00 23       	and	r16, r16
    6160:	11 f0       	breq	.+4      	; 0x6166 <main+0xa6c>
       y = TP3-ii;
    6162:	22 e0       	ldi	r18, 0x02	; 2
    6164:	01 c0       	rjmp	.+2      	; 0x6168 <main+0xa6e>
    6166:	21 e0       	ldi	r18, 0x01	; 1
       z = TP2+(ii>0);
    6168:	84 2d       	mov	r24, r4
    616a:	29 83       	std	Y+1, r18	; 0x01
    616c:	0e 94 64 01 	call	0x2c8	; 0x2c8 <lcd_testpin>
    6170:	86 e2       	ldi	r24, 0x26	; 38
#endif
       lcd_testpin(x);  	//Pin-number 1
    6172:	91 e0       	ldi	r25, 0x01	; 1
    6174:	0e 94 d1 01 	call	0x3a2	; 0x3a2 <lcd_fix_string>
    6178:	85 2d       	mov	r24, r5
       lcd_MEM_string(Resistor_str);    // -[=]-
    617a:	0e 94 64 01 	call	0x2c8	; 0x2c8 <lcd_testpin>
    617e:	86 e2       	ldi	r24, 0x26	; 38
    6180:	91 e0       	ldi	r25, 0x01	; 1
       lcd_testpin(y);		//Pin-number 2
    6182:	0e 94 d1 01 	call	0x3a2	; 0x3a2 <lcd_fix_string>
    6186:	29 81       	ldd	r18, Y+1	; 0x01
       lcd_MEM_string(Resistor_str);    // -[=]-
    6188:	82 2f       	mov	r24, r18
    618a:	0e 94 64 01 	call	0x2c8	; 0x2c8 <lcd_testpin>
    618e:	80 e0       	ldi	r24, 0x00	; 0
       lcd_testpin(z);		//Pin-number 3
    6190:	0e 94 54 02 	call	0x4a8	; 0x4a8 <lcd_next_line>
    6194:	81 e0       	ldi	r24, 0x01	; 1
    6196:	01 11       	cpse	r16, r1

       lcd_next_line(0);
    6198:	80 e0       	ldi	r24, 0x00	; 0
    619a:	0e 94 f3 02 	call	0x5e6	; 0x5e6 <RvalOut>
    //  if (ii == 2) { /* resistor 2 has maximum */
    //     RvalOut(0);
    //     RvalOut(1);
    //  }
    // again a shorter but cryptical equivalent:
       RvalOut(ii==0);
    619e:	82 e0       	ldi	r24, 0x02	; 2
    61a0:	84 19       	sub	r24, r4
    61a2:	0e 94 f3 02 	call	0x5e6	; 0x5e6 <RvalOut>
    61a6:	11 c0       	rjmp	.+34     	; 0x61ca <main+0xad0>
       RvalOut(2-(ii>>1));
    61a8:	82 e7       	ldi	r24, 0x72	; 114
    61aa:	92 e0       	ldi	r25, 0x02	; 2
    61ac:	0e 94 d1 01 	call	0x3a2	; 0x3a2 <lcd_fix_string>
    61b0:	0e 94 8a 01 	call	0x314	; 0x314 <lcd_line2>
    }  // end ResistorsFound==1
    goto tt_end;

  } // end (PartFound == PART_RESISTOR)

  lcd_MEM_string(TestFailed1); 	//"Kein,unbek. oder"
    61b4:	8f e9       	ldi	r24, 0x9F	; 159
    61b6:	92 e0       	ldi	r25, 0x02	; 2
    61b8:	0e 94 d1 01 	call	0x3a2	; 0x3a2 <lcd_fix_string>
  lcd_line2(); //2. row 
    61bc:	8a e9       	ldi	r24, 0x9A	; 154
#if defined(LANG_ITALIAN) || defined(LANG_FRANCAIS)	//italiano or francais
  lcd_MEM_string(Bauteil);		//"campione"
  lcd_space();
  lcd_MEM_string(TestFailed2); 		//"guasto "
#else
  lcd_MEM_string(TestFailed2); 		//"defektes "
    61be:	92 e0       	ldi	r25, 0x02	; 2
    61c0:	0e 94 d1 01 	call	0x3a2	; 0x3a2 <lcd_fix_string>
    61c4:	80 e4       	ldi	r24, 0x40	; 64
  lcd_MEM_string(Bauteil);		//"Bauteil"
    61c6:	9f e1       	ldi	r25, 0x1F	; 31
    61c8:	04 c0       	rjmp	.+8      	; 0x61d2 <main+0xad8>
    61ca:	80 91 12 01 	lds	r24, 0x0112
#endif
#if POWER_OFF+0 > 1
  empty_count++;
  mess_count = 0;
#endif
  max_time = SHORT_WAIT_TIME;		// use allways the short wait time
    61ce:	90 91 13 01 	lds	r25, 0x0113
    61d2:	17 b9       	out	0x07, r17	; 7
 tt_end:
#if POWER_OFF+0 > 1
  empty_count = 0;		// reset counter, if part is found
  mess_count++;			// count measurements
#endif
  max_time = display_time;	// full specified wait time
    61d4:	4f 9b       	sbis	0x09, 7	; 9
    61d6:	fe cf       	rjmp	.-4      	; 0x61d4 <main+0xada>
    61d8:	0e 94 54 05 	call	0xaa8	; 0xaa8 <wait_for_key_ms>

 end2:
  ADC_DDR = (1<<TPRELAY) | TXD_MSK; 	// switch pin with reference to GND, release relay
    61dc:	82 33       	cpi	r24, 0x32	; 50
  lcd_refresh();			// write the pixels to display, ST7920 only
	while (!(RST_PIN_REG & (1 << RST_PIN)))
    61de:	28 f0       	brcs	.+10     	; 0x61ea <main+0xaf0>
    61e0:	0e 94 87 23 	call	0x470e	; 0x470e <function_menu>
		;	//wait ,until button is released
#ifdef WITH_ROTARY_SWITCH
wait_again:
#endif
  ii = wait_for_key_ms(max_time);
    61e4:	81 11       	cpse	r24, r1
#endif
#ifdef WITH_MENU
 #ifdef WITH_ROTARY_SWITCH
  if ((ii >=50) || (rotary.incre > 2))
 #else
  if (ii >= 50) 
    61e6:	fc cf       	rjmp	.-8      	; 0x61e0 <main+0xae6>
    61e8:	fd ca       	rjmp	.-2566   	; 0x57e4 <main+0xea>
 #endif
  {
     // menu selected by long key press or rotary switch
		while(function_menu());// start the function menu
    61ea:	81 11       	cpse	r24, r1
    61ec:	fb ca       	rjmp	.-2570   	; 0x57e4 <main+0xea>
    61ee:	8c e0       	ldi	r24, 0x0C	; 12
    61f0:	0e 94 7e 01 	call	0x2fc	; 0x2fc <lcd_command>
     goto loop_start;
  }
#endif
	if (ii != 0)
    61f4:	80 91 37 01 	lds	r24, 0x0137
 #endif
  // only one Measurement requested, shut off
 #if FLASHEND > 0x3fff
shut_off:
  // look, if the tester is uncalibrated (C-source will be included directly)
  lcd_cursor_off();
    61f8:	88 23       	and	r24, r24
    61fa:	51 f0       	breq	.+20     	; 0x6210 <main+0xb16>
    61fc:	0e 94 b2 01 	call	0x364	; 0x364 <lcd_clear>
#if defined(AUTO_CAL) && (FLASHEND > 0x3fff)
// Check is direct included in the main source of the TransistorTester
// a function with a call from main will use additional 38 bytes of flash
  // define additional variables , ii is already defined in main
 #define TIME_TO_READ 10000
  if (UnCalibrated) {
    6200:	86 e9       	ldi	r24, 0x96	; 150
    6202:	91 e0       	ldi	r25, 0x01	; 1
    6204:	0e 94 c3 01 	call	0x386	; 0x386 <lcd_pgm_string>
       if (zeich == (char)0) break;	// end of text found
       jj += space_pos;		// start position of line 2
       if((pgm_read_byte(&HelpCalibration_str[jj])) == ' ') jj++; // no space at begin of line
    }  /* end while */
#else
    lcd_clear();
    6208:	80 e1       	ldi	r24, 0x10	; 16
    lcd_pgm_string(HelpCalibration_str);	// only short message!
    620a:	97 e2       	ldi	r25, 0x27	; 39
    620c:	0e 94 54 05 	call	0xaa8	; 0xaa8 <wait_for_key_ms>
    6210:	0e 94 85 06 	call	0xd0a	; 0xd0a <switch_tester_off>
	#ifdef WITH_UART		//Mauro 
		uart_newline();		//Mauro 
	#endif					//Mauro 
#endif
    wait_for_key_ms(TIME_TO_READ);	// key pressed
    6214:	ed ca       	rjmp	.-2598   	; 0x57f0 <main+0xf6>
    6216:	0e 94 83 01 	call	0x306	; 0x306 <lcd_line1>
  #include "HelpCalibration.c"
 #endif
//  MCUSR = 0;
  switch_tester_off();
    621a:	8f e5       	ldi	r24, 0x5F	; 95
    621c:	92 e0       	ldi	r25, 0x02	; 2
shut_off:
  // look, if the tester is uncalibrated (C-source will be included directly)
  lcd_cursor_off();
  #include "HelpCalibration.c"
#endif
	goto loop_start;
    621e:	0e 94 d1 01 	call	0x3a2	; 0x3a2 <lcd_fix_string>
	//  ADC_DDR = TXD_MSK;
	  if(tmp) { 
	     // check if  Watchdog-Event 
	     // this happens, if the Watchdog is not reset for 2s
	     // can happen, if any loop in the Program doen't finish.
	     lcd_line1();
    6222:	8b ec       	ldi	r24, 0xCB	; 203
             lcd_MEM_string(TestTimedOut);	//Output Timeout
    6224:	0e 94 aa 04 	call	0x954	; 0x954 <sleep_5ms>
    6228:	0e 94 85 06 	call	0xd0a	; 0xd0a <switch_tester_off>
	     wait_about3s();			// time to read the Timeout message
    622c:	80 e0       	ldi	r24, 0x00	; 0
    622e:	90 e0       	ldi	r25, 0x00	; 0
    6230:	0f 90       	pop	r0
	     switch_tester_off();
    6232:	df 91       	pop	r29
    6234:	cf 91       	pop	r28
  lcd_MEM_string(Dioden);	//"Diodes "
//#endif
#endif
  goto resistor_out;

}   // end main
    6236:	1f 91       	pop	r17
    6238:	0f 91       	pop	r16
    623a:	ff 90       	pop	r15
    623c:	ef 90       	pop	r14
    623e:	df 90       	pop	r13
    6240:	cf 90       	pop	r12
    6242:	bf 90       	pop	r11
    6244:	af 90       	pop	r10
    6246:	9f 90       	pop	r9
    6248:	8f 90       	pop	r8
    624a:	7f 90       	pop	r7
    624c:	5f 90       	pop	r5
    624e:	4f 90       	pop	r4
    6250:	3f 90       	pop	r3
    6252:	2f 90       	pop	r2
    6254:	08 95       	ret

00006256 <__mulsi3>:
    6256:	db 01       	movw	r26, r22
    6258:	8f 93       	push	r24
    625a:	9f 93       	push	r25
    625c:	91 d0       	rcall	.+290    	; 0x6380 <__muluhisi3>
    625e:	bf 91       	pop	r27
    6260:	af 91       	pop	r26
    6262:	a2 9f       	mul	r26, r18
    6264:	80 0d       	add	r24, r0
    6266:	91 1d       	adc	r25, r1
    6268:	a3 9f       	mul	r26, r19
    626a:	90 0d       	add	r25, r0
    626c:	b2 9f       	mul	r27, r18
    626e:	90 0d       	add	r25, r0
    6270:	11 24       	eor	r1, r1
    6272:	08 95       	ret

00006274 <__udivmodqi4>:
    6274:	99 1b       	sub	r25, r25
    6276:	79 e0       	ldi	r23, 0x09	; 9
    6278:	04 c0       	rjmp	.+8      	; 0x6282 <__udivmodqi4_ep>

0000627a <__udivmodqi4_loop>:
    627a:	99 1f       	adc	r25, r25
    627c:	96 17       	cp	r25, r22
    627e:	08 f0       	brcs	.+2      	; 0x6282 <__udivmodqi4_ep>
    6280:	96 1b       	sub	r25, r22

00006282 <__udivmodqi4_ep>:
    6282:	88 1f       	adc	r24, r24
    6284:	7a 95       	dec	r23
    6286:	c9 f7       	brne	.-14     	; 0x627a <__udivmodqi4_loop>
    6288:	80 95       	com	r24
    628a:	08 95       	ret

0000628c <__udivmodhi4>:
    628c:	aa 1b       	sub	r26, r26
    628e:	bb 1b       	sub	r27, r27
    6290:	51 e1       	ldi	r21, 0x11	; 17
    6292:	07 c0       	rjmp	.+14     	; 0x62a2 <__udivmodhi4_ep>

00006294 <__udivmodhi4_loop>:
    6294:	aa 1f       	adc	r26, r26
    6296:	bb 1f       	adc	r27, r27
    6298:	a6 17       	cp	r26, r22
    629a:	b7 07       	cpc	r27, r23
    629c:	10 f0       	brcs	.+4      	; 0x62a2 <__udivmodhi4_ep>
    629e:	a6 1b       	sub	r26, r22
    62a0:	b7 0b       	sbc	r27, r23

000062a2 <__udivmodhi4_ep>:
    62a2:	88 1f       	adc	r24, r24
    62a4:	99 1f       	adc	r25, r25
    62a6:	5a 95       	dec	r21
    62a8:	a9 f7       	brne	.-22     	; 0x6294 <__udivmodhi4_loop>
    62aa:	80 95       	com	r24
    62ac:	90 95       	com	r25
    62ae:	bc 01       	movw	r22, r24
    62b0:	cd 01       	movw	r24, r26
    62b2:	08 95       	ret

000062b4 <__divmodhi4>:
    62b4:	97 fb       	bst	r25, 7
    62b6:	07 2e       	mov	r0, r23
    62b8:	16 f4       	brtc	.+4      	; 0x62be <__divmodhi4+0xa>
    62ba:	00 94       	com	r0
    62bc:	06 d0       	rcall	.+12     	; 0x62ca <__divmodhi4_neg1>
    62be:	77 fd       	sbrc	r23, 7
    62c0:	08 d0       	rcall	.+16     	; 0x62d2 <__divmodhi4_neg2>
    62c2:	e4 df       	rcall	.-56     	; 0x628c <__udivmodhi4>
    62c4:	07 fc       	sbrc	r0, 7
    62c6:	05 d0       	rcall	.+10     	; 0x62d2 <__divmodhi4_neg2>
    62c8:	3e f4       	brtc	.+14     	; 0x62d8 <__divmodhi4_exit>

000062ca <__divmodhi4_neg1>:
    62ca:	90 95       	com	r25
    62cc:	81 95       	neg	r24
    62ce:	9f 4f       	sbci	r25, 0xFF	; 255
    62d0:	08 95       	ret

000062d2 <__divmodhi4_neg2>:
    62d2:	70 95       	com	r23
    62d4:	61 95       	neg	r22
    62d6:	7f 4f       	sbci	r23, 0xFF	; 255

000062d8 <__divmodhi4_exit>:
    62d8:	08 95       	ret

000062da <__udivmodsi4>:
    62da:	a1 e2       	ldi	r26, 0x21	; 33
    62dc:	1a 2e       	mov	r1, r26
    62de:	aa 1b       	sub	r26, r26
    62e0:	bb 1b       	sub	r27, r27
    62e2:	fd 01       	movw	r30, r26
    62e4:	0d c0       	rjmp	.+26     	; 0x6300 <__udivmodsi4_ep>

000062e6 <__udivmodsi4_loop>:
    62e6:	aa 1f       	adc	r26, r26
    62e8:	bb 1f       	adc	r27, r27
    62ea:	ee 1f       	adc	r30, r30
    62ec:	ff 1f       	adc	r31, r31
    62ee:	a2 17       	cp	r26, r18
    62f0:	b3 07       	cpc	r27, r19
    62f2:	e4 07       	cpc	r30, r20
    62f4:	f5 07       	cpc	r31, r21
    62f6:	20 f0       	brcs	.+8      	; 0x6300 <__udivmodsi4_ep>
    62f8:	a2 1b       	sub	r26, r18
    62fa:	b3 0b       	sbc	r27, r19
    62fc:	e4 0b       	sbc	r30, r20
    62fe:	f5 0b       	sbc	r31, r21

00006300 <__udivmodsi4_ep>:
    6300:	66 1f       	adc	r22, r22
    6302:	77 1f       	adc	r23, r23
    6304:	88 1f       	adc	r24, r24
    6306:	99 1f       	adc	r25, r25
    6308:	1a 94       	dec	r1
    630a:	69 f7       	brne	.-38     	; 0x62e6 <__udivmodsi4_loop>
    630c:	60 95       	com	r22
    630e:	70 95       	com	r23
    6310:	80 95       	com	r24
    6312:	90 95       	com	r25
    6314:	9b 01       	movw	r18, r22
    6316:	ac 01       	movw	r20, r24
    6318:	bd 01       	movw	r22, r26
    631a:	cf 01       	movw	r24, r30
    631c:	08 95       	ret

0000631e <__divmodsi4>:
    631e:	05 2e       	mov	r0, r21
    6320:	97 fb       	bst	r25, 7
    6322:	16 f4       	brtc	.+4      	; 0x6328 <__divmodsi4+0xa>
    6324:	00 94       	com	r0
    6326:	0f d0       	rcall	.+30     	; 0x6346 <__negsi2>
    6328:	57 fd       	sbrc	r21, 7
    632a:	05 d0       	rcall	.+10     	; 0x6336 <__divmodsi4_neg2>
    632c:	d6 df       	rcall	.-84     	; 0x62da <__udivmodsi4>
    632e:	07 fc       	sbrc	r0, 7
    6330:	02 d0       	rcall	.+4      	; 0x6336 <__divmodsi4_neg2>
    6332:	46 f4       	brtc	.+16     	; 0x6344 <__divmodsi4_exit>
    6334:	08 c0       	rjmp	.+16     	; 0x6346 <__negsi2>

00006336 <__divmodsi4_neg2>:
    6336:	50 95       	com	r21
    6338:	40 95       	com	r20
    633a:	30 95       	com	r19
    633c:	21 95       	neg	r18
    633e:	3f 4f       	sbci	r19, 0xFF	; 255
    6340:	4f 4f       	sbci	r20, 0xFF	; 255
    6342:	5f 4f       	sbci	r21, 0xFF	; 255

00006344 <__divmodsi4_exit>:
    6344:	08 95       	ret

00006346 <__negsi2>:
    6346:	90 95       	com	r25
    6348:	80 95       	com	r24
    634a:	70 95       	com	r23
    634c:	61 95       	neg	r22
    634e:	7f 4f       	sbci	r23, 0xFF	; 255
    6350:	8f 4f       	sbci	r24, 0xFF	; 255
    6352:	9f 4f       	sbci	r25, 0xFF	; 255
    6354:	08 95       	ret

00006356 <__umulhisi3>:
    6356:	a2 9f       	mul	r26, r18
    6358:	b0 01       	movw	r22, r0
    635a:	b3 9f       	mul	r27, r19
    635c:	c0 01       	movw	r24, r0
    635e:	a3 9f       	mul	r26, r19
    6360:	70 0d       	add	r23, r0
    6362:	81 1d       	adc	r24, r1
    6364:	11 24       	eor	r1, r1
    6366:	91 1d       	adc	r25, r1
    6368:	b2 9f       	mul	r27, r18
    636a:	70 0d       	add	r23, r0
    636c:	81 1d       	adc	r24, r1
    636e:	11 24       	eor	r1, r1
    6370:	91 1d       	adc	r25, r1
    6372:	08 95       	ret

00006374 <__usmulhisi3>:
    6374:	f0 df       	rcall	.-32     	; 0x6356 <__umulhisi3>

00006376 <__usmulhisi3_tail>:
    6376:	b7 ff       	sbrs	r27, 7
    6378:	08 95       	ret
    637a:	82 1b       	sub	r24, r18
    637c:	93 0b       	sbc	r25, r19
    637e:	08 95       	ret

00006380 <__muluhisi3>:
    6380:	ea df       	rcall	.-44     	; 0x6356 <__umulhisi3>
    6382:	a5 9f       	mul	r26, r21
    6384:	90 0d       	add	r25, r0
    6386:	b4 9f       	mul	r27, r20
    6388:	90 0d       	add	r25, r0
    638a:	a4 9f       	mul	r26, r20
    638c:	80 0d       	add	r24, r0
    638e:	91 1d       	adc	r25, r1
    6390:	11 24       	eor	r1, r1
    6392:	08 95       	ret

00006394 <__mulshisi3>:
    6394:	b7 ff       	sbrs	r27, 7
    6396:	f4 cf       	rjmp	.-24     	; 0x6380 <__muluhisi3>

00006398 <__mulohisi3>:
    6398:	f3 df       	rcall	.-26     	; 0x6380 <__muluhisi3>
    639a:	82 1b       	sub	r24, r18
    639c:	93 0b       	sbc	r25, r19
    639e:	08 95       	ret

000063a0 <__prologue_saves__>:
    63a0:	2f 92       	push	r2
    63a2:	3f 92       	push	r3
    63a4:	4f 92       	push	r4
    63a6:	5f 92       	push	r5
    63a8:	6f 92       	push	r6
    63aa:	7f 92       	push	r7
    63ac:	8f 92       	push	r8
    63ae:	9f 92       	push	r9
    63b0:	af 92       	push	r10
    63b2:	bf 92       	push	r11
    63b4:	cf 92       	push	r12
    63b6:	df 92       	push	r13
    63b8:	ef 92       	push	r14
    63ba:	ff 92       	push	r15
    63bc:	0f 93       	push	r16
    63be:	1f 93       	push	r17
    63c0:	cf 93       	push	r28
    63c2:	df 93       	push	r29
    63c4:	cd b7       	in	r28, 0x3d	; 61
    63c6:	de b7       	in	r29, 0x3e	; 62
    63c8:	ca 1b       	sub	r28, r26
    63ca:	db 0b       	sbc	r29, r27
    63cc:	0f b6       	in	r0, 0x3f	; 63
    63ce:	f8 94       	cli
    63d0:	de bf       	out	0x3e, r29	; 62
    63d2:	0f be       	out	0x3f, r0	; 63
    63d4:	cd bf       	out	0x3d, r28	; 61
    63d6:	09 94       	ijmp

000063d8 <__epilogue_restores__>:
    63d8:	2a 88       	ldd	r2, Y+18	; 0x12
    63da:	39 88       	ldd	r3, Y+17	; 0x11
    63dc:	48 88       	ldd	r4, Y+16	; 0x10
    63de:	5f 84       	ldd	r5, Y+15	; 0x0f
    63e0:	6e 84       	ldd	r6, Y+14	; 0x0e
    63e2:	7d 84       	ldd	r7, Y+13	; 0x0d
    63e4:	8c 84       	ldd	r8, Y+12	; 0x0c
    63e6:	9b 84       	ldd	r9, Y+11	; 0x0b
    63e8:	aa 84       	ldd	r10, Y+10	; 0x0a
    63ea:	b9 84       	ldd	r11, Y+9	; 0x09
    63ec:	c8 84       	ldd	r12, Y+8	; 0x08
    63ee:	df 80       	ldd	r13, Y+7	; 0x07
    63f0:	ee 80       	ldd	r14, Y+6	; 0x06
    63f2:	fd 80       	ldd	r15, Y+5	; 0x05
    63f4:	0c 81       	ldd	r16, Y+4	; 0x04
    63f6:	1b 81       	ldd	r17, Y+3	; 0x03
    63f8:	aa 81       	ldd	r26, Y+2	; 0x02
    63fa:	b9 81       	ldd	r27, Y+1	; 0x01
    63fc:	ce 0f       	add	r28, r30
    63fe:	d1 1d       	adc	r29, r1
    6400:	0f b6       	in	r0, 0x3f	; 63
    6402:	f8 94       	cli
    6404:	de bf       	out	0x3e, r29	; 62
    6406:	0f be       	out	0x3f, r0	; 63
    6408:	cd bf       	out	0x3d, r28	; 61
    640a:	ed 01       	movw	r28, r26
    640c:	08 95       	ret

0000640e <__ultoa_ncheck>:
    640e:	bb 27       	eor	r27, r27

00006410 <__ultoa_common>:
    6410:	fa 01       	movw	r30, r20
    6412:	a6 2f       	mov	r26, r22
    6414:	62 17       	cp	r22, r18
    6416:	71 05       	cpc	r23, r1
    6418:	81 05       	cpc	r24, r1
    641a:	91 05       	cpc	r25, r1
    641c:	33 0b       	sbc	r19, r19
    641e:	30 fb       	bst	r19, 0
    6420:	66 f0       	brts	.+24     	; 0x643a <__ultoa_common+0x2a>
    6422:	aa 27       	eor	r26, r26
    6424:	66 0f       	add	r22, r22
    6426:	77 1f       	adc	r23, r23
    6428:	88 1f       	adc	r24, r24
    642a:	99 1f       	adc	r25, r25
    642c:	aa 1f       	adc	r26, r26
    642e:	a2 17       	cp	r26, r18
    6430:	10 f0       	brcs	.+4      	; 0x6436 <__ultoa_common+0x26>
    6432:	a2 1b       	sub	r26, r18
    6434:	63 95       	inc	r22
    6436:	38 50       	subi	r19, 0x08	; 8
    6438:	a9 f7       	brne	.-22     	; 0x6424 <__ultoa_common+0x14>
    643a:	a0 5d       	subi	r26, 0xD0	; 208
    643c:	aa 33       	cpi	r26, 0x3A	; 58
    643e:	08 f0       	brcs	.+2      	; 0x6442 <__ultoa_common+0x32>
    6440:	a9 5d       	subi	r26, 0xD9	; 217
    6442:	a1 93       	st	Z+, r26
    6444:	36 f7       	brtc	.-52     	; 0x6412 <__ultoa_common+0x2>
    6446:	b1 11       	cpse	r27, r1
    6448:	b1 93       	st	Z+, r27
    644a:	10 82       	st	Z, r1
    644c:	ca 01       	movw	r24, r20
    644e:	41 c0       	rjmp	.+130    	; 0x64d2 <strrev>

00006450 <utoa>:
    6450:	45 32       	cpi	r20, 0x25	; 37
    6452:	51 05       	cpc	r21, r1
    6454:	18 f4       	brcc	.+6      	; 0x645c <utoa+0xc>
    6456:	42 30       	cpi	r20, 0x02	; 2
    6458:	08 f0       	brcs	.+2      	; 0x645c <utoa+0xc>
    645a:	04 c0       	rjmp	.+8      	; 0x6464 <__utoa_ncheck>
    645c:	fb 01       	movw	r30, r22
    645e:	10 82       	st	Z, r1
    6460:	cb 01       	movw	r24, r22
    6462:	08 95       	ret

00006464 <__utoa_ncheck>:
    6464:	bb 27       	eor	r27, r27

00006466 <__utoa_common>:
    6466:	fb 01       	movw	r30, r22
    6468:	55 27       	eor	r21, r21
    646a:	aa 27       	eor	r26, r26
    646c:	88 0f       	add	r24, r24
    646e:	99 1f       	adc	r25, r25
    6470:	aa 1f       	adc	r26, r26
    6472:	a4 17       	cp	r26, r20
    6474:	10 f0       	brcs	.+4      	; 0x647a <__utoa_common+0x14>
    6476:	a4 1b       	sub	r26, r20
    6478:	83 95       	inc	r24
    647a:	50 51       	subi	r21, 0x10	; 16
    647c:	b9 f7       	brne	.-18     	; 0x646c <__utoa_common+0x6>
    647e:	a0 5d       	subi	r26, 0xD0	; 208
    6480:	aa 33       	cpi	r26, 0x3A	; 58
    6482:	08 f0       	brcs	.+2      	; 0x6486 <__utoa_common+0x20>
    6484:	a9 5d       	subi	r26, 0xD9	; 217
    6486:	a1 93       	st	Z+, r26
    6488:	00 97       	sbiw	r24, 0x00	; 0
    648a:	79 f7       	brne	.-34     	; 0x646a <__utoa_common+0x4>
    648c:	b1 11       	cpse	r27, r1
    648e:	b1 93       	st	Z+, r27
    6490:	11 92       	st	Z+, r1
    6492:	cb 01       	movw	r24, r22
    6494:	1e c0       	rjmp	.+60     	; 0x64d2 <strrev>

00006496 <__eerd_byte_m328p>:
    6496:	f9 99       	sbic	0x1f, 1	; 31
    6498:	fe cf       	rjmp	.-4      	; 0x6496 <__eerd_byte_m328p>
    649a:	92 bd       	out	0x22, r25	; 34
    649c:	81 bd       	out	0x21, r24	; 33
    649e:	f8 9a       	sbi	0x1f, 0	; 31
    64a0:	99 27       	eor	r25, r25
    64a2:	80 b5       	in	r24, 0x20	; 32
    64a4:	08 95       	ret

000064a6 <__eerd_word_m328p>:
    64a6:	a8 e1       	ldi	r26, 0x18	; 24
    64a8:	b0 e0       	ldi	r27, 0x00	; 0
    64aa:	42 e0       	ldi	r20, 0x02	; 2
    64ac:	50 e0       	ldi	r21, 0x00	; 0
    64ae:	23 c0       	rjmp	.+70     	; 0x64f6 <__eerd_blraw_m328p>

000064b0 <__eewr_byte_m328p>:
    64b0:	26 2f       	mov	r18, r22

000064b2 <__eewr_r18_m328p>:
    64b2:	f9 99       	sbic	0x1f, 1	; 31
    64b4:	fe cf       	rjmp	.-4      	; 0x64b2 <__eewr_r18_m328p>
    64b6:	1f ba       	out	0x1f, r1	; 31
    64b8:	92 bd       	out	0x22, r25	; 34
    64ba:	81 bd       	out	0x21, r24	; 33
    64bc:	20 bd       	out	0x20, r18	; 32
    64be:	0f b6       	in	r0, 0x3f	; 63
    64c0:	f8 94       	cli
    64c2:	fa 9a       	sbi	0x1f, 2	; 31
    64c4:	f9 9a       	sbi	0x1f, 1	; 31
    64c6:	0f be       	out	0x3f, r0	; 63
    64c8:	01 96       	adiw	r24, 0x01	; 1
    64ca:	08 95       	ret

000064cc <__eewr_word_m328p>:
    64cc:	f1 df       	rcall	.-30     	; 0x64b0 <__eewr_byte_m328p>
    64ce:	27 2f       	mov	r18, r23
    64d0:	f0 cf       	rjmp	.-32     	; 0x64b2 <__eewr_r18_m328p>

000064d2 <strrev>:
    64d2:	dc 01       	movw	r26, r24
    64d4:	fc 01       	movw	r30, r24
    64d6:	67 2f       	mov	r22, r23
    64d8:	71 91       	ld	r23, Z+
    64da:	77 23       	and	r23, r23
    64dc:	e1 f7       	brne	.-8      	; 0x64d6 <strrev+0x4>
    64de:	32 97       	sbiw	r30, 0x02	; 2
    64e0:	04 c0       	rjmp	.+8      	; 0x64ea <strrev+0x18>
    64e2:	7c 91       	ld	r23, X
    64e4:	6d 93       	st	X+, r22
    64e6:	70 83       	st	Z, r23
    64e8:	62 91       	ld	r22, -Z
    64ea:	ae 17       	cp	r26, r30
    64ec:	bf 07       	cpc	r27, r31
    64ee:	c8 f3       	brcs	.-14     	; 0x64e2 <strrev+0x10>
    64f0:	08 95       	ret

000064f2 <__eerd_block_m328p>:
    64f2:	dc 01       	movw	r26, r24
    64f4:	cb 01       	movw	r24, r22

000064f6 <__eerd_blraw_m328p>:
    64f6:	fc 01       	movw	r30, r24
    64f8:	f9 99       	sbic	0x1f, 1	; 31
    64fa:	fe cf       	rjmp	.-4      	; 0x64f8 <__eerd_blraw_m328p+0x2>
    64fc:	06 c0       	rjmp	.+12     	; 0x650a <__eerd_blraw_m328p+0x14>
    64fe:	f2 bd       	out	0x22, r31	; 34
    6500:	e1 bd       	out	0x21, r30	; 33
    6502:	f8 9a       	sbi	0x1f, 0	; 31
    6504:	31 96       	adiw	r30, 0x01	; 1
    6506:	00 b4       	in	r0, 0x20	; 32
    6508:	0d 92       	st	X+, r0
    650a:	41 50       	subi	r20, 0x01	; 1
    650c:	50 40       	sbci	r21, 0x00	; 0
    650e:	b8 f7       	brcc	.-18     	; 0x64fe <__eerd_blraw_m328p+0x8>
    6510:	08 95       	ret

00006512 <_exit>:
    6512:	f8 94       	cli

00006514 <__stop_program>:
    6514:	ff cf       	rjmp	.-2      	; 0x6514 <__stop_program>
